 OpenGL

 Timestamp is 65620dcb (Sat Nov 25 23:07:55 2023)

 Preferred load address is 00400000

 Start         Length     Name                   Class
 0001:00000000 001113ffH .textbss                DATA
 0002:00000000 00014510H .text$di                CODE
 0002:00014510 00222ea0H .text$mn                CODE
 0002:002373b0 000057a0H .text$x                 CODE
 0002:0023cb50 0000143bH .text$yd                CODE
 0003:00000000 00000104H .CRT$XCA                DATA
 0003:00000104 00000104H .CRT$XCAA               DATA
 0003:00000208 00000104H .CRT$XCL                DATA
 0003:0000030c 00000114H .CRT$XCU                DATA
 0003:00000420 00000104H .CRT$XCZ                DATA
 0003:00000524 00000104H .CRT$XIA                DATA
 0003:00000628 00000104H .CRT$XIAA               DATA
 0003:0000072c 00000104H .CRT$XIAC               DATA
 0003:00000830 00000104H .CRT$XIC                DATA
 0003:00000934 00000104H .CRT$XIZ                DATA
 0003:00000a38 00000004H .CRT$XLA                DATA
 0003:00000a3c 00000004H .CRT$XLZ                DATA
 0003:00000a40 00000104H .CRT$XPA                DATA
 0003:00000b44 00000104H .CRT$XPZ                DATA
 0003:00000c48 00000104H .CRT$XTA                DATA
 0003:00000d4c 00000104H .CRT$XTZ                DATA
 0003:00000e50 000723b0H .rdata                  DATA
 0003:00073200 00000180H .rdata$CastGuardVftablesA DATA
 0003:00073380 0000014cH .rdata$CastGuardVftablesC DATA
 0003:000734cc 0000011cH .rdata$T                DATA
 0003:000735e8 00000e38H .rdata$r                DATA
 0003:00074420 00000160H .rdata$zzzdbg           DATA
 0003:00074580 00000104H .rtc$IAA                DATA
 0003:00074684 00000170H .rtc$IMZ                DATA
 0003:000747f4 00000104H .rtc$IZZ                DATA
 0003:000748f8 00000104H .rtc$TAA                DATA
 0003:000749fc 00000170H .rtc$TMZ                DATA
 0003:00074b6c 00000104H .rtc$TZZ                DATA
 0003:00074c70 00003851H .xdata$x                DATA
 0003:000784c1 00000000H .edata                  DATA
 0004:00000000 00008bd8H .data                   DATA
 0004:00008bd8 00000658H .data$r                 DATA
 0004:00009230 00000df0H .data$rs                DATA
 0004:0000a020 0000f198H .bss                    DATA
 0005:00000000 00000968H .idata$5                DATA
 0005:00000968 00000154H .idata$2                DATA
 0005:00000abc 00000014H .idata$3                DATA
 0005:00000ad0 00000968H .idata$4                DATA
 0005:00001438 00002a5eH .idata$6                DATA
 0006:00000000 00001198H .msvcjmc                DATA
 0007:00000000 00000104H .tls                    DATA
 0007:00000104 0000012aH .tls$                   DATA
 0007:0000022e 00000101H .tls$ZZZ                DATA
 0008:00000000 0000010eH .00cfg                  DATA
 0009:00000000 00000170H .rsrc$01                DATA
 0009:00000170 000002ccH .rsrc$02                DATA

  Address         Publics by Value              Rva+Base       Lib:Object

 0000:00000000       ___AbsoluteZero            00000000     <absolute>
 0000:00000000       ___arm64x_extra_rfe_table  00000000     <absolute>
 0000:00000000       ___arm64x_extra_rfe_table_size 00000000     <absolute>
 0000:00000000       ___arm64x_native_entrypoint 00000000     <absolute>
 0000:00000000       ___arm64x_redirection_metadata 00000000     <absolute>
 0000:00000000       ___arm64x_redirection_metadata_count 00000000     <absolute>
 0000:00000000       ___dynamic_value_reloc_table 00000000     <absolute>
 0000:00000000       ___enclave_config          00000000     <absolute>
 0000:00000000       ___guard_check_icall_a64n_fptr 00000000     <absolute>
 0000:00000000       ___guard_eh_cont_count     00000000     <absolute>
 0000:00000000       ___guard_eh_cont_table     00000000     <absolute>
 0000:00000000       ___guard_fids_count        00000000     <absolute>
 0000:00000000       ___guard_fids_table        00000000     <absolute>
 0000:00000000       ___guard_iat_count         00000000     <absolute>
 0000:00000000       ___guard_iat_table         00000000     <absolute>
 0000:00000000       ___guard_longjmp_count     00000000     <absolute>
 0000:00000000       ___guard_longjmp_table     00000000     <absolute>
 0000:00000000       ___hybrid_auxiliary_iat    00000000     <absolute>
 0000:00000000       ___hybrid_auxiliary_iat_copy 00000000     <absolute>
 0000:00000000       ___hybrid_code_map         00000000     <absolute>
 0000:00000000       ___hybrid_code_map_count   00000000     <absolute>
 0000:00000000       ___safe_se_handler_count   00000000     <absolute>
 0000:00000000       ___safe_se_handler_table   00000000     <absolute>
 0000:00000000       ___volatile_metadata       00000000     <absolute>
 0000:00000000       ___x64_code_ranges_to_entry_points 00000000     <absolute>
 0000:00000000       ___x64_code_ranges_to_entry_points_count 00000000     <absolute>
 0000:0000002c       __tls_array                0000002c     <absolute>
 0000:00000100       ___guard_flags             00000100     <absolute>
 0000:00000000       ___ImageBase               00400000     <linker-defined>
 0001:00000000       __enc$textbss$begin        00401000     <linker-defined>
 0001:001113ff       __enc$textbss$end          005123ff     <linker-defined>
 0002:00014510       ??$?0$$V@?$_Compressed_pair@V?$allocator@D@std@@V?$_String_val@U?$_Simple_types@D@std@@@2@$00@std@@QAE@U_Zero_then_variadic_args_t@1@@Z 00527510 f i Shader.obj
 0002:00014580       ??$?0AAPAU?$_List_node@U?$pair@$$CBV?$basic_string@DU?$char_traits@D@std@@V?$allocator@D@2@@std@@H@std@@PAX@std@@_N$0A@@?$pair@PAU?$_List_node@U?$pair@$$CBV?$basic_string@DU?$char_traits@D@std@@V?$allocator@D@2@@std@@H@std@@PAX@std@@_N@std@@QAE@AAPAU?$_List_node@U?$pair@$$CBV?$basic_string@DU?$char_traits@D@std@@V?$allocator@D@2@@std@@H@std@@PAX@1@$$QA_N@Z 00527580 f i Shader.obj
 0002:00014610       ??$?0AAPAV_Facet_base@std@@@?$_Compressed_pair@U?$default_delete@V_Facet_base@std@@@std@@PAV_Facet_base@2@$00@std@@QAE@U_Zero_then_variadic_args_t@1@AAPAV_Facet_base@1@@Z 00527610 f i Shader.obj
 0002:00014680       ??$?0ABUpiecewise_construct_t@std@@V?$tuple@ABV?$basic_string@DU?$char_traits@D@std@@V?$allocator@D@2@@std@@@1@V?$tuple@$$V@1@@?$_List_node_emplace_op2@V?$allocator@U?$_List_node@U?$pair@$$CBV?$basic_string@DU?$char_traits@D@std@@V?$allocator@D@2@@std@@H@std@@PAX@std@@@std@@@std@@QAE@AAV?$allocator@U?$_List_node@U?$pair@$$CBV?$basic_string@DU?$char_traits@D@std@@V?$allocator@D@2@@std@@H@std@@PAX@std@@@1@ABUpiecewise_construct_t@1@$$QAV?$tuple@ABV?$basic_string@DU?$char_traits@D@std@@V?$allocator@D@2@@std@@@1@$$QAV?$tuple@$$V@1@@Z 00527680 f i Shader.obj
 0002:00014790       ??$?0ABV?$allocator@D@std@@$$V@?$_Compressed_pair@V?$allocator@D@std@@V?$_String_val@U?$_Simple_types@D@std@@@2@$00@std@@QAE@U_One_then_variadic_args_t@1@ABV?$allocator@D@1@@Z 00527790 f i Shader.obj
 0002:00014800       ??$?0ABV?$allocator@U?$pair@$$CBV?$basic_string@DU?$char_traits@D@std@@V?$allocator@D@2@@std@@H@std@@@std@@$$V@?$_Compressed_pair@V?$allocator@U?$_List_node@U?$pair@$$CBV?$basic_string@DU?$char_traits@D@std@@V?$allocator@D@2@@std@@H@std@@PAX@std@@@std@@V?$_List_val@U?$_List_simple_types@U?$pair@$$CBV?$basic_string@DU?$char_traits@D@std@@V?$allocator@D@2@@std@@H@std@@@std@@@2@$00@std@@QAE@U_One_then_variadic_args_t@1@ABV?$allocator@U?$pair@$$CBV?$basic_string@DU?$char_traits@D@std@@V?$allocator@D@2@@std@@H@std@@@1@@Z 00527800 f i Shader.obj
 0002:00014880       ??$?0ABV?$allocator@U?$pair@$$CBV?$basic_string@DU?$char_traits@D@std@@V?$allocator@D@2@@std@@H@std@@@std@@$$V@?$_Compressed_pair@V?$allocator@V?$_List_unchecked_iterator@V?$_List_val@U?$_List_simple_types@U?$pair@$$CBV?$basic_string@DU?$char_traits@D@std@@V?$allocator@D@2@@std@@H@std@@@std@@@std@@@std@@@std@@V?$_Vector_val@U?$_Simple_types@V?$_List_unchecked_iterator@V?$_List_val@U?$_List_simple_types@U?$pair@$$CBV?$basic_string@DU?$char_traits@D@std@@V?$allocator@D@2@@std@@H@std@@@std@@@std@@@std@@@std@@@2@$00@std@@QAE@U_One_then_variadic_args_t@1@ABV?$allocator@U?$pair@$$CBV?$basic_string@DU?$char_traits@D@std@@V?$allocator@D@2@@std@@H@std@@@1@@Z 00527880 f i Shader.obj
 0002:00014900       ??$?0ABV?$allocator@U?$pair@$$CBV?$basic_string@DU?$char_traits@D@std@@V?$allocator@D@2@@std@@H@std@@@std@@$0A@@?$_Hash_vec@V?$allocator@V?$_List_unchecked_iterator@V?$_List_val@U?$_List_simple_types@U?$pair@$$CBV?$basic_string@DU?$char_traits@D@std@@V?$allocator@D@2@@std@@H@std@@@std@@@std@@@std@@@std@@@std@@QAE@ABV?$allocator@U?$pair@$$CBV?$basic_string@DU?$char_traits@D@std@@V?$allocator@D@2@@std@@H@std@@@1@@Z 00527900 f i Shader.obj
 0002:00014990       ??$?0ABV?$basic_string@DU?$char_traits@D@std@@V?$allocator@D@2@@std@@$$Z$$V@?$pair@$$CBV?$basic_string@DU?$char_traits@D@std@@V?$allocator@D@2@@std@@H@std@@QAE@Upiecewise_construct_t@1@V?$tuple@ABV?$basic_string@DU?$char_traits@D@std@@V?$allocator@D@2@@std@@@1@V?$tuple@$$V@1@@Z 00527990 f i Shader.obj
 0002:00014a20       ??$?0ABV?$basic_string@DU?$char_traits@D@std@@V?$allocator@D@2@@std@@$0A@@?$tuple@ABV?$basic_string@DU?$char_traits@D@std@@V?$allocator@D@2@@std@@@std@@QAE@ABV?$basic_string@DU?$char_traits@D@std@@V?$allocator@D@2@@1@@Z 00527a20 f i Shader.obj
 0002:00014ad0       ??$?0ABV?$basic_string@DU?$char_traits@D@std@@V?$allocator@D@2@@std@@@?$_Tuple_val@ABV?$basic_string@DU?$char_traits@D@std@@V?$allocator@D@2@@std@@@std@@QAE@ABV?$basic_string@DU?$char_traits@D@std@@V?$allocator@D@2@@1@@Z 00527ad0 f i Shader.obj
 0002:00014b40       ??$?0M@?$_Compressed_pair@U?$equal_to@V?$basic_string@DU?$char_traits@D@std@@V?$allocator@D@2@@std@@@std@@M$00@std@@QAE@U_Zero_then_variadic_args_t@1@$$QAM@Z 00527b40 f i Shader.obj
 0002:00014bb0       ??$?0PAU?$_List_node@U?$pair@$$CBV?$basic_string@DU?$char_traits@D@std@@V?$allocator@D@2@@std@@H@std@@PAX@std@@_N$0A@@?$pair@PAU?$_List_node@U?$pair@$$CBV?$basic_string@DU?$char_traits@D@std@@V?$allocator@D@2@@std@@H@std@@PAX@std@@_N@std@@QAE@$$QAPAU?$_List_node@U?$pair@$$CBV?$basic_string@DU?$char_traits@D@std@@V?$allocator@D@2@@std@@H@std@@PAX@1@$$QA_N@Z 00527bb0 f i Shader.obj
 0002:00014c40       ??$?0U?$default_delete@V_Facet_base@std@@@std@@$0A@@?$unique_ptr@V_Facet_base@std@@U?$default_delete@V_Facet_base@std@@@2@@std@@QAE@PAV_Facet_base@1@@Z 00527c40 f i Shader.obj
 0002:00014cb0       ??$?0U?$pair@$$CBV?$basic_string@DU?$char_traits@D@std@@V?$allocator@D@2@@std@@H@std@@@?$allocator@U?$_List_node@U?$pair@$$CBV?$basic_string@DU?$char_traits@D@std@@V?$allocator@D@2@@std@@H@std@@PAX@std@@@std@@QAE@ABV?$allocator@U?$pair@$$CBV?$basic_string@DU?$char_traits@D@std@@V?$allocator@D@2@@std@@H@std@@@1@@Z 00527cb0 f i Shader.obj
 0002:00014d10       ??$?0U?$pair@$$CBV?$basic_string@DU?$char_traits@D@std@@V?$allocator@D@2@@std@@H@std@@@?$allocator@V?$_List_unchecked_iterator@V?$_List_val@U?$_List_simple_types@U?$pair@$$CBV?$basic_string@DU?$char_traits@D@std@@V?$allocator@D@2@@std@@H@std@@@std@@@std@@@std@@@std@@QAE@ABV?$allocator@U?$pair@$$CBV?$basic_string@DU?$char_traits@D@std@@V?$allocator@D@2@@std@@H@std@@@1@@Z 00527d10 f i Shader.obj
 0002:00014d70       ??$?0U_Exact_args_t@std@@$0A@@?$tuple@$$V@std@@QAE@U_Exact_args_t@1@@Z 00527d70 f i Shader.obj
 0002:00014dd0       ??$?0U_Exact_args_t@std@@ABV?$basic_string@DU?$char_traits@D@std@@V?$allocator@D@2@@1@$$V$0A@@?$tuple@ABV?$basic_string@DU?$char_traits@D@std@@V?$allocator@D@2@@std@@@std@@QAE@U_Exact_args_t@1@ABV?$basic_string@DU?$char_traits@D@std@@V?$allocator@D@2@@1@@Z 00527dd0 f i Shader.obj
 0002:00014e60       ??$?0U_Zero_then_variadic_args_t@std@@M@?$_Compressed_pair@U?$hash@V?$basic_string@DU?$char_traits@D@std@@V?$allocator@D@2@@std@@@std@@V?$_Compressed_pair@U?$equal_to@V?$basic_string@DU?$char_traits@D@std@@V?$allocator@D@2@@std@@@std@@M$00@2@$00@std@@QAE@U_Zero_then_variadic_args_t@1@$$QAU21@$$QAM@Z 00527e60 f i Shader.obj
 0002:00014ef0       ??$?0V?$allocator@D@std@@$$V@?$_Compressed_pair@V?$allocator@D@std@@V?$_String_val@U?$_Simple_types@D@std@@@2@$00@std@@QAE@U_One_then_variadic_args_t@1@$$QAV?$allocator@D@1@@Z 00527ef0 f i Shader.obj
 0002:00014f60       ??$?0V?$tuple@ABV?$basic_string@DU?$char_traits@D@std@@V?$allocator@D@2@@std@@@std@@V?$tuple@$$V@1@$0A@$$Z$S@?$pair@$$CBV?$basic_string@DU?$char_traits@D@std@@V?$allocator@D@2@@std@@H@std@@QAE@AAV?$tuple@ABV?$basic_string@DU?$char_traits@D@std@@V?$allocator@D@2@@std@@@1@AAV?$tuple@$$V@1@U?$integer_sequence@I$0A@@1@U?$integer_sequence@I$S@1@@Z 00527f60 f i Shader.obj
 0002:00014ff0       ??$?6DU?$char_traits@D@std@@V?$allocator@D@1@@std@@YAAAV?$basic_ostream@DU?$char_traits@D@std@@@0@AAV10@ABV?$basic_string@DU?$char_traits@D@std@@V?$allocator@D@2@@0@@Z 00527ff0 f i Shader.obj
 0002:00015060       ??$?6U?$char_traits@D@std@@@std@@YAAAV?$basic_ostream@DU?$char_traits@D@std@@@0@AAV10@D@Z 00528060 f i Shader.obj
 0002:000155f0       ??$?6U?$char_traits@D@std@@@std@@YAAAV?$basic_ostream@DU?$char_traits@D@std@@@0@AAV10@PBD@Z 005285f0 f i Shader.obj
 0002:00015bd0       ??$?8DU?$char_traits@D@std@@V?$allocator@D@1@@std@@YA_NABV?$basic_string@DU?$char_traits@D@std@@V?$allocator@D@2@@0@0@Z 00528bd0 f i Shader.obj
 0002:00015c30       ??$?RV?$basic_string@DU?$char_traits@D@std@@V?$allocator@D@2@@std@@@?$_Uhash_compare@V?$basic_string@DU?$char_traits@D@std@@V?$allocator@D@2@@std@@U?$hash@V?$basic_string@DU?$char_traits@D@std@@V?$allocator@D@2@@std@@@2@U?$equal_to@V?$basic_string@DU?$char_traits@D@std@@V?$allocator@D@2@@std@@@2@@std@@QBEIABV?$basic_string@DU?$char_traits@D@std@@V?$allocator@D@2@@1@@Z 00528c30 f i Shader.obj
 0002:00015ca0       ??$?RV?$basic_string@DU?$char_traits@D@std@@V?$allocator@D@2@@std@@V01@@?$_Uhash_compare@V?$basic_string@DU?$char_traits@D@std@@V?$allocator@D@2@@std@@U?$hash@V?$basic_string@DU?$char_traits@D@std@@V?$allocator@D@2@@std@@@2@U?$equal_to@V?$basic_string@DU?$char_traits@D@std@@V?$allocator@D@2@@std@@@2@@std@@QBE_NABV?$basic_string@DU?$char_traits@D@std@@V?$allocator@D@2@@1@0@Z 00528ca0 f i Shader.obj
 0002:00015d40       ??$_Adl_verify_range@PAV?$_List_unchecked_iterator@V?$_List_val@U?$_List_simple_types@U?$pair@$$CBV?$basic_string@DU?$char_traits@D@std@@V?$allocator@D@2@@std@@H@std@@@std@@@std@@@std@@PAV12@@std@@YAXABQAV?$_List_unchecked_iterator@V?$_List_val@U?$_List_simple_types@U?$pair@$$CBV?$basic_string@DU?$char_traits@D@std@@V?$allocator@D@2@@std@@H@std@@@std@@@std@@@0@0@Z 00528d40 f i Shader.obj
 0002:00015d90       ??$_Allocate@$07U_Default_allocate_traits@std@@$0A@@std@@YAPAXI@Z 00528d90 f i Shader.obj
 0002:00015e10       ??$_Allocate_manually_vector_aligned@U_Default_allocate_traits@std@@@std@@YAPAXI@Z 00528e10 f i Shader.obj
 0002:00015ee0       ??$_Construct@$01PBD@?$basic_string@DU?$char_traits@D@std@@V?$allocator@D@2@@std@@AAEXQBDI@Z 00528ee0 f i Shader.obj
 0002:000160d0       ??$_Construct_in_place@PADAAPAD@std@@YAXAAPAD0@Z 005290d0 f i Shader.obj
 0002:00016170       ??$_Construct_in_place@PADABQAD@std@@YAXAAPADABQAD@Z 00529170 f i Shader.obj
 0002:00016210       ??$_Construct_in_place@PAU?$_List_node@U?$pair@$$CBV?$basic_string@DU?$char_traits@D@std@@V?$allocator@D@2@@std@@H@std@@PAX@std@@AAPAU12@@std@@YAXAAPAU?$_List_node@U?$pair@$$CBV?$basic_string@DU?$char_traits@D@std@@V?$allocator@D@2@@std@@H@std@@PAX@0@0@Z 00529210 f i Shader.obj
 0002:000162b0       ??$_Construct_in_place@PAU?$_List_node@U?$pair@$$CBV?$basic_string@DU?$char_traits@D@std@@V?$allocator@D@2@@std@@H@std@@PAX@std@@ABQAU12@@std@@YAXAAPAU?$_List_node@U?$pair@$$CBV?$basic_string@DU?$char_traits@D@std@@V?$allocator@D@2@@std@@H@std@@PAX@0@ABQAU10@@Z 005292b0 f i Shader.obj
 0002:00016350       ??$_Construct_in_place@V?$_List_unchecked_iterator@V?$_List_val@U?$_List_simple_types@U?$pair@$$CBV?$basic_string@DU?$char_traits@D@std@@V?$allocator@D@2@@std@@H@std@@@std@@@std@@@std@@ABV12@@std@@YAXAAV?$_List_unchecked_iterator@V?$_List_val@U?$_List_simple_types@U?$pair@$$CBV?$basic_string@DU?$char_traits@D@std@@V?$allocator@D@2@@std@@H@std@@@std@@@std@@@0@ABV10@@Z 00529350 f i Shader.obj
 0002:000163f0       ??$_Deallocate@$07$0A@@std@@YAXPAXI@Z 005293f0 f i Shader.obj
 0002:000164b0       ??$_Destroy_in_place@PAD@std@@YAXAAPAD@Z 005294b0 f i Shader.obj
 0002:00016500       ??$_Destroy_in_place@PAU?$_List_node@U?$pair@$$CBV?$basic_string@DU?$char_traits@D@std@@V?$allocator@D@2@@std@@H@std@@PAX@std@@@std@@YAXAAPAU?$_List_node@U?$pair@$$CBV?$basic_string@DU?$char_traits@D@std@@V?$allocator@D@2@@std@@H@std@@PAX@0@@Z 00529500 f i Shader.obj
 0002:00016550       ??$_Destroy_range@PAV?$_List_unchecked_iterator@V?$_List_val@U?$_List_simple_types@U?$pair@$$CBV?$basic_string@DU?$char_traits@D@std@@V?$allocator@D@2@@std@@H@std@@@std@@@std@@@std@@PAV12@@std@@YAXPAV?$_List_unchecked_iterator@V?$_List_val@U?$_List_simple_types@U?$pair@$$CBV?$basic_string@DU?$char_traits@D@std@@V?$allocator@D@2@@std@@H@std@@@std@@@std@@@0@QAV10@@Z 00529550 f i Shader.obj
 0002:000165a0       ??$_Emplace_back@ABV?$_List_unchecked_iterator@V?$_List_val@U?$_List_simple_types@U?$pair@$$CBV?$basic_string@DU?$char_traits@D@std@@V?$allocator@D@2@@std@@H@std@@@std@@@std@@@std@@@?$_Uninitialized_backout@PAV?$_List_unchecked_iterator@V?$_List_val@U?$_List_simple_types@U?$pair@$$CBV?$basic_string@DU?$char_traits@D@std@@V?$allocator@D@2@@std@@H@std@@@std@@@std@@@std@@@std@@QAEXABV?$_List_unchecked_iterator@V?$_List_val@U?$_List_simple_types@U?$pair@$$CBV?$basic_string@DU?$char_traits@D@std@@V?$allocator@D@2@@std@@H@std@@@std@@@std@@@1@@Z 005295a0 f i Shader.obj
 0002:00016630       ??$_Fgetc@D@std@@YA_NAADPAU_iobuf@@@Z 00529630 f i Shader.obj
 0002:000166c0       ??$_Find@V?$basic_string@DU?$char_traits@D@std@@V?$allocator@D@2@@std@@@?$_Hash@V?$_Umap_traits@V?$basic_string@DU?$char_traits@D@std@@V?$allocator@D@2@@std@@HV?$_Uhash_compare@V?$basic_string@DU?$char_traits@D@std@@V?$allocator@D@2@@std@@U?$hash@V?$basic_string@DU?$char_traits@D@std@@V?$allocator@D@2@@std@@@2@U?$equal_to@V?$basic_string@DU?$char_traits@D@std@@V?$allocator@D@2@@std@@@2@@2@V?$allocator@U?$pair@$$CBV?$basic_string@DU?$char_traits@D@std@@V?$allocator@D@2@@std@@H@std@@@2@$0A@@std@@@std@@ABEPAU?$_List_node@U?$pair@$$CBV?$basic_string@DU?$char_traits@D@std@@V?$allocator@D@2@@std@@H@std@@PAX@1@ABV?$basic_string@DU?$char_traits@D@std@@V?$allocator@D@2@@1@I@Z 005296c0 f i Shader.obj
 0002:00016750       ??$_Find_last@V?$basic_string@DU?$char_traits@D@std@@V?$allocator@D@2@@std@@@?$_Hash@V?$_Umap_traits@V?$basic_string@DU?$char_traits@D@std@@V?$allocator@D@2@@std@@HV?$_Uhash_compare@V?$basic_string@DU?$char_traits@D@std@@V?$allocator@D@2@@std@@U?$hash@V?$basic_string@DU?$char_traits@D@std@@V?$allocator@D@2@@std@@@2@U?$equal_to@V?$basic_string@DU?$char_traits@D@std@@V?$allocator@D@2@@std@@@2@@2@V?$allocator@U?$pair@$$CBV?$basic_string@DU?$char_traits@D@std@@V?$allocator@D@2@@std@@H@std@@@2@$0A@@std@@@std@@IBE?AU?$_Hash_find_last_result@PAU?$_List_node@U?$pair@$$CBV?$basic_string@DU?$char_traits@D@std@@V?$allocator@D@2@@std@@H@std@@PAX@std@@@1@ABV?$basic_string@DU?$char_traits@D@std@@V?$allocator@D@2@@1@I@Z 00529750 f i Shader.obj
 0002:00016890       ??$_Fputc@D@std@@YA_NDPAU_iobuf@@@Z 00529890 f i Shader.obj
 0002:00016930       ??$_Free_non_head@V?$allocator@U?$_List_node@U?$pair@$$CBV?$basic_string@DU?$char_traits@D@std@@V?$allocator@D@2@@std@@H@std@@PAX@std@@@std@@@?$_List_node@U?$pair@$$CBV?$basic_string@DU?$char_traits@D@std@@V?$allocator@D@2@@std@@H@std@@PAX@std@@SAXAAV?$allocator@U?$_List_node@U?$pair@$$CBV?$basic_string@DU?$char_traits@D@std@@V?$allocator@D@2@@std@@H@std@@PAX@std@@@1@PAU01@@Z 00529930 f i Shader.obj
 0002:000169d0       ??$_Freenode0@V?$allocator@U?$_List_node@U?$pair@$$CBV?$basic_string@DU?$char_traits@D@std@@V?$allocator@D@2@@std@@H@std@@PAX@std@@@std@@@?$_List_node@U?$pair@$$CBV?$basic_string@DU?$char_traits@D@std@@V?$allocator@D@2@@std@@H@std@@PAX@std@@SAXAAV?$allocator@U?$_List_node@U?$pair@$$CBV?$basic_string@DU?$char_traits@D@std@@V?$allocator@D@2@@std@@H@std@@PAX@std@@@1@PAU01@@Z 005299d0 f i Shader.obj
 0002:00016a90       ??$_Freenode@V?$allocator@U?$_List_node@U?$pair@$$CBV?$basic_string@DU?$char_traits@D@std@@V?$allocator@D@2@@std@@H@std@@PAX@std@@@std@@@?$_List_node@U?$pair@$$CBV?$basic_string@DU?$char_traits@D@std@@V?$allocator@D@2@@std@@H@std@@PAX@std@@SAXAAV?$allocator@U?$_List_node@U?$pair@$$CBV?$basic_string@DU?$char_traits@D@std@@V?$allocator@D@2@@std@@H@std@@PAX@std@@@1@PAU01@@Z 00529a90 f i Shader.obj
 0002:00016b50       ??$_Get_size_of_n@$00@std@@YAII@Z 00529b50 f i Shader.obj
 0002:00016ba0       ??$_Get_size_of_n@$03@std@@YAII@Z 00529ba0 f i Shader.obj
 0002:00016c10       ??$_Get_size_of_n@$0CE@@std@@YAII@Z 00529c10 f i Shader.obj
 0002:00016c80       ??$_Get_unwrapped@ABQAV?$_List_unchecked_iterator@V?$_List_val@U?$_List_simple_types@U?$pair@$$CBV?$basic_string@DU?$char_traits@D@std@@V?$allocator@D@2@@std@@H@std@@@std@@@std@@@std@@@std@@YA?A_TABQAV?$_List_unchecked_iterator@V?$_List_val@U?$_List_simple_types@U?$pair@$$CBV?$basic_string@DU?$char_traits@D@std@@V?$allocator@D@2@@std@@H@std@@@std@@@std@@@0@@Z 00529c80 f i Shader.obj
 0002:00016cd0       ??$_Hash_array_representation@D@std@@YAIQBDI@Z 00529cd0 f i Shader.obj
 0002:00016d30       ??$_Insert_string@DU?$char_traits@D@std@@I@std@@YAAAV?$basic_ostream@DU?$char_traits@D@std@@@0@AAV10@QBDI@Z 00529d30 f i Shader.obj
 0002:00017290       ??$_Kfn@$$CBV?$basic_string@DU?$char_traits@D@std@@V?$allocator@D@2@@std@@H@?$_Umap_traits@V?$basic_string@DU?$char_traits@D@std@@V?$allocator@D@2@@std@@HV?$_Uhash_compare@V?$basic_string@DU?$char_traits@D@std@@V?$allocator@D@2@@std@@U?$hash@V?$basic_string@DU?$char_traits@D@std@@V?$allocator@D@2@@std@@@2@U?$equal_to@V?$basic_string@DU?$char_traits@D@std@@V?$allocator@D@2@@std@@@2@@2@V?$allocator@U?$pair@$$CBV?$basic_string@DU?$char_traits@D@std@@V?$allocator@D@2@@std@@H@std@@@2@$0A@@std@@SAABV?$basic_string@DU?$char_traits@D@std@@V?$allocator@D@2@@1@ABU?$pair@$$CBV?$basic_string@DU?$char_traits@D@std@@V?$allocator@D@2@@std@@H@1@@Z 0052a290 f i Shader.obj
 0002:000172e0       ??$_Reallocate_for@V<lambda_1>@?1??assign@?$basic_string@DU?$char_traits@D@std@@V?$allocator@D@2@@std@@QAEAAV34@QBDI@Z@PBD@?$basic_string@DU?$char_traits@D@std@@V?$allocator@D@2@@std@@AAEAAV01@IV<lambda_1>@?1??assign@01@QAEAAV01@QBDI@Z@PBD@Z 0052a2e0 f i Shader.obj
 0002:00017480       ??$_Reallocate_grow_by@V<lambda_1>@?1??push_back@?$basic_string@DU?$char_traits@D@std@@V?$allocator@D@2@@std@@QAEXD@Z@D@?$basic_string@DU?$char_traits@D@std@@V?$allocator@D@2@@std@@AAEAAV01@IV<lambda_1>@?1??push_back@01@QAEXD@Z@D@Z 0052a480 f i Shader.obj
 0002:00017680       ??$_Traits_equal@U?$char_traits@D@std@@@std@@YA_NQBDI0I@Z 0052a680 f i Shader.obj
 0002:00017720       ??$_Traits_find@U?$char_traits@D@std@@@std@@YAIQBDII0I@Z 0052a720 f i Shader.obj
 0002:00017820       ??$_Try_emplace@ABV?$basic_string@DU?$char_traits@D@std@@V?$allocator@D@2@@std@@$$V@?$_Hash@V?$_Umap_traits@V?$basic_string@DU?$char_traits@D@std@@V?$allocator@D@2@@std@@HV?$_Uhash_compare@V?$basic_string@DU?$char_traits@D@std@@V?$allocator@D@2@@std@@U?$hash@V?$basic_string@DU?$char_traits@D@std@@V?$allocator@D@2@@std@@@2@U?$equal_to@V?$basic_string@DU?$char_traits@D@std@@V?$allocator@D@2@@std@@@2@@2@V?$allocator@U?$pair@$$CBV?$basic_string@DU?$char_traits@D@std@@V?$allocator@D@2@@std@@H@std@@@2@$0A@@std@@@std@@IAE?AU?$pair@PAU?$_List_node@U?$pair@$$CBV?$basic_string@DU?$char_traits@D@std@@V?$allocator@D@2@@std@@H@std@@PAX@std@@_N@1@ABV?$basic_string@DU?$char_traits@D@std@@V?$allocator@D@2@@1@@Z 0052a820 f i Shader.obj
 0002:00017aa0       ??$_Tuple_get@$0A@ABV?$basic_string@DU?$char_traits@D@std@@V?$allocator@D@2@@std@@@std@@YA$$QA_P$$QAV?$tuple@ABV?$basic_string@DU?$char_traits@D@std@@V?$allocator@D@2@@std@@@0@@Z 0052aaa0 f i Shader.obj
 0002:00017af0       ??$_Unfancy@D@std@@YAPADPAD@Z 0052aaf0 f i Shader.obj
 0002:00017b40       ??$_Ungetc@D@std@@YA_NABDPAU_iobuf@@@Z 0052ab40 f i Shader.obj
 0002:00017be0       ??$_Voidify_iter@PAPAD@std@@YAPAXPAPAD@Z 0052abe0 f i Shader.obj
 0002:00017c30       ??$_Voidify_iter@PAPAU?$_List_node@U?$pair@$$CBV?$basic_string@DU?$char_traits@D@std@@V?$allocator@D@2@@std@@H@std@@PAX@std@@@std@@YAPAXPAPAU?$_List_node@U?$pair@$$CBV?$basic_string@DU?$char_traits@D@std@@V?$allocator@D@2@@std@@H@std@@PAX@0@@Z 0052ac30 f i Shader.obj
 0002:00017c80       ??$_Voidify_iter@PAU?$pair@$$CBV?$basic_string@DU?$char_traits@D@std@@V?$allocator@D@2@@std@@H@std@@@std@@YAPAXPAU?$pair@$$CBV?$basic_string@DU?$char_traits@D@std@@V?$allocator@D@2@@std@@H@0@@Z 0052ac80 f i Shader.obj
 0002:00017cd0       ??$_Voidify_iter@PAV?$_List_unchecked_iterator@V?$_List_val@U?$_List_simple_types@U?$pair@$$CBV?$basic_string@DU?$char_traits@D@std@@V?$allocator@D@2@@std@@H@std@@@std@@@std@@@std@@@std@@YAPAXPAV?$_List_unchecked_iterator@V?$_List_val@U?$_List_simple_types@U?$pair@$$CBV?$basic_string@DU?$char_traits@D@std@@V?$allocator@D@2@@std@@H@std@@@std@@@std@@@0@@Z 0052acd0 f i Shader.obj
 0002:00017d20       ??$addressof@$$CBV?$_List_val@U?$_List_simple_types@U?$pair@$$CBV?$basic_string@DU?$char_traits@D@std@@V?$allocator@D@2@@std@@H@std@@@std@@@std@@@std@@YAPBV?$_List_val@U?$_List_simple_types@U?$pair@$$CBV?$basic_string@DU?$char_traits@D@std@@V?$allocator@D@2@@std@@H@std@@@std@@@0@ABV10@@Z 0052ad20 f i Shader.obj
 0002:00017d70       ??$addressof@$$CBV?$_String_val@U?$_Simple_types@D@std@@@std@@@std@@YAPBV?$_String_val@U?$_Simple_types@D@std@@@0@ABV10@@Z 0052ad70 f i Shader.obj
 0002:00017dc0       ??$addressof@$$CBV?$codecvt@DDU_Mbstatet@@@std@@@std@@YAPBV?$codecvt@DDU_Mbstatet@@@0@ABV10@@Z 0052adc0 f i Shader.obj
 0002:00017e10       ??$addressof@D@std@@YAPADAAD@Z 0052ae10 f i Shader.obj
 0002:00017e60       ??$addressof@PAD@std@@YAPAPADAAPAD@Z 0052ae60 f i Shader.obj
 0002:00017eb0       ??$addressof@PAU?$_List_node@U?$pair@$$CBV?$basic_string@DU?$char_traits@D@std@@V?$allocator@D@2@@std@@H@std@@PAX@std@@@std@@YAPAPAU?$_List_node@U?$pair@$$CBV?$basic_string@DU?$char_traits@D@std@@V?$allocator@D@2@@std@@H@std@@PAX@0@AAPAU10@@Z 0052aeb0 f i Shader.obj
 0002:00017f00       ??$addressof@U?$pair@$$CBV?$basic_string@DU?$char_traits@D@std@@V?$allocator@D@2@@std@@H@std@@@std@@YAPAU?$pair@$$CBV?$basic_string@DU?$char_traits@D@std@@V?$allocator@D@2@@std@@H@0@AAU10@@Z 0052af00 f i Shader.obj
 0002:00017f50       ??$addressof@V?$_List_unchecked_iterator@V?$_List_val@U?$_List_simple_types@U?$pair@$$CBV?$basic_string@DU?$char_traits@D@std@@V?$allocator@D@2@@std@@H@std@@@std@@@std@@@std@@@std@@YAPAV?$_List_unchecked_iterator@V?$_List_val@U?$_List_simple_types@U?$pair@$$CBV?$basic_string@DU?$char_traits@D@std@@V?$allocator@D@2@@std@@H@std@@@std@@@std@@@0@AAV10@@Z 0052af50 f i Shader.obj
 0002:00017fa0       ??$addressof@V?$_List_val@U?$_List_simple_types@U?$pair@$$CBV?$basic_string@DU?$char_traits@D@std@@V?$allocator@D@2@@std@@H@std@@@std@@@std@@@std@@YAPAV?$_List_val@U?$_List_simple_types@U?$pair@$$CBV?$basic_string@DU?$char_traits@D@std@@V?$allocator@D@2@@std@@H@std@@@std@@@0@AAV10@@Z 0052afa0 f i Shader.obj
 0002:00017ff0       ??$addressof@V?$_String_val@U?$_Simple_types@D@std@@@std@@@std@@YAPAV?$_String_val@U?$_Simple_types@D@std@@@0@AAV10@@Z 0052aff0 f i Shader.obj
 0002:00018040       ??$addressof@V?$basic_filebuf@DU?$char_traits@D@std@@@std@@@std@@YAPAV?$basic_filebuf@DU?$char_traits@D@std@@@0@AAV10@@Z 0052b040 f i Shader.obj
 0002:00018090       ??$addressof@V?$basic_stringbuf@DU?$char_traits@D@std@@V?$allocator@D@2@@std@@@std@@YAPAV?$basic_stringbuf@DU?$char_traits@D@std@@V?$allocator@D@2@@0@AAV10@@Z 0052b090 f i Shader.obj
 0002:000180e0       ??$construct@U?$pair@$$CBV?$basic_string@DU?$char_traits@D@std@@V?$allocator@D@2@@std@@H@std@@ABUpiecewise_construct_t@2@V?$tuple@ABV?$basic_string@DU?$char_traits@D@std@@V?$allocator@D@2@@std@@@2@V?$tuple@$$V@2@@?$_Default_allocator_traits@V?$allocator@U?$_List_node@U?$pair@$$CBV?$basic_string@DU?$char_traits@D@std@@V?$allocator@D@2@@std@@H@std@@PAX@std@@@std@@@std@@SAXAAV?$allocator@U?$_List_node@U?$pair@$$CBV?$basic_string@DU?$char_traits@D@std@@V?$allocator@D@2@@std@@H@std@@PAX@std@@@1@QAU?$pair@$$CBV?$basic_string@DU?$char_traits@D@std@@V?$allocator@D@2@@std@@H@1@ABUpiecewise_construct_t@1@$$QAV?$tuple@ABV?$basic_string@DU?$char_traits@D@std@@V?$allocator@D@2@@std@@@1@$$QAV?$tuple@$$V@1@@Z 0052b0e0 f i Shader.obj
 0002:000181b0       ??$destroy@U?$pair@$$CBV?$basic_string@DU?$char_traits@D@std@@V?$allocator@D@2@@std@@H@std@@@?$_Default_allocator_traits@V?$allocator@U?$_List_node@U?$pair@$$CBV?$basic_string@DU?$char_traits@D@std@@V?$allocator@D@2@@std@@H@std@@PAX@std@@@std@@@std@@SAXAAV?$allocator@U?$_List_node@U?$pair@$$CBV?$basic_string@DU?$char_traits@D@std@@V?$allocator@D@2@@std@@H@std@@PAX@std@@@1@QAU?$pair@$$CBV?$basic_string@DU?$char_traits@D@std@@V?$allocator@D@2@@std@@H@1@@Z 0052b1b0 f i Shader.obj
 0002:00018200       ??$exchange@PAU?$_List_node@U?$pair@$$CBV?$basic_string@DU?$char_traits@D@std@@V?$allocator@D@2@@std@@H@std@@PAX@std@@$$T@std@@YAPAU?$_List_node@U?$pair@$$CBV?$basic_string@DU?$char_traits@D@std@@V?$allocator@D@2@@std@@H@std@@PAX@0@AAPAU10@$$QA$$T@Z 0052b200 f i Shader.obj
 0002:00018270       ??$exchange@PAV_Facet_base@std@@$$T@std@@YAPAV_Facet_base@0@AAPAV10@$$QA$$T@Z 0052b270 f i Shader.obj
 0002:000182e0       ??$fill@PAV?$_List_unchecked_iterator@V?$_List_val@U?$_List_simple_types@U?$pair@$$CBV?$basic_string@DU?$char_traits@D@std@@V?$allocator@D@2@@std@@H@std@@@std@@@std@@@std@@V12@@std@@YAXQAV?$_List_unchecked_iterator@V?$_List_val@U?$_List_simple_types@U?$pair@$$CBV?$basic_string@DU?$char_traits@D@std@@V?$allocator@D@2@@std@@H@std@@@std@@@std@@@0@0ABV10@@Z 0052b2e0 f i Shader.obj
 0002:00018390       ??$find@X@?$_Hash@V?$_Umap_traits@V?$basic_string@DU?$char_traits@D@std@@V?$allocator@D@2@@std@@HV?$_Uhash_compare@V?$basic_string@DU?$char_traits@D@std@@V?$allocator@D@2@@std@@U?$hash@V?$basic_string@DU?$char_traits@D@std@@V?$allocator@D@2@@std@@@2@U?$equal_to@V?$basic_string@DU?$char_traits@D@std@@V?$allocator@D@2@@std@@@2@@2@V?$allocator@U?$pair@$$CBV?$basic_string@DU?$char_traits@D@std@@V?$allocator@D@2@@std@@H@std@@@2@$0A@@std@@@std@@QAE?AV?$_List_iterator@V?$_List_val@U?$_List_simple_types@U?$pair@$$CBV?$basic_string@DU?$char_traits@D@std@@V?$allocator@D@2@@std@@H@std@@@std@@@std@@@1@ABV?$basic_string@DU?$char_traits@D@std@@V?$allocator@D@2@@1@@Z 0052b390 f i Shader.obj
 0002:00018420       ??$forward@AAPAD@std@@YAAAPADAAPAD@Z 0052b420 f i Shader.obj
 0002:00018470       ??$forward@AAPAU?$_List_node@U?$pair@$$CBV?$basic_string@DU?$char_traits@D@std@@V?$allocator@D@2@@std@@H@std@@PAX@std@@@std@@YAAAPAU?$_List_node@U?$pair@$$CBV?$basic_string@DU?$char_traits@D@std@@V?$allocator@D@2@@std@@H@std@@PAX@0@AAPAU10@@Z 0052b470 f i Shader.obj
 0002:000184c0       ??$forward@AAPAV_Facet_base@std@@@std@@YAAAPAV_Facet_base@0@AAPAV10@@Z 0052b4c0 f i Shader.obj
 0002:00018510       ??$forward@ABQAD@std@@YAABQADABQAD@Z 0052b510 f i Shader.obj
 0002:00018560       ??$forward@ABQAU?$_List_node@U?$pair@$$CBV?$basic_string@DU?$char_traits@D@std@@V?$allocator@D@2@@std@@H@std@@PAX@std@@@std@@YAABQAU?$_List_node@U?$pair@$$CBV?$basic_string@DU?$char_traits@D@std@@V?$allocator@D@2@@std@@H@std@@PAX@0@ABQAU10@@Z 0052b560 f i Shader.obj
 0002:000185b0       ??$forward@ABUpiecewise_construct_t@std@@@std@@YAABUpiecewise_construct_t@0@ABU10@@Z 0052b5b0 f i Shader.obj
 0002:00018600       ??$forward@ABV?$_List_unchecked_iterator@V?$_List_val@U?$_List_simple_types@U?$pair@$$CBV?$basic_string@DU?$char_traits@D@std@@V?$allocator@D@2@@std@@H@std@@@std@@@std@@@std@@@std@@YAABV?$_List_unchecked_iterator@V?$_List_val@U?$_List_simple_types@U?$pair@$$CBV?$basic_string@DU?$char_traits@D@std@@V?$allocator@D@2@@std@@H@std@@@std@@@std@@@0@ABV10@@Z 0052b600 f i Shader.obj
 0002:00018650       ??$forward@ABV?$allocator@D@std@@@std@@YAABV?$allocator@D@0@ABV10@@Z 0052b650 f i Shader.obj
 0002:000186a0       ??$forward@ABV?$allocator@U?$pair@$$CBV?$basic_string@DU?$char_traits@D@std@@V?$allocator@D@2@@std@@H@std@@@std@@@std@@YAABV?$allocator@U?$pair@$$CBV?$basic_string@DU?$char_traits@D@std@@V?$allocator@D@2@@std@@H@std@@@0@ABV10@@Z 0052b6a0 f i Shader.obj
 0002:000186f0       ??$forward@ABV?$basic_string@DU?$char_traits@D@std@@V?$allocator@D@2@@std@@@std@@YAABV?$basic_string@DU?$char_traits@D@std@@V?$allocator@D@2@@0@ABV10@@Z 0052b6f0 f i Shader.obj
 0002:00018740       ??$forward@M@std@@YA$$QAMAAM@Z 0052b740 f i Shader.obj
 0002:00018790       ??$forward@PAU?$_List_node@U?$pair@$$CBV?$basic_string@DU?$char_traits@D@std@@V?$allocator@D@2@@std@@H@std@@PAX@std@@@std@@YA$$QAPAU?$_List_node@U?$pair@$$CBV?$basic_string@DU?$char_traits@D@std@@V?$allocator@D@2@@std@@H@std@@PAX@0@AAPAU10@@Z 0052b790 f i Shader.obj
 0002:000187e0       ??$forward@U_Zero_then_variadic_args_t@std@@@std@@YA$$QAU_Zero_then_variadic_args_t@0@AAU10@@Z 0052b7e0 f i Shader.obj
 0002:00018830       ??$forward@V?$allocator@D@std@@@std@@YA$$QAV?$allocator@D@0@AAV10@@Z 0052b830 f i Shader.obj
 0002:00018880       ??$forward@V?$tuple@$$V@std@@@std@@YA$$QAV?$tuple@$$V@0@AAV10@@Z 0052b880 f i Shader.obj
 0002:000188d0       ??$forward@V?$tuple@ABV?$basic_string@DU?$char_traits@D@std@@V?$allocator@D@2@@std@@@std@@@std@@YA$$QAV?$tuple@ABV?$basic_string@DU?$char_traits@D@std@@V?$allocator@D@2@@std@@@0@AAV10@@Z 0052b8d0 f i Shader.obj
 0002:00018920       ??$forward@_N@std@@YA$$QA_NAA_N@Z 0052b920 f i Shader.obj
 0002:00018970       ??$forward_as_tuple@$$V@std@@YA?AV?$tuple@$$V@0@XZ 0052b970 f i Shader.obj
 0002:000189c0       ??$forward_as_tuple@ABV?$basic_string@DU?$char_traits@D@std@@V?$allocator@D@2@@std@@@std@@YA?AV?$tuple@ABV?$basic_string@DU?$char_traits@D@std@@V?$allocator@D@2@@std@@@0@ABV?$basic_string@DU?$char_traits@D@std@@V?$allocator@D@2@@0@@Z 0052b9c0 f i Shader.obj
 0002:00018a20       ??$getline@DU?$char_traits@D@std@@V?$allocator@D@2@@std@@YAAAV?$basic_istream@DU?$char_traits@D@std@@@0@$$QAV10@AAV?$basic_string@DU?$char_traits@D@std@@V?$allocator@D@2@@0@D@Z 0052ba20 f i Shader.obj
 0002:00018de0       ??$getline@DU?$char_traits@D@std@@V?$allocator@D@2@@std@@YAAAV?$basic_istream@DU?$char_traits@D@std@@@0@AAV10@AAV?$basic_string@DU?$char_traits@D@std@@V?$allocator@D@2@@0@@Z 0052bde0 f i Shader.obj
 0002:00018e70       ??$max@I@std@@YAABIABI0@Z  0052be70 f i Shader.obj
 0002:00018f00       ??$max@PAD@std@@YAABQADABQAD0@Z 0052bf00 f i Shader.obj
 0002:00018f90       ??$min@I@std@@YAABIABI0@Z  0052bf90 f i Shader.obj
 0002:00019020       ??$move@AAV?$allocator@D@std@@@std@@YA$$QAV?$allocator@D@0@AAV10@@Z 0052c020 f i Shader.obj
 0002:00019070       ??$move@AAV?$basic_istream@DU?$char_traits@D@std@@@std@@@std@@YA$$QAV?$basic_istream@DU?$char_traits@D@std@@@0@AAV10@@Z 0052c070 f i Shader.obj
 0002:000190c0       ??$move@AAV?$tuple@ABV?$basic_string@DU?$char_traits@D@std@@V?$allocator@D@2@@std@@@std@@@std@@YA$$QAV?$tuple@ABV?$basic_string@DU?$char_traits@D@std@@V?$allocator@D@2@@std@@@0@AAV10@@Z 0052c0c0 f i Shader.obj
 0002:00019110       ??$uninitialized_fill@PAV?$_List_unchecked_iterator@V?$_List_val@U?$_List_simple_types@U?$pair@$$CBV?$basic_string@DU?$char_traits@D@std@@V?$allocator@D@2@@std@@H@std@@@std@@@std@@@std@@V12@@std@@YAXQAV?$_List_unchecked_iterator@V?$_List_val@U?$_List_simple_types@U?$pair@$$CBV?$basic_string@DU?$char_traits@D@std@@V?$allocator@D@2@@std@@H@std@@@std@@@std@@@0@0ABV10@@Z 0052c110 f i Shader.obj
 0002:00019260       ??$use_facet@V?$codecvt@DDU_Mbstatet@@@std@@@std@@YAABV?$codecvt@DDU_Mbstatet@@@0@ABVlocale@0@@Z 0052c260 f i Shader.obj
 0002:000194c0       ??0?$_Alloc_construct_ptr@V?$allocator@U?$_List_node@U?$pair@$$CBV?$basic_string@DU?$char_traits@D@std@@V?$allocator@D@2@@std@@H@std@@PAX@std@@@std@@@std@@QAE@AAV?$allocator@U?$_List_node@U?$pair@$$CBV?$basic_string@DU?$char_traits@D@std@@V?$allocator@D@2@@std@@H@std@@PAX@std@@@1@@Z 0052c4c0 f i Shader.obj
 0002:00019530       ??0?$_Hash@V?$_Umap_traits@V?$basic_string@DU?$char_traits@D@std@@V?$allocator@D@2@@std@@HV?$_Uhash_compare@V?$basic_string@DU?$char_traits@D@std@@V?$allocator@D@2@@std@@U?$hash@V?$basic_string@DU?$char_traits@D@std@@V?$allocator@D@2@@std@@@2@U?$equal_to@V?$basic_string@DU?$char_traits@D@std@@V?$allocator@D@2@@std@@@2@@2@V?$allocator@U?$pair@$$CBV?$basic_string@DU?$char_traits@D@std@@V?$allocator@D@2@@std@@H@std@@@2@$0A@@std@@@std@@IAE@ABV?$_Uhash_compare@V?$basic_string@DU?$char_traits@D@std@@V?$allocator@D@2@@std@@U?$hash@V?$basic_string@DU?$char_traits@D@std@@V?$allocator@D@2@@std@@@2@U?$equal_to@V?$basic_string@DU?$char_traits@D@std@@V?$allocator@D@2@@std@@@2@@1@ABV?$allocator@U?$pair@$$CBV?$basic_string@DU?$char_traits@D@std@@V?$allocator@D@2@@std@@H@std@@@1@@Z 0052c530 f i Shader.obj
 0002:00019660       ??0?$_List_const_iterator@V?$_List_val@U?$_List_simple_types@U?$pair@$$CBV?$basic_string@DU?$char_traits@D@std@@V?$allocator@D@2@@std@@H@std@@@std@@@std@@@std@@QAE@PAU?$_List_node@U?$pair@$$CBV?$basic_string@DU?$char_traits@D@std@@V?$allocator@D@2@@std@@H@std@@PAX@1@PBV?$_List_val@U?$_List_simple_types@U?$pair@$$CBV?$basic_string@DU?$char_traits@D@std@@V?$allocator@D@2@@std@@H@std@@@std@@@1@@Z 0052c660 f i Shader.obj
 0002:000196c0       ??0?$_List_iterator@V?$_List_val@U?$_List_simple_types@U?$pair@$$CBV?$basic_string@DU?$char_traits@D@std@@V?$allocator@D@2@@std@@H@std@@@std@@@std@@@std@@QAE@PAU?$_List_node@U?$pair@$$CBV?$basic_string@DU?$char_traits@D@std@@V?$allocator@D@2@@std@@H@std@@PAX@1@PBV?$_List_val@U?$_List_simple_types@U?$pair@$$CBV?$basic_string@DU?$char_traits@D@std@@V?$allocator@D@2@@std@@H@std@@@std@@@1@@Z 0052c6c0 f i Shader.obj
 0002:00019720       ??0?$_List_unchecked_const_iterator@V?$_List_val@U?$_List_simple_types@U?$pair@$$CBV?$basic_string@DU?$char_traits@D@std@@V?$allocator@D@2@@std@@H@std@@@std@@@std@@U_Iterator_base0@2@@std@@QAE@PAU?$_List_node@U?$pair@$$CBV?$basic_string@DU?$char_traits@D@std@@V?$allocator@D@2@@std@@H@std@@PAX@1@PBV?$_List_val@U?$_List_simple_types@U?$pair@$$CBV?$basic_string@DU?$char_traits@D@std@@V?$allocator@D@2@@std@@H@std@@@std@@@1@@Z 0052c720 f i Shader.obj
 0002:00019790       ??0?$_List_unchecked_iterator@V?$_List_val@U?$_List_simple_types@U?$pair@$$CBV?$basic_string@DU?$char_traits@D@std@@V?$allocator@D@2@@std@@H@std@@@std@@@std@@@std@@QAE@PAU?$_List_node@U?$pair@$$CBV?$basic_string@DU?$char_traits@D@std@@V?$allocator@D@2@@std@@H@std@@PAX@1@PBV?$_List_val@U?$_List_simple_types@U?$pair@$$CBV?$basic_string@DU?$char_traits@D@std@@V?$allocator@D@2@@std@@H@std@@@std@@@1@@Z 0052c790 f i Shader.obj
 0002:000197f0       ??0?$_List_val@U?$_List_simple_types@U?$pair@$$CBV?$basic_string@DU?$char_traits@D@std@@V?$allocator@D@2@@std@@H@std@@@std@@@std@@QAE@XZ 0052c7f0 f i Shader.obj
 0002:00019860       ??0?$_String_val@U?$_Simple_types@D@std@@@std@@QAE@XZ 0052c860 f i Shader.obj
 0002:000198e0       ??0?$_Uhash_compare@V?$basic_string@DU?$char_traits@D@std@@V?$allocator@D@2@@std@@U?$hash@V?$basic_string@DU?$char_traits@D@std@@V?$allocator@D@2@@std@@@2@U?$equal_to@V?$basic_string@DU?$char_traits@D@std@@V?$allocator@D@2@@std@@@2@@std@@QAE@XZ 0052c8e0 f i Shader.obj
 0002:00019970       ??0?$_Umap_traits@V?$basic_string@DU?$char_traits@D@std@@V?$allocator@D@2@@std@@HV?$_Uhash_compare@V?$basic_string@DU?$char_traits@D@std@@V?$allocator@D@2@@std@@U?$hash@V?$basic_string@DU?$char_traits@D@std@@V?$allocator@D@2@@std@@@2@U?$equal_to@V?$basic_string@DU?$char_traits@D@std@@V?$allocator@D@2@@std@@@2@@2@V?$allocator@U?$pair@$$CBV?$basic_string@DU?$char_traits@D@std@@V?$allocator@D@2@@std@@H@std@@@2@$0A@@std@@QAE@ABV?$_Uhash_compare@V?$basic_string@DU?$char_traits@D@std@@V?$allocator@D@2@@std@@U?$hash@V?$basic_string@DU?$char_traits@D@std@@V?$allocator@D@2@@std@@@2@U?$equal_to@V?$basic_string@DU?$char_traits@D@std@@V?$allocator@D@2@@std@@@2@@1@@Z 0052c970 f i Shader.obj
 0002:000199d0       ??0?$_Uninitialized_backout@PAV?$_List_unchecked_iterator@V?$_List_val@U?$_List_simple_types@U?$pair@$$CBV?$basic_string@DU?$char_traits@D@std@@V?$allocator@D@2@@std@@H@std@@@std@@@std@@@std@@@std@@QAE@PAV?$_List_unchecked_iterator@V?$_List_val@U?$_List_simple_types@U?$pair@$$CBV?$basic_string@DU?$char_traits@D@std@@V?$allocator@D@2@@std@@H@std@@@std@@@std@@@1@@Z 0052c9d0 f i Shader.obj
 0002:00019a40       ??0?$_Vector_val@U?$_Simple_types@V?$_List_unchecked_iterator@V?$_List_val@U?$_List_simple_types@U?$pair@$$CBV?$basic_string@DU?$char_traits@D@std@@V?$allocator@D@2@@std@@H@std@@@std@@@std@@@std@@@std@@@std@@QAE@XZ 0052ca40 f i Shader.obj
 0002:00019ac0       ??0?$allocator@D@std@@QAE@XZ 0052cac0 f i Shader.obj
 0002:00019b20       ??0?$allocator@U?$pair@$$CBV?$basic_string@DU?$char_traits@D@std@@V?$allocator@D@2@@std@@H@std@@@std@@QAE@XZ 0052cb20 f i Shader.obj
 0002:00019b80       ??0?$basic_filebuf@DU?$char_traits@D@std@@@std@@QAE@XZ 0052cb80 f i Shader.obj
 0002:00019c50       ??0?$basic_fstream@DU?$char_traits@D@std@@@std@@QAE@ABV?$basic_string@DU?$char_traits@D@std@@V?$allocator@D@2@@1@HH@Z 0052cc50 f i Shader.obj
 0002:00019d00       ??0?$basic_fstream@DU?$char_traits@D@std@@@std@@QAE@PBDHH@Z 0052cd00 f i Shader.obj
 0002:00019ec0       ??0?$basic_string@DU?$char_traits@D@std@@V?$allocator@D@2@@std@@QAE@$$QAV01@@Z 0052cec0 f i Shader.obj
 0002:00019f60       ??0?$basic_string@DU?$char_traits@D@std@@V?$allocator@D@2@@std@@QAE@ABV01@@Z 0052cf60 f i Shader.obj
 0002:0001a050       ??0?$basic_string@DU?$char_traits@D@std@@V?$allocator@D@2@@std@@QAE@ABV?$allocator@D@1@@Z 0052d050 f i Shader.obj
 0002:0001a0e0       ??0?$basic_string@DU?$char_traits@D@std@@V?$allocator@D@2@@std@@QAE@XZ 0052d0e0 f i Shader.obj
 0002:0001a160       ??0?$basic_stringbuf@DU?$char_traits@D@std@@V?$allocator@D@2@@std@@QAE@H@Z 0052d160 f i Shader.obj
 0002:0001a250       ??0?$basic_stringstream@DU?$char_traits@D@std@@V?$allocator@D@2@@std@@QAE@XZ 0052d250 f i Shader.obj
 0002:0001a3c0       ??0?$fpos@U_Mbstatet@@@std@@QAE@U_Mbstatet@@_J@Z 0052d3c0 f i Shader.obj
 0002:0001a450       ??0?$fpos@U_Mbstatet@@@std@@QAE@_J@Z 0052d450 f i Shader.obj
 0002:0001a4e0       ??0?$list@U?$pair@$$CBV?$basic_string@DU?$char_traits@D@std@@V?$allocator@D@2@@std@@H@std@@V?$allocator@U?$pair@$$CBV?$basic_string@DU?$char_traits@D@std@@V?$allocator@D@2@@std@@H@std@@@2@@std@@QAE@ABV?$allocator@U?$pair@$$CBV?$basic_string@DU?$char_traits@D@std@@V?$allocator@D@2@@std@@H@std@@@1@@Z 0052d4e0 f i Shader.obj
 0002:0001a560       ??0?$tuple@$$V@std@@QAE@ABV01@@Z 0052d560 f i Shader.obj
 0002:0001a5c0       ??0?$tuple@ABV?$basic_string@DU?$char_traits@D@std@@V?$allocator@D@2@@std@@@std@@QAE@$$QAV01@@Z 0052d5c0 f i Shader.obj
 0002:0001a630       ??0?$unordered_map@V?$basic_string@DU?$char_traits@D@std@@V?$allocator@D@2@@std@@HU?$hash@V?$basic_string@DU?$char_traits@D@std@@V?$allocator@D@2@@std@@@2@U?$equal_to@V?$basic_string@DU?$char_traits@D@std@@V?$allocator@D@2@@std@@@2@V?$allocator@U?$pair@$$CBV?$basic_string@DU?$char_traits@D@std@@V?$allocator@D@2@@std@@H@std@@@2@@std@@QAE@XZ 0052d630 f i Shader.obj
 0002:0001a6b0       ??0Shader@@QAE@ABV?$basic_string@DU?$char_traits@D@std@@V?$allocator@D@2@@std@@@Z 0052d6b0 f   Shader.obj
 0002:0001a860       ??0ShaderProgramSource@@QAE@$$QAU0@@Z 0052d860 f i Shader.obj
 0002:0001a8d0       ??0_Bxty@?$_String_val@U?$_Simple_types@D@std@@@std@@QAE@XZ 0052d8d0 f i Shader.obj
 0002:0001a940       ??0_Clear_guard@?$_Hash@V?$_Umap_traits@V?$basic_string@DU?$char_traits@D@std@@V?$allocator@D@2@@std@@HV?$_Uhash_compare@V?$basic_string@DU?$char_traits@D@std@@V?$allocator@D@2@@std@@U?$hash@V?$basic_string@DU?$char_traits@D@std@@V?$allocator@D@2@@std@@@2@U?$equal_to@V?$basic_string@DU?$char_traits@D@std@@V?$allocator@D@2@@std@@@2@@2@V?$allocator@U?$pair@$$CBV?$basic_string@DU?$char_traits@D@std@@V?$allocator@D@2@@std@@H@std@@@2@$0A@@std@@@std@@QAE@QAV12@@Z 0052d940 f i Shader.obj
 0002:0001a9a0       ??0_Fake_proxy_ptr_impl@std@@QAE@ABU_Fake_allocator@1@ABU_Container_base0@1@@Z 0052d9a0 f i Shader.obj
 0002:0001aa00       ??0_Range_eraser@?$_Hash@V?$_Umap_traits@V?$basic_string@DU?$char_traits@D@std@@V?$allocator@D@2@@std@@HV?$_Uhash_compare@V?$basic_string@DU?$char_traits@D@std@@V?$allocator@D@2@@std@@U?$hash@V?$basic_string@DU?$char_traits@D@std@@V?$allocator@D@2@@std@@@2@U?$equal_to@V?$basic_string@DU?$char_traits@D@std@@V?$allocator@D@2@@std@@@2@@2@V?$allocator@U?$pair@$$CBV?$basic_string@DU?$char_traits@D@std@@V?$allocator@D@2@@std@@H@std@@@2@$0A@@std@@@std@@QAE@AAV?$list@U?$pair@$$CBV?$basic_string@DU?$char_traits@D@std@@V?$allocator@D@2@@std@@H@std@@V?$allocator@U?$pair@$$CBV?$basic_string@DU?$char_traits@D@std@@V?$allocator@D@2@@std@@H@std@@@2@@2@QAU?$_List_node@U?$pair@$$CBV?$basic_string@DU?$char_traits@D@std@@V?$allocator@D@2@@std@@H@std@@PAX@2@@Z 0052da00 f i Shader.obj
 0002:0001aa80       ??0_Sentry_base@?$basic_istream@DU?$char_traits@D@std@@@std@@QAE@AAV12@@Z 0052da80 f i Shader.obj
 0002:0001ab40       ??0_Sentry_base@?$basic_ostream@DU?$char_traits@D@std@@@std@@QAE@AAV12@@Z 0052db40 f i Shader.obj
 0002:0001ac00       ??0bad_alloc@std@@AAE@QBD@Z 0052dc00 f i Shader.obj
 0002:0001ac70       ??0bad_alloc@std@@QAE@ABV01@@Z 0052dc70 f i Shader.obj
 0002:0001ace0       ??0bad_array_new_length@std@@QAE@ABV01@@Z 0052dce0 f i Shader.obj
 0002:0001ad50       ??0bad_array_new_length@std@@QAE@XZ 0052dd50 f i Shader.obj
 0002:0001adc0       ??0bad_cast@std@@QAE@ABV01@@Z 0052ddc0 f i Shader.obj
 0002:0001ae30       ??0bad_cast@std@@QAE@XZ    0052de30 f i Shader.obj
 0002:0001aea0       ??0exception@std@@QAE@ABV01@@Z 0052dea0 f i Shader.obj
 0002:0001af30       ??0exception@std@@QAE@QBDH@Z 0052df30 f i Shader.obj
 0002:0001afb0       ??0sentry@?$basic_istream@DU?$char_traits@D@std@@@std@@QAE@AAV12@_N@Z 0052dfb0 f i Shader.obj
 0002:0001b080       ??0sentry@?$basic_ostream@DU?$char_traits@D@std@@@std@@QAE@AAV12@@Z 0052e080 f i Shader.obj
 0002:0001b1f0       ??1?$_Alloc_construct_ptr@V?$allocator@U?$_List_node@U?$pair@$$CBV?$basic_string@DU?$char_traits@D@std@@V?$allocator@D@2@@std@@H@std@@PAX@std@@@std@@@std@@QAE@XZ 0052e1f0 f i Shader.obj
 0002:0001b2a0       ??1?$_Compressed_pair@V?$allocator@D@std@@V?$_String_val@U?$_Simple_types@D@std@@@2@$00@std@@QAE@XZ 0052e2a0 f i Shader.obj
 0002:0001b2f0       ??1?$_Hash@V?$_Umap_traits@V?$basic_string@DU?$char_traits@D@std@@V?$allocator@D@2@@std@@HV?$_Uhash_compare@V?$basic_string@DU?$char_traits@D@std@@V?$allocator@D@2@@std@@U?$hash@V?$basic_string@DU?$char_traits@D@std@@V?$allocator@D@2@@std@@@2@U?$equal_to@V?$basic_string@DU?$char_traits@D@std@@V?$allocator@D@2@@std@@@2@@2@V?$allocator@U?$pair@$$CBV?$basic_string@DU?$char_traits@D@std@@V?$allocator@D@2@@std@@H@std@@@2@$0A@@std@@@std@@QAE@XZ 0052e2f0 f i Shader.obj
 0002:0001b350       ??1?$_Hash_vec@V?$allocator@V?$_List_unchecked_iterator@V?$_List_val@U?$_List_simple_types@U?$pair@$$CBV?$basic_string@DU?$char_traits@D@std@@V?$allocator@D@2@@std@@H@std@@@std@@@std@@@std@@@std@@@std@@QAE@XZ 0052e350 f i Shader.obj
 0002:0001b3b0       ??1?$_List_node_emplace_op2@V?$allocator@U?$_List_node@U?$pair@$$CBV?$basic_string@DU?$char_traits@D@std@@V?$allocator@D@2@@std@@H@std@@PAX@std@@@std@@@std@@QAE@XZ 0052e3b0 f i Shader.obj
 0002:0001b480       ??1?$_String_val@U?$_Simple_types@D@std@@@std@@QAE@XZ 0052e480 f i Shader.obj
 0002:0001b4d0       ??1?$_Uninitialized_backout@PAV?$_List_unchecked_iterator@V?$_List_val@U?$_List_simple_types@U?$pair@$$CBV?$basic_string@DU?$char_traits@D@std@@V?$allocator@D@2@@std@@H@std@@@std@@@std@@@std@@@std@@QAE@XZ 0052e4d0 f i Shader.obj
 0002:0001b540       ??1?$basic_filebuf@DU?$char_traits@D@std@@@std@@UAE@XZ 0052e540 f i Shader.obj
 0002:0001b620       ??1?$basic_fstream@DU?$char_traits@D@std@@@std@@UAE@XZ 0052e620 f i Shader.obj
 0002:0001b6e0       ??1?$basic_string@DU?$char_traits@D@std@@V?$allocator@D@2@@std@@QAE@XZ 0052e6e0 f i Shader.obj
 0002:0001b750       ??1?$basic_stringbuf@DU?$char_traits@D@std@@V?$allocator@D@2@@std@@UAE@XZ 0052e750 f i Shader.obj
 0002:0001b7d0       ??1?$basic_stringstream@DU?$char_traits@D@std@@V?$allocator@D@2@@std@@UAE@XZ 0052e7d0 f i Shader.obj
 0002:0001b890       ??1?$list@U?$pair@$$CBV?$basic_string@DU?$char_traits@D@std@@V?$allocator@D@2@@std@@H@std@@V?$allocator@U?$pair@$$CBV?$basic_string@DU?$char_traits@D@std@@V?$allocator@D@2@@std@@H@std@@@2@@std@@QAE@XZ 0052e890 f i Shader.obj
 0002:0001b8f0       ??1?$pair@$$CBV?$basic_string@DU?$char_traits@D@std@@V?$allocator@D@2@@std@@H@std@@QAE@XZ 0052e8f0 f i Shader.obj
 0002:0001b940       ??1?$unique_ptr@V_Facet_base@std@@U?$default_delete@V_Facet_base@std@@@2@@std@@QAE@XZ 0052e940 f i Shader.obj
 0002:0001b9c0       ??1?$unordered_map@V?$basic_string@DU?$char_traits@D@std@@V?$allocator@D@2@@std@@HU?$hash@V?$basic_string@DU?$char_traits@D@std@@V?$allocator@D@2@@std@@@2@U?$equal_to@V?$basic_string@DU?$char_traits@D@std@@V?$allocator@D@2@@std@@@2@V?$allocator@U?$pair@$$CBV?$basic_string@DU?$char_traits@D@std@@V?$allocator@D@2@@std@@H@std@@@2@@std@@QAE@XZ 0052e9c0 f i Shader.obj
 0002:0001ba10       ??1Shader@@QAE@XZ          0052ea10 f   Shader.obj
 0002:0001bb00       ??1ShaderProgramSource@@QAE@XZ 0052eb00 f i Shader.obj
 0002:0001bb60       ??1_Bxty@?$_String_val@U?$_Simple_types@D@std@@@std@@QAE@XZ 0052eb60 f i Shader.obj
 0002:0001bbb0       ??1_Clear_guard@?$_Hash@V?$_Umap_traits@V?$basic_string@DU?$char_traits@D@std@@V?$allocator@D@2@@std@@HV?$_Uhash_compare@V?$basic_string@DU?$char_traits@D@std@@V?$allocator@D@2@@std@@U?$hash@V?$basic_string@DU?$char_traits@D@std@@V?$allocator@D@2@@std@@@2@U?$equal_to@V?$basic_string@DU?$char_traits@D@std@@V?$allocator@D@2@@std@@@2@@2@V?$allocator@U?$pair@$$CBV?$basic_string@DU?$char_traits@D@std@@V?$allocator@D@2@@std@@H@std@@@2@$0A@@std@@@std@@QAE@XZ 0052ebb0 f i Shader.obj
 0002:0001bc20       ??1_Range_eraser@?$_Hash@V?$_Umap_traits@V?$basic_string@DU?$char_traits@D@std@@V?$allocator@D@2@@std@@HV?$_Uhash_compare@V?$basic_string@DU?$char_traits@D@std@@V?$allocator@D@2@@std@@U?$hash@V?$basic_string@DU?$char_traits@D@std@@V?$allocator@D@2@@std@@@2@U?$equal_to@V?$basic_string@DU?$char_traits@D@std@@V?$allocator@D@2@@std@@@2@@2@V?$allocator@U?$pair@$$CBV?$basic_string@DU?$char_traits@D@std@@V?$allocator@D@2@@std@@H@std@@@2@$0A@@std@@@std@@QAE@XZ 0052ec20 f i Shader.obj
 0002:0001bca0       ??1_Sentry_base@?$basic_istream@DU?$char_traits@D@std@@@std@@QAE@XZ 0052eca0 f i Shader.obj
 0002:0001bd90       ??1_Sentry_base@?$basic_ostream@DU?$char_traits@D@std@@@std@@QAE@XZ 0052ed90 f i Shader.obj
 0002:0001be80       ??1bad_alloc@std@@UAE@XZ   0052ee80 f i Shader.obj
 0002:0001bed0       ??1bad_array_new_length@std@@UAE@XZ 0052eed0 f i Shader.obj
 0002:0001bf20       ??1bad_cast@std@@UAE@XZ    0052ef20 f i Shader.obj
 0002:0001bf70       ??1exception@std@@UAE@XZ   0052ef70 f i Shader.obj
 0002:0001bfe0       ??1locale@std@@QAE@XZ      0052efe0 f i Shader.obj
 0002:0001c0b0       ??1sentry@?$basic_istream@DU?$char_traits@D@std@@@std@@QAE@XZ 0052f0b0 f i Shader.obj
 0002:0001c100       ??1sentry@?$basic_ostream@DU?$char_traits@D@std@@@std@@QAE@XZ 0052f100 f i Shader.obj
 0002:0001c1f0       ??2@YAPAXIPAX@Z            0052f1f0 f i Shader.obj
 0002:0001c240       ??8?$_List_const_iterator@V?$_List_val@U?$_List_simple_types@U?$pair@$$CBV?$basic_string@DU?$char_traits@D@std@@V?$allocator@D@2@@std@@H@std@@@std@@@std@@@std@@QBE_NABV01@@Z 0052f240 f i Shader.obj
 0002:0001c2d0       ??8?$_List_unchecked_const_iterator@V?$_List_val@U?$_List_simple_types@U?$pair@$$CBV?$basic_string@DU?$char_traits@D@std@@V?$allocator@D@2@@std@@H@std@@@std@@@std@@U_Iterator_base0@2@@std@@QBE_NABV01@@Z 0052f2d0 f i Shader.obj
 0002:0001c360       ??9?$_List_unchecked_const_iterator@V?$_List_val@U?$_List_simple_types@U?$pair@$$CBV?$basic_string@DU?$char_traits@D@std@@V?$allocator@D@2@@std@@H@std@@@std@@@std@@U_Iterator_base0@2@@std@@QBE_NABV01@@Z 0052f360 f i Shader.obj
 0002:0001c3f0       ??A?$mat@$03$03M$0A@@glm@@QBEABU?$vec@$03M$0A@@1@H@Z 0052f3f0 f i Shader.obj
 0002:0001c490       ??A?$unordered_map@V?$basic_string@DU?$char_traits@D@std@@V?$allocator@D@2@@std@@HU?$hash@V?$basic_string@DU?$char_traits@D@std@@V?$allocator@D@2@@std@@@2@U?$equal_to@V?$basic_string@DU?$char_traits@D@std@@V?$allocator@D@2@@std@@@2@V?$allocator@U?$pair@$$CBV?$basic_string@DU?$char_traits@D@std@@V?$allocator@D@2@@std@@H@std@@@2@@std@@QAEAAHABV?$basic_string@DU?$char_traits@D@std@@V?$allocator@D@2@@1@@Z 0052f490 f i Shader.obj
 0002:0001c500       ??A?$vec@$03M$0A@@glm@@QBEABMH@Z 0052f500 f i Shader.obj
 0002:0001c5f0       ??B?$fpos@U_Mbstatet@@@std@@QBE_JXZ 0052f5f0 f i Shader.obj
 0002:0001c660       ??Bsentry@?$basic_istream@DU?$char_traits@D@std@@@std@@QBE_NXZ 0052f660 f i Shader.obj
 0002:0001c6c0       ??Bsentry@?$basic_ostream@DU?$char_traits@D@std@@@std@@QBE_NXZ 0052f6c0 f i Shader.obj
 0002:0001c720       ??D?$_List_unchecked_const_iterator@V?$_List_val@U?$_List_simple_types@U?$pair@$$CBV?$basic_string@DU?$char_traits@D@std@@V?$allocator@D@2@@std@@H@std@@@std@@@std@@U_Iterator_base0@2@@std@@QBEABU?$pair@$$CBV?$basic_string@DU?$char_traits@D@std@@V?$allocator@D@2@@std@@H@1@XZ 0052f720 f i Shader.obj
 0002:0001c780       ??D?$_List_unchecked_iterator@V?$_List_val@U?$_List_simple_types@U?$pair@$$CBV?$basic_string@DU?$char_traits@D@std@@V?$allocator@D@2@@std@@H@std@@@std@@@std@@@std@@QBEAAU?$pair@$$CBV?$basic_string@DU?$char_traits@D@std@@V?$allocator@D@2@@std@@H@1@XZ 0052f780 f i Shader.obj
 0002:0001c7e0       ??E?$_List_unchecked_const_iterator@V?$_List_val@U?$_List_simple_types@U?$pair@$$CBV?$basic_string@DU?$char_traits@D@std@@V?$allocator@D@2@@std@@H@std@@@std@@@std@@U_Iterator_base0@2@@std@@QAEAAV01@XZ 0052f7e0 f i Shader.obj
 0002:0001c840       ??E?$_List_unchecked_iterator@V?$_List_val@U?$_List_simple_types@U?$pair@$$CBV?$basic_string@DU?$char_traits@D@std@@V?$allocator@D@2@@std@@H@std@@@std@@@std@@@std@@QAEAAV01@XZ 0052f840 f i Shader.obj
 0002:0001c8a0       ??F?$_List_unchecked_const_iterator@V?$_List_val@U?$_List_simple_types@U?$pair@$$CBV?$basic_string@DU?$char_traits@D@std@@V?$allocator@D@2@@std@@H@std@@@std@@@std@@U_Iterator_base0@2@@std@@QAEAAV01@XZ 0052f8a0 f i Shader.obj
 0002:0001c910       ??R<lambda_1>@?1??assign@?$basic_string@DU?$char_traits@D@std@@V?$allocator@D@2@@std@@QAEAAV23@QBDI@Z@QBE@QADI0@Z 0052f910 f i Shader.obj
 0002:0001c9a0       ??R<lambda_1>@?1??push_back@?$basic_string@DU?$char_traits@D@std@@V?$allocator@D@2@@std@@QAEXD@Z@QBE@QADQBDID@Z 0052f9a0 f i Shader.obj
 0002:0001ca50       ??R?$_Conditionally_enabled_hash@V?$basic_string@DU?$char_traits@D@std@@V?$allocator@D@2@@std@@$00@std@@QBEIABV?$basic_string@DU?$char_traits@D@std@@V?$allocator@D@2@@1@@Z 0052fa50 f i Shader.obj
 0002:0001cab0       ??R?$default_delete@V_Facet_base@std@@@std@@QBEXPAV_Facet_base@1@@Z 0052fab0 f i Shader.obj
 0002:0001cb60       ??R?$equal_to@V?$basic_string@DU?$char_traits@D@std@@V?$allocator@D@2@@std@@@std@@QBE_NABV?$basic_string@DU?$char_traits@D@std@@V?$allocator@D@2@@1@0@Z 0052fb60 f i Shader.obj
 0002:0001cbd0       ??Y?$basic_string@DU?$char_traits@D@std@@V?$allocator@D@2@@std@@QAEAAV01@D@Z 0052fbd0 f i Shader.obj
 0002:0001cc40       ??_D?$basic_fstream@DU?$char_traits@D@std@@@std@@QAEXXZ 0052fc40 f i Shader.obj
 0002:0001ccb0       ??_D?$basic_stringstream@DU?$char_traits@D@std@@V?$allocator@D@2@@std@@QAEXXZ 0052fcb0 f i Shader.obj
 0002:0001cd19       ??_E?$basic_fstream@DU?$char_traits@D@std@@@std@@$4PPPPPPPM@A@AEPAXI@Z 0052fd19 f i Shader.obj
 0002:0001cd23       ??_E?$basic_stringstream@DU?$char_traits@D@std@@V?$allocator@D@2@@std@@$4PPPPPPPM@A@AEPAXI@Z 0052fd23 f i Shader.obj
 0002:0001cd30       ??_E?$basic_filebuf@DU?$char_traits@D@std@@@std@@UAEPAXI@Z 0052fd30 f i Shader.obj
 0002:0001cd30       ??_G?$basic_filebuf@DU?$char_traits@D@std@@@std@@UAEPAXI@Z 0052fd30 f i Shader.obj
 0002:0001cda0       ??_E?$basic_fstream@DU?$char_traits@D@std@@@std@@UAEPAXI@Z 0052fda0 f i Shader.obj
 0002:0001cda0       ??_G?$basic_fstream@DU?$char_traits@D@std@@@std@@UAEPAXI@Z 0052fda0 f i Shader.obj
 0002:0001ce20       ??_E?$basic_stringbuf@DU?$char_traits@D@std@@V?$allocator@D@2@@std@@UAEPAXI@Z 0052fe20 f i Shader.obj
 0002:0001ce20       ??_G?$basic_stringbuf@DU?$char_traits@D@std@@V?$allocator@D@2@@std@@UAEPAXI@Z 0052fe20 f i Shader.obj
 0002:0001ce90       ??_E?$basic_stringstream@DU?$char_traits@D@std@@V?$allocator@D@2@@std@@UAEPAXI@Z 0052fe90 f i Shader.obj
 0002:0001ce90       ??_G?$basic_stringstream@DU?$char_traits@D@std@@V?$allocator@D@2@@std@@UAEPAXI@Z 0052fe90 f i Shader.obj
 0002:0001cf10       ??_G?$pair@$$CBV?$basic_string@DU?$char_traits@D@std@@V?$allocator@D@2@@std@@H@std@@QAEPAXI@Z 0052ff10 f i Shader.obj
 0002:0001cf80       ??_Ebad_alloc@std@@UAEPAXI@Z 0052ff80 f i Shader.obj
 0002:0001cf80       ??_Gbad_alloc@std@@UAEPAXI@Z 0052ff80 f i Shader.obj
 0002:0001cff0       ??_Ebad_array_new_length@std@@UAEPAXI@Z 0052fff0 f i Shader.obj
 0002:0001cff0       ??_Gbad_array_new_length@std@@UAEPAXI@Z 0052fff0 f i Shader.obj
 0002:0001d060       ??_Ebad_cast@std@@UAEPAXI@Z 00530060 f i Shader.obj
 0002:0001d060       ??_Gbad_cast@std@@UAEPAXI@Z 00530060 f i Shader.obj
 0002:0001d0d0       ??_Eexception@std@@UAEPAXI@Z 005300d0 f i Shader.obj
 0002:0001d0d0       ??_Gexception@std@@UAEPAXI@Z 005300d0 f i Shader.obj
 0002:0001d140       ?Bind@Shader@@QBEXXZ       00530140 f   Shader.obj
 0002:0001d1e0       ?CompileShader@Shader@@ABEIIABV?$basic_string@DU?$char_traits@D@std@@V?$allocator@D@2@@std@@@Z 005301e0 f   Shader.obj
 0002:0001d620       ?CreateShader@Shader@@AAEIABV?$basic_string@DU?$char_traits@D@std@@V?$allocator@D@2@@std@@0@Z 00530620 f   Shader.obj
 0002:0001d8d0       ?GetUniformLocation@Shader@@QAEHABV?$basic_string@DU?$char_traits@D@std@@V?$allocator@D@2@@std@@@Z 005308d0 f   Shader.obj
 0002:0001da50       ?ParserShader@Shader@@ABE?AUShaderProgramSource@@XZ 00530a50 f   Shader.obj
 0002:0001ddc0       ?SetUniform1f@Shader@@QAEXABV?$basic_string@DU?$char_traits@D@std@@V?$allocator@D@2@@std@@M@Z 00530dc0 f   Shader.obj
 0002:0001de80       ?SetUniform1i@Shader@@QAEXABV?$basic_string@DU?$char_traits@D@std@@V?$allocator@D@2@@std@@H@Z 00530e80 f   Shader.obj
 0002:0001df40       ?SetUniform4f@Shader@@QAEXABV?$basic_string@DU?$char_traits@D@std@@V?$allocator@D@2@@std@@MMMM@Z 00530f40 f   Shader.obj
 0002:0001e030       ?SetUniformMat4f@Shader@@QAEXABV?$basic_string@DU?$char_traits@D@std@@V?$allocator@D@2@@std@@ABU?$mat@$03$03M$0A@@glm@@@Z 00531030 f   Shader.obj
 0002:0001e100       ?Unbind@Shader@@QBEXXZ     00531100 f   Shader.obj
 0002:0001e1a0       ?_Activate_SSO_buffer@?$_String_val@U?$_Simple_types@D@std@@@std@@QAEXXZ 005311a0 f i Shader.obj
 0002:0001e1f0       ?_Adjust_manually_vector_aligned@std@@YAXAAPAXAAI@Z 005311f0 f i Shader.obj
 0002:0001e2c0       ?_Adopt@_Iterator_base0@std@@QAEXPBX@Z 005312c0 f i Shader.obj
 0002:0001e310       ?_Alloc_proxy@_Container_base0@std@@QAEXABU_Fake_allocator@2@@Z 00531310 f i Shader.obj
 0002:0001e360       ?_Alloc_sentinel_and_proxy@?$list@U?$pair@$$CBV?$basic_string@DU?$char_traits@D@std@@V?$allocator@D@2@@std@@H@std@@V?$allocator@U?$pair@$$CBV?$basic_string@DU?$char_traits@D@std@@V?$allocator@D@2@@std@@H@std@@@2@@std@@AAEXXZ 00531360 f i Shader.obj
 0002:0001e4a0       ?_Allocate@?$_Alloc_construct_ptr@V?$allocator@U?$_List_node@U?$pair@$$CBV?$basic_string@DU?$char_traits@D@std@@V?$allocator@D@2@@std@@H@std@@PAX@std@@@std@@@std@@QAEXXZ 005314a0 f i Shader.obj
 0002:0001e510       ?_Allocate@_Default_allocate_traits@std@@SAPAXI@Z 00531510 f i Shader.obj
 0002:0001e570       ?_Assign_grow@?$_Hash_vec@V?$allocator@V?$_List_unchecked_iterator@V?$_List_val@U?$_List_simple_types@U?$pair@$$CBV?$basic_string@DU?$char_traits@D@std@@V?$allocator@D@2@@std@@H@std@@@std@@@std@@@std@@@std@@@std@@QAEXIV?$_List_unchecked_iterator@V?$_List_val@U?$_List_simple_types@U?$pair@$$CBV?$basic_string@DU?$char_traits@D@std@@V?$allocator@D@2@@std@@H@std@@@std@@@std@@@2@@Z 00531570 f i Shader.obj
 0002:0001e6b0       ?_Bump_erased@_Range_eraser@?$_Hash@V?$_Umap_traits@V?$basic_string@DU?$char_traits@D@std@@V?$allocator@D@2@@std@@HV?$_Uhash_compare@V?$basic_string@DU?$char_traits@D@std@@V?$allocator@D@2@@std@@U?$hash@V?$basic_string@DU?$char_traits@D@std@@V?$allocator@D@2@@std@@@2@U?$equal_to@V?$basic_string@DU?$char_traits@D@std@@V?$allocator@D@2@@std@@@2@@2@V?$allocator@U?$pair@$$CBV?$basic_string@DU?$char_traits@D@std@@V?$allocator@D@2@@std@@H@std@@@2@$0A@@std@@@std@@QAEXXZ 005316b0 f i Shader.obj
 0002:0001e750       ?_Calculate_growth@?$basic_string@DU?$char_traits@D@std@@V?$allocator@D@2@@std@@ABEII@Z 00531750 f i Shader.obj
 0002:0001e7d0       ?_Calculate_growth@?$basic_string@DU?$char_traits@D@std@@V?$allocator@D@2@@std@@CAIIII@Z 005317d0 f i Shader.obj
 0002:0001e8d0       ?_Ceiling_of_log_2@std@@YAKI@Z 005318d0 f i Shader.obj
 0002:0001e930       ?_Check_max_size@?$_Hash@V?$_Umap_traits@V?$basic_string@DU?$char_traits@D@std@@V?$allocator@D@2@@std@@HV?$_Uhash_compare@V?$basic_string@DU?$char_traits@D@std@@V?$allocator@D@2@@std@@U?$hash@V?$basic_string@DU?$char_traits@D@std@@V?$allocator@D@2@@std@@@2@U?$equal_to@V?$basic_string@DU?$char_traits@D@std@@V?$allocator@D@2@@std@@@2@@2@V?$allocator@U?$pair@$$CBV?$basic_string@DU?$char_traits@D@std@@V?$allocator@D@2@@std@@H@std@@@2@$0A@@std@@@std@@IBEXXZ 00531930 f i Shader.obj
 0002:0001e9b0       ?_Check_offset@?$_String_val@U?$_Simple_types@D@std@@@std@@QBEXI@Z 005319b0 f i Shader.obj
 0002:0001ea20       ?_Check_rehash_required_1@?$_Hash@V?$_Umap_traits@V?$basic_string@DU?$char_traits@D@std@@V?$allocator@D@2@@std@@HV?$_Uhash_compare@V?$basic_string@DU?$char_traits@D@std@@V?$allocator@D@2@@std@@U?$hash@V?$basic_string@DU?$char_traits@D@std@@V?$allocator@D@2@@std@@@2@U?$equal_to@V?$basic_string@DU?$char_traits@D@std@@V?$allocator@D@2@@std@@@2@@2@V?$allocator@U?$pair@$$CBV?$basic_string@DU?$char_traits@D@std@@V?$allocator@D@2@@std@@H@std@@@2@$0A@@std@@@std@@IBE_NXZ 00531a20 f i Shader.obj
 0002:0001eb80       ?_Clamp_suffix_size@?$_String_val@U?$_Simple_types@D@std@@@std@@QBEIII@Z 00531b80 f i Shader.obj
 0002:0001ec00       ?_Desired_grow_bucket_count@?$_Hash@V?$_Umap_traits@V?$basic_string@DU?$char_traits@D@std@@V?$allocator@D@2@@std@@HV?$_Uhash_compare@V?$basic_string@DU?$char_traits@D@std@@V?$allocator@D@2@@std@@U?$hash@V?$basic_string@DU?$char_traits@D@std@@V?$allocator@D@2@@std@@@2@U?$equal_to@V?$basic_string@DU?$char_traits@D@std@@V?$allocator@D@2@@std@@@2@@2@V?$allocator@U?$pair@$$CBV?$basic_string@DU?$char_traits@D@std@@V?$allocator@D@2@@std@@H@std@@@2@$0A@@std@@@std@@IBEII@Z 00531c00 f i Shader.obj
 0002:0001ecd0       ?_Do_hash@?$hash@V?$basic_string@DU?$char_traits@D@std@@V?$allocator@D@2@@std@@@std@@SAIABV?$basic_string@DU?$char_traits@D@std@@V?$allocator@D@2@@2@@Z 00531cd0 f i Shader.obj
 0002:0001ed40       ?_Endwrite@?$basic_filebuf@DU?$char_traits@D@std@@@std@@IAE_NXZ 00531d40 f i Shader.obj
 0002:0001ef80       ?_Eos@?$basic_string@DU?$char_traits@D@std@@V?$allocator@D@2@@std@@AAEXI@Z 00531f80 f i Shader.obj
 0002:0001f010       ?_Equal@?$basic_string@DU?$char_traits@D@std@@V?$allocator@D@2@@std@@QBE_NABV12@@Z 00532010 f i Shader.obj
 0002:0001f0a0       ?_Erase_noexcept@?$basic_string@DU?$char_traits@D@std@@V?$allocator@D@2@@std@@AAEAAV12@II@Z 005320a0 f i Shader.obj
 0002:0001f170       ?_Floor_of_log_2@std@@YAKI@Z 00532170 f i Shader.obj
 0002:0001f230       ?_Fnv1a_append_bytes@std@@YAIIQBEI@Z 00532230 f i Shader.obj
 0002:0001f2c0       ?_Forced_rehash@?$_Hash@V?$_Umap_traits@V?$basic_string@DU?$char_traits@D@std@@V?$allocator@D@2@@std@@HV?$_Uhash_compare@V?$basic_string@DU?$char_traits@D@std@@V?$allocator@D@2@@std@@U?$hash@V?$basic_string@DU?$char_traits@D@std@@V?$allocator@D@2@@std@@@2@U?$equal_to@V?$basic_string@DU?$char_traits@D@std@@V?$allocator@D@2@@std@@@2@@2@V?$allocator@U?$pair@$$CBV?$basic_string@DU?$char_traits@D@std@@V?$allocator@D@2@@std@@H@std@@@2@$0A@@std@@@std@@IAEXI@Z 005322c0 f i Shader.obj
 0002:0001f710       ?_Get_buffer_view@?$basic_stringbuf@DU?$char_traits@D@std@@V?$allocator@D@2@@std@@QBE?AU_Buffer_view@12@XZ 00532710 f i Shader.obj
 0002:0001f950       ?_Get_first@?$_Compressed_pair@U?$default_delete@V_Facet_base@std@@@std@@PAV_Facet_base@2@$00@std@@QAEAAU?$default_delete@V_Facet_base@std@@@2@XZ 00532950 f i Shader.obj
 0002:0001f9b0       ?_Get_first@?$_Compressed_pair@U?$equal_to@V?$basic_string@DU?$char_traits@D@std@@V?$allocator@D@2@@std@@@std@@M$00@std@@QBEABU?$equal_to@V?$basic_string@DU?$char_traits@D@std@@V?$allocator@D@2@@std@@@2@XZ 005329b0 f i Shader.obj
 0002:0001fa10       ?_Get_first@?$_Compressed_pair@U?$hash@V?$basic_string@DU?$char_traits@D@std@@V?$allocator@D@2@@std@@@std@@V?$_Compressed_pair@U?$equal_to@V?$basic_string@DU?$char_traits@D@std@@V?$allocator@D@2@@std@@@std@@M$00@2@$00@std@@QBEABU?$hash@V?$basic_string@DU?$char_traits@D@std@@V?$allocator@D@2@@std@@@2@XZ 00532a10 f i Shader.obj
 0002:0001fa70       ?_Get_first@?$_Compressed_pair@V?$allocator@D@std@@V?$_String_val@U?$_Simple_types@D@std@@@2@$00@std@@QAEAAV?$allocator@D@2@XZ 00532a70 f i Shader.obj
 0002:0001fad0       ?_Get_first@?$_Compressed_pair@V?$allocator@D@std@@V?$_String_val@U?$_Simple_types@D@std@@@2@$00@std@@QBEABV?$allocator@D@2@XZ 00532ad0 f i Shader.obj
 0002:0001fb30       ?_Get_first@?$_Compressed_pair@V?$allocator@U?$_List_node@U?$pair@$$CBV?$basic_string@DU?$char_traits@D@std@@V?$allocator@D@2@@std@@H@std@@PAX@std@@@std@@V?$_List_val@U?$_List_simple_types@U?$pair@$$CBV?$basic_string@DU?$char_traits@D@std@@V?$allocator@D@2@@std@@H@std@@@std@@@2@$00@std@@QAEAAV?$allocator@U?$_List_node@U?$pair@$$CBV?$basic_string@DU?$char_traits@D@std@@V?$allocator@D@2@@std@@H@std@@PAX@std@@@2@XZ 00532b30 f i Shader.obj
 0002:0001fb90       ?_Get_first@?$_Compressed_pair@V?$allocator@U?$_List_node@U?$pair@$$CBV?$basic_string@DU?$char_traits@D@std@@V?$allocator@D@2@@std@@H@std@@PAX@std@@@std@@V?$_List_val@U?$_List_simple_types@U?$pair@$$CBV?$basic_string@DU?$char_traits@D@std@@V?$allocator@D@2@@std@@H@std@@@std@@@2@$00@std@@QBEABV?$allocator@U?$_List_node@U?$pair@$$CBV?$basic_string@DU?$char_traits@D@std@@V?$allocator@D@2@@std@@H@std@@PAX@std@@@2@XZ 00532b90 f i Shader.obj
 0002:0001fbf0       ?_Get_first@?$_Compressed_pair@V?$allocator@V?$_List_unchecked_iterator@V?$_List_val@U?$_List_simple_types@U?$pair@$$CBV?$basic_string@DU?$char_traits@D@std@@V?$allocator@D@2@@std@@H@std@@@std@@@std@@@std@@@std@@V?$_Vector_val@U?$_Simple_types@V?$_List_unchecked_iterator@V?$_List_val@U?$_List_simple_types@U?$pair@$$CBV?$basic_string@DU?$char_traits@D@std@@V?$allocator@D@2@@std@@H@std@@@std@@@std@@@std@@@std@@@2@$00@std@@QAEAAV?$allocator@V?$_List_unchecked_iterator@V?$_List_val@U?$_List_simple_types@U?$pair@$$CBV?$basic_string@DU?$char_traits@D@std@@V?$allocator@D@2@@std@@H@std@@@std@@@std@@@std@@@2@XZ 00532bf0 f i Shader.obj
 0002:0001fc50       ?_Get_first@?$_Compressed_pair@V?$allocator@V?$_List_unchecked_iterator@V?$_List_val@U?$_List_simple_types@U?$pair@$$CBV?$basic_string@DU?$char_traits@D@std@@V?$allocator@D@2@@std@@H@std@@@std@@@std@@@std@@@std@@V?$_Vector_val@U?$_Simple_types@V?$_List_unchecked_iterator@V?$_List_val@U?$_List_simple_types@U?$pair@$$CBV?$basic_string@DU?$char_traits@D@std@@V?$allocator@D@2@@std@@H@std@@@std@@@std@@@std@@@std@@@2@$00@std@@QBEABV?$allocator@V?$_List_unchecked_iterator@V?$_List_val@U?$_List_simple_types@U?$pair@$$CBV?$basic_string@DU?$char_traits@D@std@@V?$allocator@D@2@@std@@H@std@@@std@@@std@@@std@@@2@XZ 00532c50 f i Shader.obj
 0002:0001fcb0       ?_Get_max_bucket_size@?$_Uhash_compare@V?$basic_string@DU?$char_traits@D@std@@V?$allocator@D@2@@std@@U?$hash@V?$basic_string@DU?$char_traits@D@std@@V?$allocator@D@2@@std@@@2@U?$equal_to@V?$basic_string@DU?$char_traits@D@std@@V?$allocator@D@2@@std@@@2@@std@@QAEAAMXZ 00532cb0 f i Shader.obj
 0002:0001fd10       ?_Get_max_bucket_size@?$_Uhash_compare@V?$basic_string@DU?$char_traits@D@std@@V?$allocator@D@2@@std@@U?$hash@V?$basic_string@DU?$char_traits@D@std@@V?$allocator@D@2@@std@@@2@U?$equal_to@V?$basic_string@DU?$char_traits@D@std@@V?$allocator@D@2@@std@@@2@@std@@QBEABMXZ 00532d10 f i Shader.obj
 0002:0001fd70       ?_Getal@?$basic_string@DU?$char_traits@D@std@@V?$allocator@D@2@@std@@AAEAAV?$allocator@D@2@XZ 00532d70 f i Shader.obj
 0002:0001fdd0       ?_Getal@?$basic_string@DU?$char_traits@D@std@@V?$allocator@D@2@@std@@ABEABV?$allocator@D@2@XZ 00532dd0 f i Shader.obj
 0002:0001fe30       ?_Getal@?$list@U?$pair@$$CBV?$basic_string@DU?$char_traits@D@std@@V?$allocator@D@2@@std@@H@std@@V?$allocator@U?$pair@$$CBV?$basic_string@DU?$char_traits@D@std@@V?$allocator@D@2@@std@@H@std@@@2@@std@@AAEAAV?$allocator@U?$_List_node@U?$pair@$$CBV?$basic_string@DU?$char_traits@D@std@@V?$allocator@D@2@@std@@H@std@@PAX@std@@@2@XZ 00532e30 f i Shader.obj
 0002:0001fe90       ?_Getal@?$list@U?$pair@$$CBV?$basic_string@DU?$char_traits@D@std@@V?$allocator@D@2@@std@@H@std@@V?$allocator@U?$pair@$$CBV?$basic_string@DU?$char_traits@D@std@@V?$allocator@D@2@@std@@H@std@@@2@@std@@ABEABV?$allocator@U?$_List_node@U?$pair@$$CBV?$basic_string@DU?$char_traits@D@std@@V?$allocator@D@2@@std@@H@std@@PAX@std@@@2@XZ 00532e90 f i Shader.obj
 0002:0001fef0       ?_Getfacet@locale@std@@QBEPBVfacet@12@I@Z 00532ef0 f i Shader.obj
 0002:0001ffe0       ?_Getstate@?$basic_stringbuf@DU?$char_traits@D@std@@V?$allocator@D@2@@std@@CAHH@Z 00532fe0 f i Shader.obj
 0002:00020090       ?_Init@?$basic_filebuf@DU?$char_traits@D@std@@@std@@IAEXPAU_iobuf@@W4_Initfl@12@@Z 00533090 f i Shader.obj
 0002:00020270       ?_Initcvt@?$basic_filebuf@DU?$char_traits@D@std@@@std@@IAEXABV?$codecvt@DDU_Mbstatet@@@2@@Z 00533270 f i Shader.obj
 0002:00020320       ?_Insert_new_node_before@?$_Hash@V?$_Umap_traits@V?$basic_string@DU?$char_traits@D@std@@V?$allocator@D@2@@std@@HV?$_Uhash_compare@V?$basic_string@DU?$char_traits@D@std@@V?$allocator@D@2@@std@@U?$hash@V?$basic_string@DU?$char_traits@D@std@@V?$allocator@D@2@@std@@@2@U?$equal_to@V?$basic_string@DU?$char_traits@D@std@@V?$allocator@D@2@@std@@@2@@2@V?$allocator@U?$pair@$$CBV?$basic_string@DU?$char_traits@D@std@@V?$allocator@D@2@@std@@H@std@@@2@$0A@@std@@@std@@IAEPAU?$_List_node@U?$pair@$$CBV?$basic_string@DU?$char_traits@D@std@@V?$allocator@D@2@@std@@H@std@@PAX@2@IQAU32@0@Z 00533320 f i Shader.obj
 0002:000204d0       ?_Large_string_engaged@?$_String_val@U?$_Simple_types@D@std@@@std@@QBE_NXZ 005334d0 f i Shader.obj
 0002:00020550       ?_Lock@?$basic_filebuf@DU?$char_traits@D@std@@@std@@UAEXXZ 00533550 f i Shader.obj
 0002:000205d0       ?_Make_iter@?$list@U?$pair@$$CBV?$basic_string@DU?$char_traits@D@std@@V?$allocator@D@2@@std@@H@std@@V?$allocator@U?$pair@$$CBV?$basic_string@DU?$char_traits@D@std@@V?$allocator@D@2@@std@@H@std@@@2@@std@@QBE?AV?$_List_iterator@V?$_List_val@U?$_List_simple_types@U?$pair@$$CBV?$basic_string@DU?$char_traits@D@std@@V?$allocator@D@2@@std@@H@std@@@std@@@std@@@2@PAU?$_List_node@U?$pair@$$CBV?$basic_string@DU?$char_traits@D@std@@V?$allocator@D@2@@std@@H@std@@PAX@2@@Z 005335d0 f i Shader.obj
 0002:00020650       ?_Max_bucket_size@?$_Hash@V?$_Umap_traits@V?$basic_string@DU?$char_traits@D@std@@V?$allocator@D@2@@std@@HV?$_Uhash_compare@V?$basic_string@DU?$char_traits@D@std@@V?$allocator@D@2@@std@@U?$hash@V?$basic_string@DU?$char_traits@D@std@@V?$allocator@D@2@@std@@@2@U?$equal_to@V?$basic_string@DU?$char_traits@D@std@@V?$allocator@D@2@@std@@@2@@2@V?$allocator@U?$pair@$$CBV?$basic_string@DU?$char_traits@D@std@@V?$allocator@D@2@@std@@H@std@@@2@$0A@@std@@@std@@IAEAAMXZ 00533650 f i Shader.obj
 0002:000206b0       ?_Max_bucket_size@?$_Hash@V?$_Umap_traits@V?$basic_string@DU?$char_traits@D@std@@V?$allocator@D@2@@std@@HV?$_Uhash_compare@V?$basic_string@DU?$char_traits@D@std@@V?$allocator@D@2@@std@@U?$hash@V?$basic_string@DU?$char_traits@D@std@@V?$allocator@D@2@@std@@@2@U?$equal_to@V?$basic_string@DU?$char_traits@D@std@@V?$allocator@D@2@@std@@@2@@2@V?$allocator@U?$pair@$$CBV?$basic_string@DU?$char_traits@D@std@@V?$allocator@D@2@@std@@H@std@@@2@$0A@@std@@@std@@IBEABMXZ 005336b0 f i Shader.obj
 0002:00020710       ?_Memcpy_val_from@?$basic_string@DU?$char_traits@D@std@@V?$allocator@D@2@@std@@AAEXABV12@@Z 00533710 f i Shader.obj
 0002:000207a0       ?_Min_load_factor_buckets@?$_Hash@V?$_Umap_traits@V?$basic_string@DU?$char_traits@D@std@@V?$allocator@D@2@@std@@HV?$_Uhash_compare@V?$basic_string@DU?$char_traits@D@std@@V?$allocator@D@2@@std@@U?$hash@V?$basic_string@DU?$char_traits@D@std@@V?$allocator@D@2@@std@@@2@U?$equal_to@V?$basic_string@DU?$char_traits@D@std@@V?$allocator@D@2@@std@@@2@@2@V?$allocator@U?$pair@$$CBV?$basic_string@DU?$char_traits@D@std@@V?$allocator@D@2@@std@@H@std@@@2@$0A@@std@@@std@@IBEII@Z 005337a0 f i Shader.obj
 0002:00020890       ?_Myptr@?$_String_val@U?$_Simple_types@D@std@@@std@@QAEPADXZ 00533890 f i Shader.obj
 0002:00020910       ?_Myptr@?$_String_val@U?$_Simple_types@D@std@@@std@@QBEPBDXZ 00533910 f i Shader.obj
 0002:00020990       ?_Orphan_all@_Container_base0@std@@QAEXXZ 00533990 f i Shader.obj
 0002:000209e0       ?_Orphan_non_end@?$_List_val@U?$_List_simple_types@U?$pair@$$CBV?$basic_string@DU?$char_traits@D@std@@V?$allocator@D@2@@std@@H@std@@@std@@@std@@QAEXXZ 005339e0 f i Shader.obj
 0002:00020a30       ?_Rehash_for_1@?$_Hash@V?$_Umap_traits@V?$basic_string@DU?$char_traits@D@std@@V?$allocator@D@2@@std@@HV?$_Uhash_compare@V?$basic_string@DU?$char_traits@D@std@@V?$allocator@D@2@@std@@U?$hash@V?$basic_string@DU?$char_traits@D@std@@V?$allocator@D@2@@std@@@2@U?$equal_to@V?$basic_string@DU?$char_traits@D@std@@V?$allocator@D@2@@std@@@2@@2@V?$allocator@U?$pair@$$CBV?$basic_string@DU?$char_traits@D@std@@V?$allocator@D@2@@std@@H@std@@@2@$0A@@std@@@std@@IAEXXZ 00533a30 f i Shader.obj
 0002:00020ab0       ?_Release@?$_Alloc_construct_ptr@V?$allocator@U?$_List_node@U?$pair@$$CBV?$basic_string@DU?$char_traits@D@std@@V?$allocator@D@2@@std@@H@std@@PAX@std@@@std@@@std@@QAEPAU?$_List_node@U?$pair@$$CBV?$basic_string@DU?$char_traits@D@std@@V?$allocator@D@2@@std@@H@std@@PAX@2@XZ 00533ab0 f i Shader.obj
 0002:00020b30       ?_Release@?$_Uninitialized_backout@PAV?$_List_unchecked_iterator@V?$_List_val@U?$_List_simple_types@U?$pair@$$CBV?$basic_string@DU?$char_traits@D@std@@V?$allocator@D@2@@std@@H@std@@@std@@@std@@@std@@@std@@QAEPAV?$_List_unchecked_iterator@V?$_List_val@U?$_List_simple_types@U?$pair@$$CBV?$basic_string@DU?$char_traits@D@std@@V?$allocator@D@2@@std@@H@std@@@std@@@std@@@2@XZ 00533b30 f i Shader.obj
 0002:00020ba0       ?_Release@_Fake_proxy_ptr_impl@std@@QAEXXZ 00533ba0 f i Shader.obj
 0002:00020bf0       ?_Reset_back@?$basic_filebuf@DU?$char_traits@D@std@@@std@@AAEXXZ 00533bf0 f i Shader.obj
 0002:00020ca0       ?_Set_back@?$basic_filebuf@DU?$char_traits@D@std@@@std@@AAEXXZ 00533ca0 f i Shader.obj
 0002:00020d80       ?_Swap_proxy_and_iterators@?$basic_string@DU?$char_traits@D@std@@V?$allocator@D@2@@std@@AAEXAAV12@@Z 00533d80 f i Shader.obj
 0002:00020de0       ?_Swap_proxy_and_iterators@_Container_base0@std@@QAEXAAU12@@Z 00533de0 f i Shader.obj
 0002:00020e30       ?_Take_contents@?$basic_string@DU?$char_traits@D@std@@V?$allocator@D@2@@std@@AAEXAAV12@@Z 00533e30 f i Shader.obj
 0002:00020f90       ?_Throw_bad_array_new_length@std@@YAXXZ 00533f90 f i Shader.obj
 0002:00021000       ?_Throw_bad_cast@std@@YAXXZ 00534000 f i Shader.obj
 0002:00021070       ?_Tidy@?$_Hash_vec@V?$allocator@V?$_List_unchecked_iterator@V?$_List_val@U?$_List_simple_types@U?$pair@$$CBV?$basic_string@DU?$char_traits@D@std@@V?$allocator@D@2@@std@@H@std@@@std@@@std@@@std@@@std@@@std@@QAEXXZ 00534070 f i Shader.obj
 0002:00021170       ?_Tidy@?$basic_stringbuf@DU?$char_traits@D@std@@V?$allocator@D@2@@std@@IAEXXZ 00534170 f i Shader.obj
 0002:00021310       ?_Tidy@?$list@U?$pair@$$CBV?$basic_string@DU?$char_traits@D@std@@V?$allocator@D@2@@std@@H@std@@V?$allocator@U?$pair@$$CBV?$basic_string@DU?$char_traits@D@std@@V?$allocator@D@2@@std@@H@std@@@2@@std@@AAEXXZ 00534310 f i Shader.obj
 0002:000213b0       ?_Tidy_deallocate@?$basic_string@DU?$char_traits@D@std@@V?$allocator@D@2@@std@@AAEXXZ 005343b0 f i Shader.obj
 0002:000214f0       ?_Tidy_init@?$basic_string@DU?$char_traits@D@std@@V?$allocator@D@2@@std@@AAEXXZ 005344f0 f i Shader.obj
 0002:000215a0       ?_Unchecked_begin@?$_Hash@V?$_Umap_traits@V?$basic_string@DU?$char_traits@D@std@@V?$allocator@D@2@@std@@HV?$_Uhash_compare@V?$basic_string@DU?$char_traits@D@std@@V?$allocator@D@2@@std@@U?$hash@V?$basic_string@DU?$char_traits@D@std@@V?$allocator@D@2@@std@@@2@U?$equal_to@V?$basic_string@DU?$char_traits@D@std@@V?$allocator@D@2@@std@@@2@@2@V?$allocator@U?$pair@$$CBV?$basic_string@DU?$char_traits@D@std@@V?$allocator@D@2@@std@@H@std@@@2@$0A@@std@@@std@@QAE?AV?$_List_unchecked_iterator@V?$_List_val@U?$_List_simple_types@U?$pair@$$CBV?$basic_string@DU?$char_traits@D@std@@V?$allocator@D@2@@std@@H@std@@@std@@@std@@@2@XZ 005345a0 f i Shader.obj
 0002:00021610       ?_Unchecked_begin@?$list@U?$pair@$$CBV?$basic_string@DU?$char_traits@D@std@@V?$allocator@D@2@@std@@H@std@@V?$allocator@U?$pair@$$CBV?$basic_string@DU?$char_traits@D@std@@V?$allocator@D@2@@std@@H@std@@@2@@std@@QAE?AV?$_List_unchecked_iterator@V?$_List_val@U?$_List_simple_types@U?$pair@$$CBV?$basic_string@DU?$char_traits@D@std@@V?$allocator@D@2@@std@@H@std@@@std@@@std@@@2@XZ 00534610 f i Shader.obj
 0002:00021680       ?_Unchecked_end@?$_Hash@V?$_Umap_traits@V?$basic_string@DU?$char_traits@D@std@@V?$allocator@D@2@@std@@HV?$_Uhash_compare@V?$basic_string@DU?$char_traits@D@std@@V?$allocator@D@2@@std@@U?$hash@V?$basic_string@DU?$char_traits@D@std@@V?$allocator@D@2@@std@@@2@U?$equal_to@V?$basic_string@DU?$char_traits@D@std@@V?$allocator@D@2@@std@@@2@@2@V?$allocator@U?$pair@$$CBV?$basic_string@DU?$char_traits@D@std@@V?$allocator@D@2@@std@@H@std@@@2@$0A@@std@@@std@@QAE?AV?$_List_unchecked_iterator@V?$_List_val@U?$_List_simple_types@U?$pair@$$CBV?$basic_string@DU?$char_traits@D@std@@V?$allocator@D@2@@std@@H@std@@@std@@@std@@@2@XZ 00534680 f i Shader.obj
 0002:000216f0       ?_Unchecked_end@?$list@U?$pair@$$CBV?$basic_string@DU?$char_traits@D@std@@V?$allocator@D@2@@std@@H@std@@V?$allocator@U?$pair@$$CBV?$basic_string@DU?$char_traits@D@std@@V?$allocator@D@2@@std@@H@std@@@2@@std@@QAE?AV?$_List_unchecked_iterator@V?$_List_val@U?$_List_simple_types@U?$pair@$$CBV?$basic_string@DU?$char_traits@D@std@@V?$allocator@D@2@@std@@H@std@@@std@@@std@@@2@XZ 005346f0 f i Shader.obj
 0002:00021760       ?_Unchecked_erase@?$_Hash@V?$_Umap_traits@V?$basic_string@DU?$char_traits@D@std@@V?$allocator@D@2@@std@@HV?$_Uhash_compare@V?$basic_string@DU?$char_traits@D@std@@V?$allocator@D@2@@std@@U?$hash@V?$basic_string@DU?$char_traits@D@std@@V?$allocator@D@2@@std@@@2@U?$equal_to@V?$basic_string@DU?$char_traits@D@std@@V?$allocator@D@2@@std@@@2@@2@V?$allocator@U?$pair@$$CBV?$basic_string@DU?$char_traits@D@std@@V?$allocator@D@2@@std@@H@std@@@2@$0A@@std@@@std@@AAEPAU?$_List_node@U?$pair@$$CBV?$basic_string@DU?$char_traits@D@std@@V?$allocator@D@2@@std@@H@std@@PAX@2@PAU32@QAU32@@Z 00534760 f i Shader.obj
 0002:00021ad0       ?_Unchecked_splice@?$_List_val@U?$_List_simple_types@U?$pair@$$CBV?$basic_string@DU?$char_traits@D@std@@V?$allocator@D@2@@std@@H@std@@@std@@@std@@SAPAU?$_List_node@U?$pair@$$CBV?$basic_string@DU?$char_traits@D@std@@V?$allocator@D@2@@std@@H@std@@PAX@2@QAU32@00@Z 00534ad0 f i Shader.obj
 0002:00021b80       ?_Unlock@?$basic_filebuf@DU?$char_traits@D@std@@@std@@UAEXXZ 00534b80 f i Shader.obj
 0002:00021c00       ?_Xlen_string@std@@YAXXZ   00534c00 f i Shader.obj
 0002:00021c50       ?_Xran@?$_String_val@U?$_Simple_types@D@std@@@std@@SAXXZ 00534c50 f i Shader.obj
 0002:00021ca0       ?__autoclassinit2@?$_List_unchecked_const_iterator@V?$_List_val@U?$_List_simple_types@U?$pair@$$CBV?$basic_string@DU?$char_traits@D@std@@V?$allocator@D@2@@std@@H@std@@@std@@@std@@U_Iterator_base0@2@@std@@QAEXI@Z 00534ca0 f i Shader.obj
 0002:00021d00       ?__autoclassinit2@?$_List_unchecked_iterator@V?$_List_val@U?$_List_simple_types@U?$pair@$$CBV?$basic_string@DU?$char_traits@D@std@@V?$allocator@D@2@@std@@H@std@@@std@@@std@@@std@@QAEXI@Z 00534d00 f i Shader.obj
 0002:00021d60       ?__autoclassinit2@?$basic_fstream@DU?$char_traits@D@std@@@std@@QAEXI@Z 00534d60 f i Shader.obj
 0002:00021dc0       ?__autoclassinit2@?$unique_ptr@V_Facet_base@std@@U?$default_delete@V_Facet_base@std@@@2@@std@@QAEXI@Z 00534dc0 f i Shader.obj
 0002:00021e20       ?allocate@?$allocator@D@std@@QAEPADI@Z 00534e20 f i Shader.obj
 0002:00021e90       ?allocate@?$allocator@U?$_List_node@U?$pair@$$CBV?$basic_string@DU?$char_traits@D@std@@V?$allocator@D@2@@std@@H@std@@PAX@std@@@std@@QAEPAU?$_List_node@U?$pair@$$CBV?$basic_string@DU?$char_traits@D@std@@V?$allocator@D@2@@std@@H@std@@PAX@2@I@Z 00534e90 f i Shader.obj
 0002:00021f00       ?allocate@?$allocator@V?$_List_unchecked_iterator@V?$_List_val@U?$_List_simple_types@U?$pair@$$CBV?$basic_string@DU?$char_traits@D@std@@V?$allocator@D@2@@std@@H@std@@@std@@@std@@@std@@@std@@QAEPAV?$_List_unchecked_iterator@V?$_List_val@U?$_List_simple_types@U?$pair@$$CBV?$basic_string@DU?$char_traits@D@std@@V?$allocator@D@2@@std@@H@std@@@std@@@std@@@2@I@Z 00534f00 f i Shader.obj
 0002:00021f70       ?assign@?$_Narrow_char_traits@DH@std@@SAXAADABD@Z 00534f70 f i Shader.obj
 0002:00021fc0       ?assign@?$basic_string@DU?$char_traits@D@std@@V?$allocator@D@2@@std@@QAEAAV12@QBDI@Z 00534fc0 f i Shader.obj
 0002:000220b0       ?bucket@?$_Hash@V?$_Umap_traits@V?$basic_string@DU?$char_traits@D@std@@V?$allocator@D@2@@std@@HV?$_Uhash_compare@V?$basic_string@DU?$char_traits@D@std@@V?$allocator@D@2@@std@@U?$hash@V?$basic_string@DU?$char_traits@D@std@@V?$allocator@D@2@@std@@@2@U?$equal_to@V?$basic_string@DU?$char_traits@D@std@@V?$allocator@D@2@@std@@@2@@2@V?$allocator@U?$pair@$$CBV?$basic_string@DU?$char_traits@D@std@@V?$allocator@D@2@@std@@H@std@@@2@$0A@@std@@@std@@QBEIABV?$basic_string@DU?$char_traits@D@std@@V?$allocator@D@2@@2@@Z 005350b0 f i Shader.obj
 0002:00022120       ?bucket_count@?$_Hash@V?$_Umap_traits@V?$basic_string@DU?$char_traits@D@std@@V?$allocator@D@2@@std@@HV?$_Uhash_compare@V?$basic_string@DU?$char_traits@D@std@@V?$allocator@D@2@@std@@U?$hash@V?$basic_string@DU?$char_traits@D@std@@V?$allocator@D@2@@std@@@2@U?$equal_to@V?$basic_string@DU?$char_traits@D@std@@V?$allocator@D@2@@std@@@2@@2@V?$allocator@U?$pair@$$CBV?$basic_string@DU?$char_traits@D@std@@V?$allocator@D@2@@std@@H@std@@@2@$0A@@std@@@std@@QBEIXZ 00535120 f i Shader.obj
 0002:00022180       ?c_str@?$basic_string@DU?$char_traits@D@std@@V?$allocator@D@2@@std@@QBEPBDXZ 00535180 f i Shader.obj
 0002:000221e0       ?capacity@?$_Hash_vec@V?$allocator@V?$_List_unchecked_iterator@V?$_List_val@U?$_List_simple_types@U?$pair@$$CBV?$basic_string@DU?$char_traits@D@std@@V?$allocator@D@2@@std@@H@std@@@std@@@std@@@std@@@std@@@std@@QBEIXZ 005351e0 f i Shader.obj
 0002:00022240       ?clear@?$_Hash@V?$_Umap_traits@V?$basic_string@DU?$char_traits@D@std@@V?$allocator@D@2@@std@@HV?$_Uhash_compare@V?$basic_string@DU?$char_traits@D@std@@V?$allocator@D@2@@std@@U?$hash@V?$basic_string@DU?$char_traits@D@std@@V?$allocator@D@2@@std@@@2@U?$equal_to@V?$basic_string@DU?$char_traits@D@std@@V?$allocator@D@2@@std@@@2@@2@V?$allocator@U?$pair@$$CBV?$basic_string@DU?$char_traits@D@std@@V?$allocator@D@2@@std@@H@std@@@2@$0A@@std@@@std@@QAEXXZ 00535240 f i Shader.obj
 0002:00022360       ?clear@?$list@U?$pair@$$CBV?$basic_string@DU?$char_traits@D@std@@V?$allocator@D@2@@std@@H@std@@V?$allocator@U?$pair@$$CBV?$basic_string@DU?$char_traits@D@std@@V?$allocator@D@2@@std@@H@std@@@2@@std@@QAEXXZ 00535360 f i Shader.obj
 0002:00022410       ?close@?$basic_filebuf@DU?$char_traits@D@std@@@std@@QAEPAV12@XZ 00535410 f i Shader.obj
 0002:000224e0       ?compare@?$_Narrow_char_traits@DH@std@@SAHQBD0I@Z 005354e0 f i Shader.obj
 0002:00022540       ?copy@?$_Char_traits@DH@std@@SAPADQADQBDI@Z 00535540 f i Shader.obj
 0002:000225a0       ?data@?$basic_string@DU?$char_traits@D@std@@V?$allocator@D@2@@std@@QBEPBDXZ 005355a0 f i Shader.obj
 0002:00022600       ?deallocate@?$_Default_allocator_traits@V?$allocator@U?$_List_node@U?$pair@$$CBV?$basic_string@DU?$char_traits@D@std@@V?$allocator@D@2@@std@@H@std@@PAX@std@@@std@@@std@@SAXAAV?$allocator@U?$_List_node@U?$pair@$$CBV?$basic_string@DU?$char_traits@D@std@@V?$allocator@D@2@@std@@H@std@@PAX@std@@@2@QAU?$_List_node@U?$pair@$$CBV?$basic_string@DU?$char_traits@D@std@@V?$allocator@D@2@@std@@H@std@@PAX@2@I@Z 00535600 f i Shader.obj
 0002:00022660       ?deallocate@?$allocator@D@std@@QAEXQADI@Z 00535660 f i Shader.obj
 0002:000226d0       ?deallocate@?$allocator@U?$_List_node@U?$pair@$$CBV?$basic_string@DU?$char_traits@D@std@@V?$allocator@D@2@@std@@H@std@@PAX@std@@@std@@QAEXQAU?$_List_node@U?$pair@$$CBV?$basic_string@DU?$char_traits@D@std@@V?$allocator@D@2@@std@@H@std@@PAX@2@I@Z 005356d0 f i Shader.obj
 0002:00022740       ?deallocate@?$allocator@V?$_List_unchecked_iterator@V?$_List_val@U?$_List_simple_types@U?$pair@$$CBV?$basic_string@DU?$char_traits@D@std@@V?$allocator@D@2@@std@@H@std@@@std@@@std@@@std@@@std@@QAEXQAV?$_List_unchecked_iterator@V?$_List_val@U?$_List_simple_types@U?$pair@$$CBV?$basic_string@DU?$char_traits@D@std@@V?$allocator@D@2@@std@@H@std@@@std@@@std@@@2@I@Z 00535740 f i Shader.obj
 0002:000227b0       ?end@?$_Hash@V?$_Umap_traits@V?$basic_string@DU?$char_traits@D@std@@V?$allocator@D@2@@std@@HV?$_Uhash_compare@V?$basic_string@DU?$char_traits@D@std@@V?$allocator@D@2@@std@@U?$hash@V?$basic_string@DU?$char_traits@D@std@@V?$allocator@D@2@@std@@@2@U?$equal_to@V?$basic_string@DU?$char_traits@D@std@@V?$allocator@D@2@@std@@@2@@2@V?$allocator@U?$pair@$$CBV?$basic_string@DU?$char_traits@D@std@@V?$allocator@D@2@@std@@H@std@@@2@$0A@@std@@@std@@QAE?AV?$_List_iterator@V?$_List_val@U?$_List_simple_types@U?$pair@$$CBV?$basic_string@DU?$char_traits@D@std@@V?$allocator@D@2@@std@@H@std@@@std@@@std@@@2@XZ 005357b0 f i Shader.obj
 0002:00022820       ?end@?$list@U?$pair@$$CBV?$basic_string@DU?$char_traits@D@std@@V?$allocator@D@2@@std@@H@std@@V?$allocator@U?$pair@$$CBV?$basic_string@DU?$char_traits@D@std@@V?$allocator@D@2@@std@@H@std@@@2@@std@@QAE?AV?$_List_iterator@V?$_List_val@U?$_List_simple_types@U?$pair@$$CBV?$basic_string@DU?$char_traits@D@std@@V?$allocator@D@2@@std@@H@std@@@std@@@std@@@2@XZ 00535820 f i Shader.obj
 0002:000228a0       ?eof@?$_Narrow_char_traits@DH@std@@SAHXZ 005358a0 f i Shader.obj
 0002:000228f0       ?eq@?$_Narrow_char_traits@DH@std@@SA_NABD0@Z 005358f0 f i Shader.obj
 0002:00022970       ?eq_int_type@?$_Narrow_char_traits@DH@std@@SA_NABH0@Z 00535970 f i Shader.obj
 0002:000229f0       ?erase@?$basic_string@DU?$char_traits@D@std@@V?$allocator@D@2@@std@@QAEAAV12@I@Z 005359f0 f i Shader.obj
 0002:00022a70       ?erase@?$basic_string@DU?$char_traits@D@std@@V?$allocator@D@2@@std@@QAEAAV12@II@Z 00535a70 f i Shader.obj
 0002:00022af0       ?find@?$_Narrow_char_traits@DH@std@@SAPBDQBDIABD@Z 00535af0 f i Shader.obj
 0002:00022b50       ?find@?$basic_string@DU?$char_traits@D@std@@V?$allocator@D@2@@std@@QBEIQBDI@Z 00535b50 f i Shader.obj
 0002:00022be0       ?front@?$basic_string@DU?$char_traits@D@std@@V?$allocator@D@2@@std@@QAEAADXZ 00535be0 f i Shader.obj
 0002:00022c50       ?imbue@?$basic_filebuf@DU?$char_traits@D@std@@@std@@MAEXABVlocale@2@@Z 00535c50 f i Shader.obj
 0002:00022cc0       ?length@?$_Narrow_char_traits@DH@std@@SAIQBD@Z 00535cc0 f i Shader.obj
 0002:00022d20       ?length@?$mat@$03$03M$0A@@glm@@SAHXZ 00535d20 f i Shader.obj
 0002:00022d70       ?length@?$vec@$03M$0A@@glm@@SAHXZ 00535d70 f i Shader.obj
 0002:00022dc0       ?max@?$numeric_limits@H@std@@SAHXZ 00535dc0 f i Shader.obj
 0002:00022e10       ?max_load_factor@?$_Hash@V?$_Umap_traits@V?$basic_string@DU?$char_traits@D@std@@V?$allocator@D@2@@std@@HV?$_Uhash_compare@V?$basic_string@DU?$char_traits@D@std@@V?$allocator@D@2@@std@@U?$hash@V?$basic_string@DU?$char_traits@D@std@@V?$allocator@D@2@@std@@@2@U?$equal_to@V?$basic_string@DU?$char_traits@D@std@@V?$allocator@D@2@@std@@@2@@2@V?$allocator@U?$pair@$$CBV?$basic_string@DU?$char_traits@D@std@@V?$allocator@D@2@@std@@H@std@@@2@$0A@@std@@@std@@QBEMXZ 00535e10 f i Shader.obj
 0002:00022e70       ?max_size@?$_Default_allocator_traits@V?$allocator@D@std@@@std@@SAIABV?$allocator@D@2@@Z 00535e70 f i Shader.obj
 0002:00022ec0       ?max_size@?$_Default_allocator_traits@V?$allocator@U?$_List_node@U?$pair@$$CBV?$basic_string@DU?$char_traits@D@std@@V?$allocator@D@2@@std@@H@std@@PAX@std@@@std@@@std@@SAIABV?$allocator@U?$_List_node@U?$pair@$$CBV?$basic_string@DU?$char_traits@D@std@@V?$allocator@D@2@@std@@H@std@@PAX@std@@@2@@Z 00535ec0 f i Shader.obj
 0002:00022f10       ?max_size@?$_Default_allocator_traits@V?$allocator@V?$_List_unchecked_iterator@V?$_List_val@U?$_List_simple_types@U?$pair@$$CBV?$basic_string@DU?$char_traits@D@std@@V?$allocator@D@2@@std@@H@std@@@std@@@std@@@std@@@std@@@std@@SAIABV?$allocator@V?$_List_unchecked_iterator@V?$_List_val@U?$_List_simple_types@U?$pair@$$CBV?$basic_string@DU?$char_traits@D@std@@V?$allocator@D@2@@std@@H@std@@@std@@@std@@@std@@@2@@Z 00535f10 f i Shader.obj
 0002:00022f60       ?max_size@?$_Hash_vec@V?$allocator@V?$_List_unchecked_iterator@V?$_List_val@U?$_List_simple_types@U?$pair@$$CBV?$basic_string@DU?$char_traits@D@std@@V?$allocator@D@2@@std@@H@std@@@std@@@std@@@std@@@std@@@std@@QBEIXZ 00535f60 f i Shader.obj
 0002:00023000       ?max_size@?$basic_string@DU?$char_traits@D@std@@V?$allocator@D@2@@std@@QBEIXZ 00536000 f i Shader.obj
 0002:00023120       ?max_size@?$list@U?$pair@$$CBV?$basic_string@DU?$char_traits@D@std@@V?$allocator@D@2@@std@@H@std@@V?$allocator@U?$pair@$$CBV?$basic_string@DU?$char_traits@D@std@@V?$allocator@D@2@@std@@H@std@@@2@@std@@QBEIXZ 00536120 f i Shader.obj
 0002:000231c0       ?move@?$_Char_traits@DH@std@@SAPADQADQBDI@Z 005361c0 f i Shader.obj
 0002:00023220       ?not_eof@?$_Narrow_char_traits@DH@std@@SAHABH@Z 00536220 f i Shader.obj
 0002:000232d0       ?open@?$basic_filebuf@DU?$char_traits@D@std@@@std@@QAEPAV12@PBDHH@Z 005362d0 f i Shader.obj
 0002:00023420       ?overflow@?$basic_filebuf@DU?$char_traits@D@std@@@std@@MAEHH@Z 00536420 f i Shader.obj
 0002:000237a0       ?overflow@?$basic_stringbuf@DU?$char_traits@D@std@@V?$allocator@D@2@@std@@MAEHH@Z 005367a0 f i Shader.obj
 0002:00023ad0       ?pbackfail@?$basic_filebuf@DU?$char_traits@D@std@@@std@@MAEHH@Z 00536ad0 f i Shader.obj
 0002:00023d20       ?pbackfail@?$basic_stringbuf@DU?$char_traits@D@std@@V?$allocator@D@2@@std@@MAEHH@Z 00536d20 f i Shader.obj
 0002:00023ec0       ?pointer_to@?$pointer_traits@PAD@std@@SAPADAAD@Z 00536ec0 f i Shader.obj
 0002:00023f20       ?push_back@?$basic_string@DU?$char_traits@D@std@@V?$allocator@D@2@@std@@QAEXD@Z 00536f20 f i Shader.obj
 0002:00024010       ?release@?$unique_ptr@V_Facet_base@std@@U?$default_delete@V_Facet_base@std@@@2@@std@@QAEPAV_Facet_base@2@XZ 00537010 f i Shader.obj
 0002:00024090       ?seekoff@?$basic_filebuf@DU?$char_traits@D@std@@@std@@MAE?AV?$fpos@U_Mbstatet@@@2@_JHH@Z 00537090 f i Shader.obj
 0002:00024260       ?seekoff@?$basic_stringbuf@DU?$char_traits@D@std@@V?$allocator@D@2@@std@@MAE?AV?$fpos@U_Mbstatet@@@2@_JHH@Z 00537260 f i Shader.obj
 0002:000245b0       ?seekpos@?$basic_filebuf@DU?$char_traits@D@std@@@std@@MAE?AV?$fpos@U_Mbstatet@@@2@V32@H@Z 005375b0 f i Shader.obj
 0002:00024710       ?seekpos@?$basic_stringbuf@DU?$char_traits@D@std@@V?$allocator@D@2@@std@@MAE?AV?$fpos@U_Mbstatet@@@2@V32@H@Z 00537710 f i Shader.obj
 0002:00024960       ?select_on_container_copy_construction@?$_Default_allocator_traits@V?$allocator@D@std@@@std@@SA?AV?$allocator@D@2@ABV32@@Z 00537960 f i Shader.obj
 0002:000249b0       ?setbuf@?$basic_filebuf@DU?$char_traits@D@std@@@std@@MAEPAV?$basic_streambuf@DU?$char_traits@D@std@@@2@PAD_J@Z 005379b0 f i Shader.obj
 0002:00024a90       ?size@?$_Hash_vec@V?$allocator@V?$_List_unchecked_iterator@V?$_List_val@U?$_List_simple_types@U?$pair@$$CBV?$basic_string@DU?$char_traits@D@std@@V?$allocator@D@2@@std@@H@std@@@std@@@std@@@std@@@std@@@std@@QBEIXZ 00537a90 f i Shader.obj
 0002:00024af0       ?size@?$basic_string@DU?$char_traits@D@std@@V?$allocator@D@2@@std@@QBEIXZ 00537af0 f i Shader.obj
 0002:00024b50       ?state@?$fpos@U_Mbstatet@@@std@@QBE?AU_Mbstatet@@XZ 00537b50 f i Shader.obj
 0002:00024bc0       ?str@?$basic_stringbuf@DU?$char_traits@D@std@@V?$allocator@D@2@@std@@QBE?AV?$basic_string@DU?$char_traits@D@std@@V?$allocator@D@2@@2@XZ 00537bc0 f i Shader.obj
 0002:00024d20       ?str@?$basic_stringstream@DU?$char_traits@D@std@@V?$allocator@D@2@@std@@QBE?AV?$basic_string@DU?$char_traits@D@std@@V?$allocator@D@2@@2@XZ 00537d20 f i Shader.obj
 0002:00024db0       ?sync@?$basic_filebuf@DU?$char_traits@D@std@@@std@@MAEHXZ 00537db0 f i Shader.obj
 0002:00024ea0       ?to_char_type@?$_Narrow_char_traits@DH@std@@SADABH@Z 00537ea0 f i Shader.obj
 0002:00024ef0       ?to_int_type@?$_Narrow_char_traits@DH@std@@SAHABD@Z 00537ef0 f i Shader.obj
 0002:00024f40       ?uflow@?$basic_filebuf@DU?$char_traits@D@std@@@std@@MAEHXZ 00537f40 f i Shader.obj
 0002:000253a0       ?underflow@?$basic_filebuf@DU?$char_traits@D@std@@@std@@MAEHXZ 005383a0 f i Shader.obj
 0002:00025530       ?underflow@?$basic_stringbuf@DU?$char_traits@D@std@@V?$allocator@D@2@@std@@MAEHXZ 00538530 f i Shader.obj
 0002:00025720       ?what@exception@std@@UBEPBDXZ 00538720 f i Shader.obj
 0002:000257a0       ?xsgetn@?$basic_filebuf@DU?$char_traits@D@std@@@std@@MAE_JPAD_J@Z 005387a0 f i Shader.obj
 0002:00025a50       ?xsputn@?$basic_filebuf@DU?$char_traits@D@std@@@std@@MAE_JPBD_J@Z 00538a50 f i Shader.obj
 0002:00025c30       __JustMyCode_Default       00538c30 f i Shader.obj
 0002:00025c40       _ceilf                     00538c40 f i Shader.obj
 0002:00025cc0       ?GlClearError@@YAXXZ       00538cc0 f   Debugger.obj
 0002:00025d20       ?GlLogCall_@@YA_NPBD0H@Z   00538d20 f   Debugger.obj
 0002:00025e50       ??0IndexBuffer@@QAE@PBII@Z 00538e50 f   IndexBuffer.obj
 0002:00025fb0       ??1IndexBuffer@@QAE@XZ     00538fb0 f   IndexBuffer.obj
 0002:000260a0       ?Bind@IndexBuffer@@QBEXXZ  005390a0 f   IndexBuffer.obj
 0002:00026140       ?GetCount@IndexBuffer@@QBEIXZ 00539140 f   IndexBuffer.obj
 0002:000261a0       ?Unbind@IndexBuffer@@QBEXXZ 005391a0 f   IndexBuffer.obj
 0002:00026240       ?Clear@Renderer@@QBEXABU?$vec@$03M$0A@@glm@@@Z 00539240 f   Renderer.obj
 0002:00026370       ?Draw@Renderer@@QBEXABVVertexArray@@ABVIndexBuffer@@ABVShader@@@Z 00539370 f   Renderer.obj
 0002:00026440       ??$?0$$V@?$_Compressed_pair@U?$default_delete@VTest@test@@@std@@PAVTest@test@@$00@std@@QAE@U_Zero_then_variadic_args_t@1@@Z 00539440 f i Application.obj
 0002:000264a0       ??$?0$$V@?$_Compressed_pair@V?$allocator@U?$pair@V?$basic_string@DU?$char_traits@D@std@@V?$allocator@D@2@@std@@V?$function@$$A6A?AV?$unique_ptr@VTest@test@@U?$default_delete@VTest@test@@@std@@@std@@XZ@2@@std@@@std@@V?$_Vector_val@U?$_Simple_types@U?$pair@V?$basic_string@DU?$char_traits@D@std@@V?$allocator@D@2@@std@@V?$function@$$A6A?AV?$unique_ptr@VTest@test@@U?$default_delete@VTest@test@@@std@@@std@@XZ@2@@std@@@std@@@2@$00@std@@QAE@U_Zero_then_variadic_args_t@1@@Z 005394a0 f i Application.obj
 0002:00026510       ??$?0AAPAVTestBatchColor@test@@@?$_Compressed_pair@U?$default_delete@VTestBatchColor@test@@@std@@PAVTestBatchColor@test@@$00@std@@QAE@U_Zero_then_variadic_args_t@1@AAPAVTestBatchColor@test@@@Z 00539510 f i Application.obj
 0002:00026580       ??$?0AAPAVTestBatchMove@test@@@?$_Compressed_pair@U?$default_delete@VTestBatchMove@test@@@std@@PAVTestBatchMove@test@@$00@std@@QAE@U_Zero_then_variadic_args_t@1@AAPAVTestBatchMove@test@@@Z 00539580 f i Application.obj
 0002:000265f0       ??$?0AAPAVTestBatchTexture@test@@@?$_Compressed_pair@U?$default_delete@VTestBatchTexture@test@@@std@@PAVTestBatchTexture@test@@$00@std@@QAE@U_Zero_then_variadic_args_t@1@AAPAVTestBatchTexture@test@@@Z 005395f0 f i Application.obj
 0002:00026660       ??$?0AAPAVTestChangeTexture@test@@@?$_Compressed_pair@U?$default_delete@VTestChangeTexture@test@@@std@@PAVTestChangeTexture@test@@$00@std@@QAE@U_Zero_then_variadic_args_t@1@AAPAVTestChangeTexture@test@@@Z 00539660 f i Application.obj
 0002:000266d0       ??$?0AAPAVTestClearColor@test@@@?$_Compressed_pair@U?$default_delete@VTestClearColor@test@@@std@@PAVTestClearColor@test@@$00@std@@QAE@U_Zero_then_variadic_args_t@1@AAPAVTestClearColor@test@@@Z 005396d0 f i Application.obj
 0002:00026740       ??$?0ABV<lambda_1>@?1???$Register@VTestBatchColor@test@@@TestMenu@test@@QAEXABV?$basic_string@DU?$char_traits@D@std@@V?$allocator@D@2@@std@@@Z@$0A@@?$_Func_impl_no_alloc@V<lambda_1>@?1???$Register@VTestBatchColor@test@@@TestMenu@test@@QAEXABV?$basic_string@DU?$char_traits@D@std@@V?$allocator@D@2@@std@@@Z@V?$unique_ptr@VTest@test@@U?$default_delete@VTest@test@@@std@@@5@$$V@std@@QAE@ABV<lambda_1>@?1???$Register@VTestBatchColor@test@@@TestMenu@test@@QAEXABV?$basic_string@DU?$char_traits@D@std@@V?$allocator@D@2@@1@@Z@@Z 00539740 f i Application.obj
 0002:000267c0       ??$?0ABV<lambda_1>@?1???$Register@VTestBatchMove@test@@@TestMenu@test@@QAEXABV?$basic_string@DU?$char_traits@D@std@@V?$allocator@D@2@@std@@@Z@$0A@@?$_Func_impl_no_alloc@V<lambda_1>@?1???$Register@VTestBatchMove@test@@@TestMenu@test@@QAEXABV?$basic_string@DU?$char_traits@D@std@@V?$allocator@D@2@@std@@@Z@V?$unique_ptr@VTest@test@@U?$default_delete@VTest@test@@@std@@@5@$$V@std@@QAE@ABV<lambda_1>@?1???$Register@VTestBatchMove@test@@@TestMenu@test@@QAEXABV?$basic_string@DU?$char_traits@D@std@@V?$allocator@D@2@@1@@Z@@Z 005397c0 f i Application.obj
 0002:00026840       ??$?0ABV<lambda_1>@?1???$Register@VTestBatchTexture@test@@@TestMenu@test@@QAEXABV?$basic_string@DU?$char_traits@D@std@@V?$allocator@D@2@@std@@@Z@$0A@@?$_Func_impl_no_alloc@V<lambda_1>@?1???$Register@VTestBatchTexture@test@@@TestMenu@test@@QAEXABV?$basic_string@DU?$char_traits@D@std@@V?$allocator@D@2@@std@@@Z@V?$unique_ptr@VTest@test@@U?$default_delete@VTest@test@@@std@@@5@$$V@std@@QAE@ABV<lambda_1>@?1???$Register@VTestBatchTexture@test@@@TestMenu@test@@QAEXABV?$basic_string@DU?$char_traits@D@std@@V?$allocator@D@2@@1@@Z@@Z 00539840 f i Application.obj
 0002:000268c0       ??$?0ABV<lambda_1>@?1???$Register@VTestChangeTexture@test@@@TestMenu@test@@QAEXABV?$basic_string@DU?$char_traits@D@std@@V?$allocator@D@2@@std@@@Z@$0A@@?$_Func_impl_no_alloc@V<lambda_1>@?1???$Register@VTestChangeTexture@test@@@TestMenu@test@@QAEXABV?$basic_string@DU?$char_traits@D@std@@V?$allocator@D@2@@std@@@Z@V?$unique_ptr@VTest@test@@U?$default_delete@VTest@test@@@std@@@5@$$V@std@@QAE@ABV<lambda_1>@?1???$Register@VTestChangeTexture@test@@@TestMenu@test@@QAEXABV?$basic_string@DU?$char_traits@D@std@@V?$allocator@D@2@@1@@Z@@Z 005398c0 f i Application.obj
 0002:00026940       ??$?0ABV<lambda_1>@?1???$Register@VTestClearColor@test@@@TestMenu@test@@QAEXABV?$basic_string@DU?$char_traits@D@std@@V?$allocator@D@2@@std@@@Z@$0A@@?$_Func_impl_no_alloc@V<lambda_1>@?1???$Register@VTestClearColor@test@@@TestMenu@test@@QAEXABV?$basic_string@DU?$char_traits@D@std@@V?$allocator@D@2@@std@@@Z@V?$unique_ptr@VTest@test@@U?$default_delete@VTest@test@@@std@@@5@$$V@std@@QAE@ABV<lambda_1>@?1???$Register@VTestClearColor@test@@@TestMenu@test@@QAEXABV?$basic_string@DU?$char_traits@D@std@@V?$allocator@D@2@@1@@Z@@Z 00539940 f i Application.obj
 0002:000269c0       ??$?0ABV?$allocator@M@std@@$$V@?$_Compressed_pair@V?$allocator@M@std@@V?$_Vector_val@U?$_Simple_types@M@std@@@2@$00@std@@QAE@U_One_then_variadic_args_t@1@ABV?$allocator@M@1@@Z 005399c0 f i Application.obj
 0002:00026a30       ??$?0ABV?$basic_string@DU?$char_traits@D@std@@V?$allocator@D@2@@std@@V<lambda_1>@?1???$Register@VTestBatchColor@test@@@TestMenu@test@@QAEXABV01@@Z@$0A@@?$pair@V?$basic_string@DU?$char_traits@D@std@@V?$allocator@D@2@@std@@V<lambda_1>@?1???$Register@VTestBatchColor@test@@@TestMenu@test@@QAEXABV12@@Z@@std@@QAE@ABV?$basic_string@DU?$char_traits@D@std@@V?$allocator@D@2@@1@$$QAV<lambda_1>@?1???$Register@VTestBatchColor@test@@@TestMenu@test@@QAEX0@Z@@Z 00539a30 f i Application.obj
 0002:00026ab0       ??$?0ABV?$basic_string@DU?$char_traits@D@std@@V?$allocator@D@2@@std@@V<lambda_1>@?1???$Register@VTestBatchMove@test@@@TestMenu@test@@QAEXABV01@@Z@$0A@@?$pair@V?$basic_string@DU?$char_traits@D@std@@V?$allocator@D@2@@std@@V<lambda_1>@?1???$Register@VTestBatchMove@test@@@TestMenu@test@@QAEXABV12@@Z@@std@@QAE@ABV?$basic_string@DU?$char_traits@D@std@@V?$allocator@D@2@@1@$$QAV<lambda_1>@?1???$Register@VTestBatchMove@test@@@TestMenu@test@@QAEX0@Z@@Z 00539ab0 f i Application.obj
 0002:00026b30       ??$?0ABV?$basic_string@DU?$char_traits@D@std@@V?$allocator@D@2@@std@@V<lambda_1>@?1???$Register@VTestBatchTexture@test@@@TestMenu@test@@QAEXABV01@@Z@$0A@@?$pair@V?$basic_string@DU?$char_traits@D@std@@V?$allocator@D@2@@std@@V<lambda_1>@?1???$Register@VTestBatchTexture@test@@@TestMenu@test@@QAEXABV12@@Z@@std@@QAE@ABV?$basic_string@DU?$char_traits@D@std@@V?$allocator@D@2@@1@$$QAV<lambda_1>@?1???$Register@VTestBatchTexture@test@@@TestMenu@test@@QAEX0@Z@@Z 00539b30 f i Application.obj
 0002:00026bb0       ??$?0ABV?$basic_string@DU?$char_traits@D@std@@V?$allocator@D@2@@std@@V<lambda_1>@?1???$Register@VTestChangeTexture@test@@@TestMenu@test@@QAEXABV01@@Z@$0A@@?$pair@V?$basic_string@DU?$char_traits@D@std@@V?$allocator@D@2@@std@@V<lambda_1>@?1???$Register@VTestChangeTexture@test@@@TestMenu@test@@QAEXABV12@@Z@@std@@QAE@ABV?$basic_string@DU?$char_traits@D@std@@V?$allocator@D@2@@1@$$QAV<lambda_1>@?1???$Register@VTestChangeTexture@test@@@TestMenu@test@@QAEX0@Z@@Z 00539bb0 f i Application.obj
 0002:00026c30       ??$?0ABV?$basic_string@DU?$char_traits@D@std@@V?$allocator@D@2@@std@@V<lambda_1>@?1???$Register@VTestClearColor@test@@@TestMenu@test@@QAEXABV01@@Z@$0A@@?$pair@V?$basic_string@DU?$char_traits@D@std@@V?$allocator@D@2@@std@@V<lambda_1>@?1???$Register@VTestClearColor@test@@@TestMenu@test@@QAEXABV12@@Z@@std@@QAE@ABV?$basic_string@DU?$char_traits@D@std@@V?$allocator@D@2@@1@$$QAV<lambda_1>@?1???$Register@VTestClearColor@test@@@TestMenu@test@@QAEX0@Z@@Z 00539c30 f i Application.obj
 0002:00026cb0       ??$?0U?$default_delete@VTest@test@@@std@@$0A@@?$unique_ptr@VTest@test@@U?$default_delete@VTest@test@@@std@@@std@@QAE@$$QAV01@@Z 00539cb0 f i Application.obj
 0002:00026d50       ??$?0U?$default_delete@VTest@test@@@std@@$0A@@?$unique_ptr@VTest@test@@U?$default_delete@VTest@test@@@std@@@std@@QAE@XZ 00539d50 f i Application.obj
 0002:00026dc0       ??$?0U?$default_delete@VTest@test@@@std@@PAVTest@test@@@?$_Compressed_pair@U?$default_delete@VTest@test@@@std@@PAVTest@test@@$00@std@@QAE@U_One_then_variadic_args_t@1@$$QAU?$default_delete@VTest@test@@@1@$$QAPAVTest@test@@@Z 00539dc0 f i Application.obj
 0002:00026e40       ??$?0U?$default_delete@VTestBatchColor@test@@@std@@$0A@@?$unique_ptr@VTestBatchColor@test@@U?$default_delete@VTestBatchColor@test@@@std@@@std@@QAE@$$QAV01@@Z 00539e40 f i Application.obj
 0002:00026ee0       ??$?0U?$default_delete@VTestBatchColor@test@@@std@@$0A@@?$unique_ptr@VTestBatchColor@test@@U?$default_delete@VTestBatchColor@test@@@std@@@std@@QAE@PAVTestBatchColor@test@@@Z 00539ee0 f i Application.obj
 0002:00026f50       ??$?0U?$default_delete@VTestBatchColor@test@@@std@@PAVTestBatchColor@test@@@?$_Compressed_pair@U?$default_delete@VTest@test@@@std@@PAVTest@test@@$00@std@@QAE@U_One_then_variadic_args_t@1@$$QAU?$default_delete@VTestBatchColor@test@@@1@$$QAPAVTestBatchColor@test@@@Z 00539f50 f i Application.obj
 0002:00026fe0       ??$?0U?$default_delete@VTestBatchColor@test@@@std@@PAVTestBatchColor@test@@@?$_Compressed_pair@U?$default_delete@VTestBatchColor@test@@@std@@PAVTestBatchColor@test@@$00@std@@QAE@U_One_then_variadic_args_t@1@$$QAU?$default_delete@VTestBatchColor@test@@@1@$$QAPAVTestBatchColor@test@@@Z 00539fe0 f i Application.obj
 0002:00027060       ??$?0U?$default_delete@VTestBatchMove@test@@@std@@$0A@@?$unique_ptr@VTestBatchMove@test@@U?$default_delete@VTestBatchMove@test@@@std@@@std@@QAE@$$QAV01@@Z 0053a060 f i Application.obj
 0002:00027100       ??$?0U?$default_delete@VTestBatchMove@test@@@std@@$0A@@?$unique_ptr@VTestBatchMove@test@@U?$default_delete@VTestBatchMove@test@@@std@@@std@@QAE@PAVTestBatchMove@test@@@Z 0053a100 f i Application.obj
 0002:00027170       ??$?0U?$default_delete@VTestBatchMove@test@@@std@@PAVTestBatchMove@test@@@?$_Compressed_pair@U?$default_delete@VTest@test@@@std@@PAVTest@test@@$00@std@@QAE@U_One_then_variadic_args_t@1@$$QAU?$default_delete@VTestBatchMove@test@@@1@$$QAPAVTestBatchMove@test@@@Z 0053a170 f i Application.obj
 0002:00027200       ??$?0U?$default_delete@VTestBatchMove@test@@@std@@PAVTestBatchMove@test@@@?$_Compressed_pair@U?$default_delete@VTestBatchMove@test@@@std@@PAVTestBatchMove@test@@$00@std@@QAE@U_One_then_variadic_args_t@1@$$QAU?$default_delete@VTestBatchMove@test@@@1@$$QAPAVTestBatchMove@test@@@Z 0053a200 f i Application.obj
 0002:00027280       ??$?0U?$default_delete@VTestBatchTexture@test@@@std@@$0A@@?$unique_ptr@VTestBatchTexture@test@@U?$default_delete@VTestBatchTexture@test@@@std@@@std@@QAE@$$QAV01@@Z 0053a280 f i Application.obj
 0002:00027320       ??$?0U?$default_delete@VTestBatchTexture@test@@@std@@$0A@@?$unique_ptr@VTestBatchTexture@test@@U?$default_delete@VTestBatchTexture@test@@@std@@@std@@QAE@PAVTestBatchTexture@test@@@Z 0053a320 f i Application.obj
 0002:00027390       ??$?0U?$default_delete@VTestBatchTexture@test@@@std@@PAVTestBatchTexture@test@@@?$_Compressed_pair@U?$default_delete@VTest@test@@@std@@PAVTest@test@@$00@std@@QAE@U_One_then_variadic_args_t@1@$$QAU?$default_delete@VTestBatchTexture@test@@@1@$$QAPAVTestBatchTexture@test@@@Z 0053a390 f i Application.obj
 0002:00027420       ??$?0U?$default_delete@VTestBatchTexture@test@@@std@@PAVTestBatchTexture@test@@@?$_Compressed_pair@U?$default_delete@VTestBatchTexture@test@@@std@@PAVTestBatchTexture@test@@$00@std@@QAE@U_One_then_variadic_args_t@1@$$QAU?$default_delete@VTestBatchTexture@test@@@1@$$QAPAVTestBatchTexture@test@@@Z 0053a420 f i Application.obj
 0002:000274a0       ??$?0U?$default_delete@VTestChangeTexture@test@@@std@@$0A@@?$unique_ptr@VTestChangeTexture@test@@U?$default_delete@VTestChangeTexture@test@@@std@@@std@@QAE@$$QAV01@@Z 0053a4a0 f i Application.obj
 0002:00027540       ??$?0U?$default_delete@VTestChangeTexture@test@@@std@@$0A@@?$unique_ptr@VTestChangeTexture@test@@U?$default_delete@VTestChangeTexture@test@@@std@@@std@@QAE@PAVTestChangeTexture@test@@@Z 0053a540 f i Application.obj
 0002:000275b0       ??$?0U?$default_delete@VTestChangeTexture@test@@@std@@PAVTestChangeTexture@test@@@?$_Compressed_pair@U?$default_delete@VTest@test@@@std@@PAVTest@test@@$00@std@@QAE@U_One_then_variadic_args_t@1@$$QAU?$default_delete@VTestChangeTexture@test@@@1@$$QAPAVTestChangeTexture@test@@@Z 0053a5b0 f i Application.obj
 0002:00027640       ??$?0U?$default_delete@VTestChangeTexture@test@@@std@@PAVTestChangeTexture@test@@@?$_Compressed_pair@U?$default_delete@VTestChangeTexture@test@@@std@@PAVTestChangeTexture@test@@$00@std@@QAE@U_One_then_variadic_args_t@1@$$QAU?$default_delete@VTestChangeTexture@test@@@1@$$QAPAVTestChangeTexture@test@@@Z 0053a640 f i Application.obj
 0002:000276c0       ??$?0U?$default_delete@VTestClearColor@test@@@std@@$0A@@?$unique_ptr@VTestClearColor@test@@U?$default_delete@VTestClearColor@test@@@std@@@std@@QAE@$$QAV01@@Z 0053a6c0 f i Application.obj
 0002:00027760       ??$?0U?$default_delete@VTestClearColor@test@@@std@@$0A@@?$unique_ptr@VTestClearColor@test@@U?$default_delete@VTestClearColor@test@@@std@@@std@@QAE@PAVTestClearColor@test@@@Z 0053a760 f i Application.obj
 0002:000277d0       ??$?0U?$default_delete@VTestClearColor@test@@@std@@PAVTestClearColor@test@@@?$_Compressed_pair@U?$default_delete@VTest@test@@@std@@PAVTest@test@@$00@std@@QAE@U_One_then_variadic_args_t@1@$$QAU?$default_delete@VTestClearColor@test@@@1@$$QAPAVTestClearColor@test@@@Z 0053a7d0 f i Application.obj
 0002:00027860       ??$?0U?$default_delete@VTestClearColor@test@@@std@@PAVTestClearColor@test@@@?$_Compressed_pair@U?$default_delete@VTestClearColor@test@@@std@@PAVTestClearColor@test@@$00@std@@QAE@U_One_then_variadic_args_t@1@$$QAU?$default_delete@VTestClearColor@test@@@1@$$QAPAVTestClearColor@test@@@Z 0053a860 f i Application.obj
 0002:000278e0       ??$?0V<lambda_1>@?1???$Register@VTestBatchColor@test@@@TestMenu@test@@QAEXABV?$basic_string@DU?$char_traits@D@std@@V?$allocator@D@2@@std@@@Z@$0A@@?$_Func_impl_no_alloc@V<lambda_1>@?1???$Register@VTestBatchColor@test@@@TestMenu@test@@QAEXABV?$basic_string@DU?$char_traits@D@std@@V?$allocator@D@2@@std@@@Z@V?$unique_ptr@VTest@test@@U?$default_delete@VTest@test@@@std@@@5@$$V@std@@QAE@$$QAV<lambda_1>@?1???$Register@VTestBatchColor@test@@@TestMenu@test@@QAEXABV?$basic_string@DU?$char_traits@D@std@@V?$allocator@D@2@@1@@Z@@Z 0053a8e0 f i Application.obj
 0002:00027960       ??$?0V<lambda_1>@?1???$Register@VTestBatchColor@test@@@TestMenu@test@@QAEXABV?$basic_string@DU?$char_traits@D@std@@V?$allocator@D@2@@std@@@Z@$0A@@?$function@$$A6A?AV?$unique_ptr@VTest@test@@U?$default_delete@VTest@test@@@std@@@std@@XZ@std@@QAE@$$QAV<lambda_1>@?1???$Register@VTestBatchColor@test@@@TestMenu@test@@QAEXABV?$basic_string@DU?$char_traits@D@std@@V?$allocator@D@2@@1@@Z@@Z 0053a960 f i Application.obj
 0002:00027a20       ??$?0V<lambda_1>@?1???$Register@VTestBatchMove@test@@@TestMenu@test@@QAEXABV?$basic_string@DU?$char_traits@D@std@@V?$allocator@D@2@@std@@@Z@$0A@@?$_Func_impl_no_alloc@V<lambda_1>@?1???$Register@VTestBatchMove@test@@@TestMenu@test@@QAEXABV?$basic_string@DU?$char_traits@D@std@@V?$allocator@D@2@@std@@@Z@V?$unique_ptr@VTest@test@@U?$default_delete@VTest@test@@@std@@@5@$$V@std@@QAE@$$QAV<lambda_1>@?1???$Register@VTestBatchMove@test@@@TestMenu@test@@QAEXABV?$basic_string@DU?$char_traits@D@std@@V?$allocator@D@2@@1@@Z@@Z 0053aa20 f i Application.obj
 0002:00027aa0       ??$?0V<lambda_1>@?1???$Register@VTestBatchMove@test@@@TestMenu@test@@QAEXABV?$basic_string@DU?$char_traits@D@std@@V?$allocator@D@2@@std@@@Z@$0A@@?$function@$$A6A?AV?$unique_ptr@VTest@test@@U?$default_delete@VTest@test@@@std@@@std@@XZ@std@@QAE@$$QAV<lambda_1>@?1???$Register@VTestBatchMove@test@@@TestMenu@test@@QAEXABV?$basic_string@DU?$char_traits@D@std@@V?$allocator@D@2@@1@@Z@@Z 0053aaa0 f i Application.obj
 0002:00027b60       ??$?0V<lambda_1>@?1???$Register@VTestBatchTexture@test@@@TestMenu@test@@QAEXABV?$basic_string@DU?$char_traits@D@std@@V?$allocator@D@2@@std@@@Z@$0A@@?$_Func_impl_no_alloc@V<lambda_1>@?1???$Register@VTestBatchTexture@test@@@TestMenu@test@@QAEXABV?$basic_string@DU?$char_traits@D@std@@V?$allocator@D@2@@std@@@Z@V?$unique_ptr@VTest@test@@U?$default_delete@VTest@test@@@std@@@5@$$V@std@@QAE@$$QAV<lambda_1>@?1???$Register@VTestBatchTexture@test@@@TestMenu@test@@QAEXABV?$basic_string@DU?$char_traits@D@std@@V?$allocator@D@2@@1@@Z@@Z 0053ab60 f i Application.obj
 0002:00027be0       ??$?0V<lambda_1>@?1???$Register@VTestBatchTexture@test@@@TestMenu@test@@QAEXABV?$basic_string@DU?$char_traits@D@std@@V?$allocator@D@2@@std@@@Z@$0A@@?$function@$$A6A?AV?$unique_ptr@VTest@test@@U?$default_delete@VTest@test@@@std@@@std@@XZ@std@@QAE@$$QAV<lambda_1>@?1???$Register@VTestBatchTexture@test@@@TestMenu@test@@QAEXABV?$basic_string@DU?$char_traits@D@std@@V?$allocator@D@2@@1@@Z@@Z 0053abe0 f i Application.obj
 0002:00027ca0       ??$?0V<lambda_1>@?1???$Register@VTestChangeTexture@test@@@TestMenu@test@@QAEXABV?$basic_string@DU?$char_traits@D@std@@V?$allocator@D@2@@std@@@Z@$0A@@?$_Func_impl_no_alloc@V<lambda_1>@?1???$Register@VTestChangeTexture@test@@@TestMenu@test@@QAEXABV?$basic_string@DU?$char_traits@D@std@@V?$allocator@D@2@@std@@@Z@V?$unique_ptr@VTest@test@@U?$default_delete@VTest@test@@@std@@@5@$$V@std@@QAE@$$QAV<lambda_1>@?1???$Register@VTestChangeTexture@test@@@TestMenu@test@@QAEXABV?$basic_string@DU?$char_traits@D@std@@V?$allocator@D@2@@1@@Z@@Z 0053aca0 f i Application.obj
 0002:00027d20       ??$?0V<lambda_1>@?1???$Register@VTestChangeTexture@test@@@TestMenu@test@@QAEXABV?$basic_string@DU?$char_traits@D@std@@V?$allocator@D@2@@std@@@Z@$0A@@?$function@$$A6A?AV?$unique_ptr@VTest@test@@U?$default_delete@VTest@test@@@std@@@std@@XZ@std@@QAE@$$QAV<lambda_1>@?1???$Register@VTestChangeTexture@test@@@TestMenu@test@@QAEXABV?$basic_string@DU?$char_traits@D@std@@V?$allocator@D@2@@1@@Z@@Z 0053ad20 f i Application.obj
 0002:00027de0       ??$?0V<lambda_1>@?1???$Register@VTestClearColor@test@@@TestMenu@test@@QAEXABV?$basic_string@DU?$char_traits@D@std@@V?$allocator@D@2@@std@@@Z@$0A@@?$_Func_impl_no_alloc@V<lambda_1>@?1???$Register@VTestClearColor@test@@@TestMenu@test@@QAEXABV?$basic_string@DU?$char_traits@D@std@@V?$allocator@D@2@@std@@@Z@V?$unique_ptr@VTest@test@@U?$default_delete@VTest@test@@@std@@@5@$$V@std@@QAE@$$QAV<lambda_1>@?1???$Register@VTestClearColor@test@@@TestMenu@test@@QAEXABV?$basic_string@DU?$char_traits@D@std@@V?$allocator@D@2@@1@@Z@@Z 0053ade0 f i Application.obj
 0002:00027e60       ??$?0V<lambda_1>@?1???$Register@VTestClearColor@test@@@TestMenu@test@@QAEXABV?$basic_string@DU?$char_traits@D@std@@V?$allocator@D@2@@std@@@Z@$0A@@?$function@$$A6A?AV?$unique_ptr@VTest@test@@U?$default_delete@VTest@test@@@std@@@std@@XZ@std@@QAE@$$QAV<lambda_1>@?1???$Register@VTestClearColor@test@@@TestMenu@test@@QAEXABV?$basic_string@DU?$char_traits@D@std@@V?$allocator@D@2@@1@@Z@@Z 0053ae60 f i Application.obj
 0002:00027f20       ??$?0V?$basic_string@DU?$char_traits@D@std@@V?$allocator@D@2@@std@@V<lambda_1>@?1???$Register@VTestBatchColor@test@@@TestMenu@test@@QAEXABV01@@Z@$0A@@?$pair@V?$basic_string@DU?$char_traits@D@std@@V?$allocator@D@2@@std@@V?$function@$$A6A?AV?$unique_ptr@VTest@test@@U?$default_delete@VTest@test@@@std@@@std@@XZ@2@@std@@QAE@$$QAU?$pair@V?$basic_string@DU?$char_traits@D@std@@V?$allocator@D@2@@std@@V<lambda_1>@?1???$Register@VTestBatchColor@test@@@TestMenu@test@@QAEXABV12@@Z@@1@@Z 0053af20 f i Application.obj
 0002:00028000       ??$?0V?$basic_string@DU?$char_traits@D@std@@V?$allocator@D@2@@std@@V<lambda_1>@?1???$Register@VTestBatchMove@test@@@TestMenu@test@@QAEXABV01@@Z@$0A@@?$pair@V?$basic_string@DU?$char_traits@D@std@@V?$allocator@D@2@@std@@V?$function@$$A6A?AV?$unique_ptr@VTest@test@@U?$default_delete@VTest@test@@@std@@@std@@XZ@2@@std@@QAE@$$QAU?$pair@V?$basic_string@DU?$char_traits@D@std@@V?$allocator@D@2@@std@@V<lambda_1>@?1???$Register@VTestBatchMove@test@@@TestMenu@test@@QAEXABV12@@Z@@1@@Z 0053b000 f i Application.obj
 0002:000280e0       ??$?0V?$basic_string@DU?$char_traits@D@std@@V?$allocator@D@2@@std@@V<lambda_1>@?1???$Register@VTestBatchTexture@test@@@TestMenu@test@@QAEXABV01@@Z@$0A@@?$pair@V?$basic_string@DU?$char_traits@D@std@@V?$allocator@D@2@@std@@V?$function@$$A6A?AV?$unique_ptr@VTest@test@@U?$default_delete@VTest@test@@@std@@@std@@XZ@2@@std@@QAE@$$QAU?$pair@V?$basic_string@DU?$char_traits@D@std@@V?$allocator@D@2@@std@@V<lambda_1>@?1???$Register@VTestBatchTexture@test@@@TestMenu@test@@QAEXABV12@@Z@@1@@Z 0053b0e0 f i Application.obj
 0002:000281c0       ??$?0V?$basic_string@DU?$char_traits@D@std@@V?$allocator@D@2@@std@@V<lambda_1>@?1???$Register@VTestChangeTexture@test@@@TestMenu@test@@QAEXABV01@@Z@$0A@@?$pair@V?$basic_string@DU?$char_traits@D@std@@V?$allocator@D@2@@std@@V?$function@$$A6A?AV?$unique_ptr@VTest@test@@U?$default_delete@VTest@test@@@std@@@std@@XZ@2@@std@@QAE@$$QAU?$pair@V?$basic_string@DU?$char_traits@D@std@@V?$allocator@D@2@@std@@V<lambda_1>@?1???$Register@VTestChangeTexture@test@@@TestMenu@test@@QAEXABV12@@Z@@1@@Z 0053b1c0 f i Application.obj
 0002:000282a0       ??$?0V?$basic_string@DU?$char_traits@D@std@@V?$allocator@D@2@@std@@V<lambda_1>@?1???$Register@VTestClearColor@test@@@TestMenu@test@@QAEXABV01@@Z@$0A@@?$pair@V?$basic_string@DU?$char_traits@D@std@@V?$allocator@D@2@@std@@V?$function@$$A6A?AV?$unique_ptr@VTest@test@@U?$default_delete@VTest@test@@@std@@@std@@XZ@2@@std@@QAE@$$QAU?$pair@V?$basic_string@DU?$char_traits@D@std@@V?$allocator@D@2@@std@@V<lambda_1>@?1???$Register@VTestClearColor@test@@@TestMenu@test@@QAEXABV12@@Z@@1@@Z 0053b2a0 f i Application.obj
 0002:00028380       ??$?0VTestBatchColor@test@@$0A@@?$default_delete@VTest@test@@@std@@QAE@ABU?$default_delete@VTestBatchColor@test@@@1@@Z 0053b380 f i Application.obj
 0002:000283e0       ??$?0VTestBatchColor@test@@U?$default_delete@VTestBatchColor@test@@@std@@$0A@@?$unique_ptr@VTest@test@@U?$default_delete@VTest@test@@@std@@@std@@QAE@$$QAV?$unique_ptr@VTestBatchColor@test@@U?$default_delete@VTestBatchColor@test@@@std@@@1@@Z 0053b3e0 f i Application.obj
 0002:00028480       ??$?0VTestBatchMove@test@@$0A@@?$default_delete@VTest@test@@@std@@QAE@ABU?$default_delete@VTestBatchMove@test@@@1@@Z 0053b480 f i Application.obj
 0002:000284e0       ??$?0VTestBatchMove@test@@U?$default_delete@VTestBatchMove@test@@@std@@$0A@@?$unique_ptr@VTest@test@@U?$default_delete@VTest@test@@@std@@@std@@QAE@$$QAV?$unique_ptr@VTestBatchMove@test@@U?$default_delete@VTestBatchMove@test@@@std@@@1@@Z 0053b4e0 f i Application.obj
 0002:00028580       ??$?0VTestBatchTexture@test@@$0A@@?$default_delete@VTest@test@@@std@@QAE@ABU?$default_delete@VTestBatchTexture@test@@@1@@Z 0053b580 f i Application.obj
 0002:000285e0       ??$?0VTestBatchTexture@test@@U?$default_delete@VTestBatchTexture@test@@@std@@$0A@@?$unique_ptr@VTest@test@@U?$default_delete@VTest@test@@@std@@@std@@QAE@$$QAV?$unique_ptr@VTestBatchTexture@test@@U?$default_delete@VTestBatchTexture@test@@@std@@@1@@Z 0053b5e0 f i Application.obj
 0002:00028680       ??$?0VTestChangeTexture@test@@$0A@@?$default_delete@VTest@test@@@std@@QAE@ABU?$default_delete@VTestChangeTexture@test@@@1@@Z 0053b680 f i Application.obj
 0002:000286e0       ??$?0VTestChangeTexture@test@@U?$default_delete@VTestChangeTexture@test@@@std@@$0A@@?$unique_ptr@VTest@test@@U?$default_delete@VTest@test@@@std@@@std@@QAE@$$QAV?$unique_ptr@VTestChangeTexture@test@@U?$default_delete@VTestChangeTexture@test@@@std@@@1@@Z 0053b6e0 f i Application.obj
 0002:00028780       ??$?0VTestClearColor@test@@$0A@@?$default_delete@VTest@test@@@std@@QAE@ABU?$default_delete@VTestClearColor@test@@@1@@Z 0053b780 f i Application.obj
 0002:000287e0       ??$?0VTestClearColor@test@@U?$default_delete@VTestClearColor@test@@@std@@$0A@@?$unique_ptr@VTest@test@@U?$default_delete@VTest@test@@@std@@@std@@QAE@$$QAV?$unique_ptr@VTestClearColor@test@@U?$default_delete@VTestClearColor@test@@@std@@@1@@Z 0053b7e0 f i Application.obj
 0002:00028880       ??$?6U?$char_traits@D@std@@@std@@YAAAV?$basic_ostream@DU?$char_traits@D@std@@@0@AAV10@PBE@Z 0053b880 f i Application.obj
 0002:000288e0       ??$Register@VTestBatchColor@test@@@TestMenu@test@@QAEXABV?$basic_string@DU?$char_traits@D@std@@V?$allocator@D@2@@std@@@Z 0053b8e0 f i Application.obj
 0002:00028a10       ??$Register@VTestBatchMove@test@@@TestMenu@test@@QAEXABV?$basic_string@DU?$char_traits@D@std@@V?$allocator@D@2@@std@@@Z 0053ba10 f i Application.obj
 0002:00028b40       ??$Register@VTestBatchTexture@test@@@TestMenu@test@@QAEXABV?$basic_string@DU?$char_traits@D@std@@V?$allocator@D@2@@std@@@Z 0053bb40 f i Application.obj
 0002:00028c70       ??$Register@VTestChangeTexture@test@@@TestMenu@test@@QAEXABV?$basic_string@DU?$char_traits@D@std@@V?$allocator@D@2@@std@@@Z 0053bc70 f i Application.obj
 0002:00028da0       ??$Register@VTestClearColor@test@@@TestMenu@test@@QAEXABV?$basic_string@DU?$char_traits@D@std@@V?$allocator@D@2@@std@@@Z 0053bda0 f i Application.obj
 0002:00028ed0       ??$_Call@AAV<lambda_1>@?1???$Register@VTestBatchColor@test@@@TestMenu@test@@QAEXABV?$basic_string@DU?$char_traits@D@std@@V?$allocator@D@2@@std@@@Z@$$V@?$_Invoker_ret@V?$unique_ptr@VTest@test@@U?$default_delete@VTest@test@@@std@@@std@@@std@@SA?AV?$unique_ptr@VTest@test@@U?$default_delete@VTest@test@@@std@@@1@AAV<lambda_1>@?1???$Register@VTestBatchColor@test@@@TestMenu@test@@QAEXABV?$basic_string@DU?$char_traits@D@std@@V?$allocator@D@2@@1@@Z@@Z 0053bed0 f i Application.obj
 0002:00028f80       ??$_Call@AAV<lambda_1>@?1???$Register@VTestBatchMove@test@@@TestMenu@test@@QAEXABV?$basic_string@DU?$char_traits@D@std@@V?$allocator@D@2@@std@@@Z@$$V@?$_Invoker_ret@V?$unique_ptr@VTest@test@@U?$default_delete@VTest@test@@@std@@@std@@@std@@SA?AV?$unique_ptr@VTest@test@@U?$default_delete@VTest@test@@@std@@@1@AAV<lambda_1>@?1???$Register@VTestBatchMove@test@@@TestMenu@test@@QAEXABV?$basic_string@DU?$char_traits@D@std@@V?$allocator@D@2@@1@@Z@@Z 0053bf80 f i Application.obj
 0002:00029030       ??$_Call@AAV<lambda_1>@?1???$Register@VTestBatchTexture@test@@@TestMenu@test@@QAEXABV?$basic_string@DU?$char_traits@D@std@@V?$allocator@D@2@@std@@@Z@$$V@?$_Invoker_ret@V?$unique_ptr@VTest@test@@U?$default_delete@VTest@test@@@std@@@std@@@std@@SA?AV?$unique_ptr@VTest@test@@U?$default_delete@VTest@test@@@std@@@1@AAV<lambda_1>@?1???$Register@VTestBatchTexture@test@@@TestMenu@test@@QAEXABV?$basic_string@DU?$char_traits@D@std@@V?$allocator@D@2@@1@@Z@@Z 0053c030 f i Application.obj
 0002:000290e0       ??$_Call@AAV<lambda_1>@?1???$Register@VTestChangeTexture@test@@@TestMenu@test@@QAEXABV?$basic_string@DU?$char_traits@D@std@@V?$allocator@D@2@@std@@@Z@$$V@?$_Invoker_ret@V?$unique_ptr@VTest@test@@U?$default_delete@VTest@test@@@std@@@std@@@std@@SA?AV?$unique_ptr@VTest@test@@U?$default_delete@VTest@test@@@std@@@1@AAV<lambda_1>@?1???$Register@VTestChangeTexture@test@@@TestMenu@test@@QAEXABV?$basic_string@DU?$char_traits@D@std@@V?$allocator@D@2@@1@@Z@@Z 0053c0e0 f i Application.obj
 0002:00029190       ??$_Call@AAV<lambda_1>@?1???$Register@VTestClearColor@test@@@TestMenu@test@@QAEXABV?$basic_string@DU?$char_traits@D@std@@V?$allocator@D@2@@std@@@Z@$$V@?$_Invoker_ret@V?$unique_ptr@VTest@test@@U?$default_delete@VTest@test@@@std@@@std@@@std@@SA?AV?$unique_ptr@VTest@test@@U?$default_delete@VTest@test@@@std@@@1@AAV<lambda_1>@?1???$Register@VTestClearColor@test@@@TestMenu@test@@QAEXABV?$basic_string@DU?$char_traits@D@std@@V?$allocator@D@2@@1@@Z@@Z 0053c190 f i Application.obj
 0002:00029240       ??$_Construct@$00PBD@?$basic_string@DU?$char_traits@D@std@@V?$allocator@D@2@@std@@AAEXQBDI@Z 0053c240 f i Application.obj
 0002:00029470       ??$_Construct_in_place@U?$pair@V?$basic_string@DU?$char_traits@D@std@@V?$allocator@D@2@@std@@V?$function@$$A6A?AV?$unique_ptr@VTest@test@@U?$default_delete@VTest@test@@@std@@@std@@XZ@2@@std@@U12@@std@@YAXAAU?$pair@V?$basic_string@DU?$char_traits@D@std@@V?$allocator@D@2@@std@@V?$function@$$A6A?AV?$unique_ptr@VTest@test@@U?$default_delete@VTest@test@@@std@@@std@@XZ@2@@0@$$QAU10@@Z 0053c470 f i Application.obj
 0002:00029510       ??$_Construct_n@ABM@?$vector@MV?$allocator@M@std@@@std@@AAEXIABM@Z 0053c510 f i Application.obj
 0002:000296a0       ??$_Convert_size@II@std@@YAII@Z 0053c6a0 f i Application.obj
 0002:000296f0       ??$_Copy_construct_from@VIndexBuffer@@@?$_Ptr_base@VIndexBuffer@@@std@@IAEXABV?$shared_ptr@VIndexBuffer@@@1@@Z 0053c6f0 f i Application.obj
 0002:00029770       ??$_Copy_construct_from@VShader@@@?$_Ptr_base@VShader@@@std@@IAEXABV?$shared_ptr@VShader@@@1@@Z 0053c770 f i Application.obj
 0002:000297f0       ??$_Copy_construct_from@VTexture@@@?$_Ptr_base@VTexture@@@std@@IAEXABV?$shared_ptr@VTexture@@@1@@Z 0053c7f0 f i Application.obj
 0002:00029870       ??$_Copy_construct_from@VVertexArray@@@?$_Ptr_base@VVertexArray@@@std@@IAEXABV?$shared_ptr@VVertexArray@@@1@@Z 0053c870 f i Application.obj
 0002:000298f0       ??$_Copy_construct_from@VVertexBuffer@@@?$_Ptr_base@VVertexBuffer@@@std@@IAEXABV?$shared_ptr@VVertexBuffer@@@1@@Z 0053c8f0 f i Application.obj
 0002:00029970       ??$_Deallocate@$03$0A@@std@@YAXPAXI@Z 0053c970 f i Application.obj
 0002:00029a30       ??$_Destroy_range@V?$allocator@M@std@@@std@@YAXPAMQAMAAV?$allocator@M@0@@Z 0053ca30 f i Application.obj
 0002:00029a80       ??$_Destroy_range@V?$allocator@U?$pair@V?$basic_string@DU?$char_traits@D@std@@V?$allocator@D@2@@std@@V?$function@$$A6A?AV?$unique_ptr@VTest@test@@U?$default_delete@VTest@test@@@std@@@std@@XZ@2@@std@@@std@@@std@@YAXPAU?$pair@V?$basic_string@DU?$char_traits@D@std@@V?$allocator@D@2@@std@@V?$function@$$A6A?AV?$unique_ptr@VTest@test@@U?$default_delete@VTest@test@@@std@@@std@@XZ@2@@0@QAU10@AAV?$allocator@U?$pair@V?$basic_string@DU?$char_traits@D@std@@V?$allocator@D@2@@std@@V?$function@$$A6A?AV?$unique_ptr@VTest@test@@U?$default_delete@VTest@test@@@std@@@std@@XZ@2@@std@@@0@@Z 0053ca80 f i Application.obj
 0002:00029b40       ??$_Emplace_back@ABM@?$_Uninitialized_backout_al@V?$allocator@M@std@@@std@@QAEXABM@Z 0053cb40 f i Application.obj
 0002:00029be0       ??$_Emplace_back@U?$pair@V?$basic_string@DU?$char_traits@D@std@@V?$allocator@D@2@@std@@V?$function@$$A6A?AV?$unique_ptr@VTest@test@@U?$default_delete@VTest@test@@@std@@@std@@XZ@2@@std@@@?$_Uninitialized_backout_al@V?$allocator@U?$pair@V?$basic_string@DU?$char_traits@D@std@@V?$allocator@D@2@@std@@V?$function@$$A6A?AV?$unique_ptr@VTest@test@@U?$default_delete@VTest@test@@@std@@@std@@XZ@2@@std@@@std@@@std@@QAEX$$QAU?$pair@V?$basic_string@DU?$char_traits@D@std@@V?$allocator@D@2@@std@@V?$function@$$A6A?AV?$unique_ptr@VTest@test@@U?$default_delete@VTest@test@@@std@@@std@@XZ@2@@1@@Z 0053cbe0 f i Application.obj
 0002:00029c80       ??$_Emplace_back_with_unused_capacity@U?$pair@V?$basic_string@DU?$char_traits@D@std@@V?$allocator@D@2@@std@@V?$function@$$A6A?AV?$unique_ptr@VTest@test@@U?$default_delete@VTest@test@@@std@@@std@@XZ@2@@std@@@?$vector@U?$pair@V?$basic_string@DU?$char_traits@D@std@@V?$allocator@D@2@@std@@V?$function@$$A6A?AV?$unique_ptr@VTest@test@@U?$default_delete@VTest@test@@@std@@@std@@XZ@2@@std@@V?$allocator@U?$pair@V?$basic_string@DU?$char_traits@D@std@@V?$allocator@D@2@@std@@V?$function@$$A6A?AV?$unique_ptr@VTest@test@@U?$default_delete@VTest@test@@@std@@@std@@XZ@2@@std@@@2@@std@@AAEAAU?$pair@V?$basic_string@DU?$char_traits@D@std@@V?$allocator@D@2@@std@@V?$function@$$A6A?AV?$unique_ptr@VTest@test@@U?$default_delete@VTest@test@@@std@@@std@@XZ@2@@1@$$QAU21@@Z 0053cc80 f i Application.obj
 0002:00029d40       ??$_Emplace_one_at_back@U?$pair@V?$basic_string@DU?$char_traits@D@std@@V?$allocator@D@2@@std@@V?$function@$$A6A?AV?$unique_ptr@VTest@test@@U?$default_delete@VTest@test@@@std@@@std@@XZ@2@@std@@@?$vector@U?$pair@V?$basic_string@DU?$char_traits@D@std@@V?$allocator@D@2@@std@@V?$function@$$A6A?AV?$unique_ptr@VTest@test@@U?$default_delete@VTest@test@@@std@@@std@@XZ@2@@std@@V?$allocator@U?$pair@V?$basic_string@DU?$char_traits@D@std@@V?$allocator@D@2@@std@@V?$function@$$A6A?AV?$unique_ptr@VTest@test@@U?$default_delete@VTest@test@@@std@@@std@@XZ@2@@std@@@2@@std@@AAEAAU?$pair@V?$basic_string@DU?$char_traits@D@std@@V?$allocator@D@2@@std@@V?$function@$$A6A?AV?$unique_ptr@VTest@test@@U?$default_delete@VTest@test@@@std@@@std@@XZ@2@@1@$$QAU21@@Z 0053cd40 f i Application.obj
 0002:00029e00       ??$_Emplace_reallocate@U?$pair@V?$basic_string@DU?$char_traits@D@std@@V?$allocator@D@2@@std@@V?$function@$$A6A?AV?$unique_ptr@VTest@test@@U?$default_delete@VTest@test@@@std@@@std@@XZ@2@@std@@@?$vector@U?$pair@V?$basic_string@DU?$char_traits@D@std@@V?$allocator@D@2@@std@@V?$function@$$A6A?AV?$unique_ptr@VTest@test@@U?$default_delete@VTest@test@@@std@@@std@@XZ@2@@std@@V?$allocator@U?$pair@V?$basic_string@DU?$char_traits@D@std@@V?$allocator@D@2@@std@@V?$function@$$A6A?AV?$unique_ptr@VTest@test@@U?$default_delete@VTest@test@@@std@@@std@@XZ@2@@std@@@2@@std@@AAEPAU?$pair@V?$basic_string@DU?$char_traits@D@std@@V?$allocator@D@2@@std@@V?$function@$$A6A?AV?$unique_ptr@VTest@test@@U?$default_delete@VTest@test@@@std@@@std@@XZ@2@@1@QAU21@$$QAU21@@Z 0053ce00 f i Application.obj
 0002:0002a0e0       ??$_Fill_zero_memset@PAM@std@@YAXPAMI@Z 0053d0e0 f i Application.obj
 0002:0002a150       ??$_Get_size_of_n@$0EA@@std@@YAII@Z 0053d150 f i Application.obj
 0002:0002a1c0       ??$_Get_unwrapped@ABQAU?$pair@V?$basic_string@DU?$char_traits@D@std@@V?$allocator@D@2@@std@@V?$function@$$A6A?AV?$unique_ptr@VTest@test@@U?$default_delete@VTest@test@@@std@@@std@@XZ@2@@std@@@std@@YA?A_TABQAU?$pair@V?$basic_string@DU?$char_traits@D@std@@V?$allocator@D@2@@std@@V?$function@$$A6A?AV?$unique_ptr@VTest@test@@U?$default_delete@VTest@test@@@std@@@std@@XZ@2@@0@@Z 0053d1c0 f i Application.obj
 0002:0002a210       ??$_Getvals@_W@?$time_get@DV?$istreambuf_iterator@DU?$char_traits@D@std@@@std@@@std@@IAEX_WABV_Locinfo@1@@Z 0053d210 f i Application.obj
 0002:0002a3a0       ??$_Getvals@_W@?$time_get@_WV?$istreambuf_iterator@_WU?$char_traits@_W@std@@@std@@@std@@IAEX_WABV_Locinfo@1@@Z 0053d3a0 f i Application.obj
 0002:0002a530       ??$_Is_all_bits_zero@M@std@@YA_NABM@Z 0053d530 f i Application.obj
 0002:0002a610       ??$_Maklocstr@D@std@@YAPADPBDPADABU_Cvtvec@@@Z 0053d610 f i Application.obj
 0002:0002a6f0       ??$_Maklocstr@_W@std@@YAPA_WPBDPA_WABU_Cvtvec@@@Z 0053d6f0 f i Application.obj
 0002:0002a920       ??$_Reset@V<lambda_1>@?1???$Register@VTestBatchColor@test@@@TestMenu@test@@QAEXABV?$basic_string@DU?$char_traits@D@std@@V?$allocator@D@2@@std@@@Z@@?$_Func_class@V?$unique_ptr@VTest@test@@U?$default_delete@VTest@test@@@std@@@std@@$$V@std@@IAEX$$QAV<lambda_1>@?1???$Register@VTestBatchColor@test@@@TestMenu@test@@QAEXABV?$basic_string@DU?$char_traits@D@std@@V?$allocator@D@2@@1@@Z@@Z 0053d920 f i Application.obj
 0002:0002a9d0       ??$_Reset@V<lambda_1>@?1???$Register@VTestBatchMove@test@@@TestMenu@test@@QAEXABV?$basic_string@DU?$char_traits@D@std@@V?$allocator@D@2@@std@@@Z@@?$_Func_class@V?$unique_ptr@VTest@test@@U?$default_delete@VTest@test@@@std@@@std@@$$V@std@@IAEX$$QAV<lambda_1>@?1???$Register@VTestBatchMove@test@@@TestMenu@test@@QAEXABV?$basic_string@DU?$char_traits@D@std@@V?$allocator@D@2@@1@@Z@@Z 0053d9d0 f i Application.obj
 0002:0002aa80       ??$_Reset@V<lambda_1>@?1???$Register@VTestBatchTexture@test@@@TestMenu@test@@QAEXABV?$basic_string@DU?$char_traits@D@std@@V?$allocator@D@2@@std@@@Z@@?$_Func_class@V?$unique_ptr@VTest@test@@U?$default_delete@VTest@test@@@std@@@std@@$$V@std@@IAEX$$QAV<lambda_1>@?1???$Register@VTestBatchTexture@test@@@TestMenu@test@@QAEXABV?$basic_string@DU?$char_traits@D@std@@V?$allocator@D@2@@1@@Z@@Z 0053da80 f i Application.obj
 0002:0002ab30       ??$_Reset@V<lambda_1>@?1???$Register@VTestChangeTexture@test@@@TestMenu@test@@QAEXABV?$basic_string@DU?$char_traits@D@std@@V?$allocator@D@2@@std@@@Z@@?$_Func_class@V?$unique_ptr@VTest@test@@U?$default_delete@VTest@test@@@std@@@std@@$$V@std@@IAEX$$QAV<lambda_1>@?1???$Register@VTestChangeTexture@test@@@TestMenu@test@@QAEXABV?$basic_string@DU?$char_traits@D@std@@V?$allocator@D@2@@1@@Z@@Z 0053db30 f i Application.obj
 0002:0002abe0       ??$_Reset@V<lambda_1>@?1???$Register@VTestClearColor@test@@@TestMenu@test@@QAEXABV?$basic_string@DU?$char_traits@D@std@@V?$allocator@D@2@@std@@@Z@@?$_Func_class@V?$unique_ptr@VTest@test@@U?$default_delete@VTest@test@@@std@@@std@@$$V@std@@IAEX$$QAV<lambda_1>@?1???$Register@VTestClearColor@test@@@TestMenu@test@@QAEXABV?$basic_string@DU?$char_traits@D@std@@V?$allocator@D@2@@1@@Z@@Z 0053dbe0 f i Application.obj
 0002:0002ac90       ??$_Test_callable@V<lambda_1>@?1???$Register@VTestBatchColor@test@@@TestMenu@test@@QAEXABV?$basic_string@DU?$char_traits@D@std@@V?$allocator@D@2@@std@@@Z@@std@@YA_NABV<lambda_1>@?1???$Register@VTestBatchColor@test@@@TestMenu@test@@QAEXABV?$basic_string@DU?$char_traits@D@std@@V?$allocator@D@2@@0@@Z@@Z 0053dc90 f i Application.obj
 0002:0002ace0       ??$_Test_callable@V<lambda_1>@?1???$Register@VTestBatchMove@test@@@TestMenu@test@@QAEXABV?$basic_string@DU?$char_traits@D@std@@V?$allocator@D@2@@std@@@Z@@std@@YA_NABV<lambda_1>@?1???$Register@VTestBatchMove@test@@@TestMenu@test@@QAEXABV?$basic_string@DU?$char_traits@D@std@@V?$allocator@D@2@@0@@Z@@Z 0053dce0 f i Application.obj
 0002:0002ad30       ??$_Test_callable@V<lambda_1>@?1???$Register@VTestBatchTexture@test@@@TestMenu@test@@QAEXABV?$basic_string@DU?$char_traits@D@std@@V?$allocator@D@2@@std@@@Z@@std@@YA_NABV<lambda_1>@?1???$Register@VTestBatchTexture@test@@@TestMenu@test@@QAEXABV?$basic_string@DU?$char_traits@D@std@@V?$allocator@D@2@@0@@Z@@Z 0053dd30 f i Application.obj
 0002:0002ad80       ??$_Test_callable@V<lambda_1>@?1???$Register@VTestChangeTexture@test@@@TestMenu@test@@QAEXABV?$basic_string@DU?$char_traits@D@std@@V?$allocator@D@2@@std@@@Z@@std@@YA_NABV<lambda_1>@?1???$Register@VTestChangeTexture@test@@@TestMenu@test@@QAEXABV?$basic_string@DU?$char_traits@D@std@@V?$allocator@D@2@@0@@Z@@Z 0053dd80 f i Application.obj
 0002:0002add0       ??$_Test_callable@V<lambda_1>@?1???$Register@VTestClearColor@test@@@TestMenu@test@@QAEXABV?$basic_string@DU?$char_traits@D@std@@V?$allocator@D@2@@std@@@Z@@std@@YA_NABV<lambda_1>@?1???$Register@VTestClearColor@test@@@TestMenu@test@@QAEXABV?$basic_string@DU?$char_traits@D@std@@V?$allocator@D@2@@0@@Z@@Z 0053ddd0 f i Application.obj
 0002:0002ae20       ??$_To_address@PAM@std@@YA?A_PABQAM@Z 0053de20 f i Application.obj
 0002:0002ae70       ??$_Unfancy@M@std@@YAPAMPAM@Z 0053de70 f i Application.obj
 0002:0002aec0       ??$_Unfancy@U?$pair@V?$basic_string@DU?$char_traits@D@std@@V?$allocator@D@2@@std@@V?$function@$$A6A?AV?$unique_ptr@VTest@test@@U?$default_delete@VTest@test@@@std@@@std@@XZ@2@@std@@@std@@YAPAU?$pair@V?$basic_string@DU?$char_traits@D@std@@V?$allocator@D@2@@std@@V?$function@$$A6A?AV?$unique_ptr@VTest@test@@U?$default_delete@VTest@test@@@std@@@std@@XZ@2@@0@PAU10@@Z 0053dec0 f i Application.obj
 0002:0002af10       ??$_Uninitialized_fill_n@V?$allocator@M@std@@@std@@YAPAMPAMIABMAAV?$allocator@M@0@@Z 0053df10 f i Application.obj
 0002:0002b0a0       ??$_Uninitialized_move@PAU?$pair@V?$basic_string@DU?$char_traits@D@std@@V?$allocator@D@2@@std@@V?$function@$$A6A?AV?$unique_ptr@VTest@test@@U?$default_delete@VTest@test@@@std@@@std@@XZ@2@@std@@V?$allocator@U?$pair@V?$basic_string@DU?$char_traits@D@std@@V?$allocator@D@2@@std@@V?$function@$$A6A?AV?$unique_ptr@VTest@test@@U?$default_delete@VTest@test@@@std@@@std@@XZ@2@@std@@@2@@std@@YAPAU?$pair@V?$basic_string@DU?$char_traits@D@std@@V?$allocator@D@2@@std@@V?$function@$$A6A?AV?$unique_ptr@VTest@test@@U?$default_delete@VTest@test@@@std@@@std@@XZ@2@@0@QAU10@0PAU10@AAV?$allocator@U?$pair@V?$basic_string@DU?$char_traits@D@std@@V?$allocator@D@2@@std@@V?$function@$$A6A?AV?$unique_ptr@VTest@test@@U?$default_delete@VTest@test@@@std@@@std@@XZ@2@@std@@@0@@Z 0053e0a0 f i Application.obj
 0002:0002b220       ??$_Voidify_iter@PAM@std@@YAPAXPAM@Z 0053e220 f i Application.obj
 0002:0002b270       ??$_Voidify_iter@PAU?$pair@V?$basic_string@DU?$char_traits@D@std@@V?$allocator@D@2@@std@@V?$function@$$A6A?AV?$unique_ptr@VTest@test@@U?$default_delete@VTest@test@@@std@@@std@@XZ@2@@std@@@std@@YAPAXPAU?$pair@V?$basic_string@DU?$char_traits@D@std@@V?$allocator@D@2@@std@@V?$function@$$A6A?AV?$unique_ptr@VTest@test@@U?$default_delete@VTest@test@@@std@@@std@@XZ@2@@0@@Z 0053e270 f i Application.obj
 0002:0002b2c0       ??$addressof@$$CBV<lambda_1>@?1???$Register@VTestBatchColor@test@@@TestMenu@test@@QAEXABV?$basic_string@DU?$char_traits@D@std@@V?$allocator@D@2@@std@@@Z@@std@@YAPBV<lambda_1>@?1???$Register@VTestBatchColor@test@@@TestMenu@test@@QAEXABV?$basic_string@DU?$char_traits@D@std@@V?$allocator@D@2@@0@@Z@ABV1?1???$Register@VTestBatchColor@test@@@23@QAEX0@Z@@Z 0053e2c0 f i Application.obj
 0002:0002b310       ??$addressof@$$CBV<lambda_1>@?1???$Register@VTestBatchMove@test@@@TestMenu@test@@QAEXABV?$basic_string@DU?$char_traits@D@std@@V?$allocator@D@2@@std@@@Z@@std@@YAPBV<lambda_1>@?1???$Register@VTestBatchMove@test@@@TestMenu@test@@QAEXABV?$basic_string@DU?$char_traits@D@std@@V?$allocator@D@2@@0@@Z@ABV1?1???$Register@VTestBatchMove@test@@@23@QAEX0@Z@@Z 0053e310 f i Application.obj
 0002:0002b360       ??$addressof@$$CBV<lambda_1>@?1???$Register@VTestBatchTexture@test@@@TestMenu@test@@QAEXABV?$basic_string@DU?$char_traits@D@std@@V?$allocator@D@2@@std@@@Z@@std@@YAPBV<lambda_1>@?1???$Register@VTestBatchTexture@test@@@TestMenu@test@@QAEXABV?$basic_string@DU?$char_traits@D@std@@V?$allocator@D@2@@0@@Z@ABV1?1???$Register@VTestBatchTexture@test@@@23@QAEX0@Z@@Z 0053e360 f i Application.obj
 0002:0002b3b0       ??$addressof@$$CBV<lambda_1>@?1???$Register@VTestChangeTexture@test@@@TestMenu@test@@QAEXABV?$basic_string@DU?$char_traits@D@std@@V?$allocator@D@2@@std@@@Z@@std@@YAPBV<lambda_1>@?1???$Register@VTestChangeTexture@test@@@TestMenu@test@@QAEXABV?$basic_string@DU?$char_traits@D@std@@V?$allocator@D@2@@0@@Z@ABV1?1???$Register@VTestChangeTexture@test@@@23@QAEX0@Z@@Z 0053e3b0 f i Application.obj
 0002:0002b400       ??$addressof@$$CBV<lambda_1>@?1???$Register@VTestClearColor@test@@@TestMenu@test@@QAEXABV?$basic_string@DU?$char_traits@D@std@@V?$allocator@D@2@@std@@@Z@@std@@YAPBV<lambda_1>@?1???$Register@VTestClearColor@test@@@TestMenu@test@@QAEXABV?$basic_string@DU?$char_traits@D@std@@V?$allocator@D@2@@0@@Z@ABV1?1???$Register@VTestClearColor@test@@@23@QAEX0@Z@@Z 0053e400 f i Application.obj
 0002:0002b450       ??$addressof@U?$pair@V?$basic_string@DU?$char_traits@D@std@@V?$allocator@D@2@@std@@V?$function@$$A6A?AV?$unique_ptr@VTest@test@@U?$default_delete@VTest@test@@@std@@@std@@XZ@2@@std@@@std@@YAPAU?$pair@V?$basic_string@DU?$char_traits@D@std@@V?$allocator@D@2@@std@@V?$function@$$A6A?AV?$unique_ptr@VTest@test@@U?$default_delete@VTest@test@@@std@@@std@@XZ@2@@0@AAU10@@Z 0053e450 f i Application.obj
 0002:0002b4a0       ??$construct@MABM@?$_Default_allocator_traits@V?$allocator@M@std@@@std@@SAXAAV?$allocator@M@1@QAMABM@Z 0053e4a0 f i Application.obj
 0002:0002b530       ??$construct@U?$pair@V?$basic_string@DU?$char_traits@D@std@@V?$allocator@D@2@@std@@V?$function@$$A6A?AV?$unique_ptr@VTest@test@@U?$default_delete@VTest@test@@@std@@@std@@XZ@2@@std@@U12@@?$_Default_allocator_traits@V?$allocator@U?$pair@V?$basic_string@DU?$char_traits@D@std@@V?$allocator@D@2@@std@@V?$function@$$A6A?AV?$unique_ptr@VTest@test@@U?$default_delete@VTest@test@@@std@@@std@@XZ@2@@std@@@std@@@std@@SAXAAV?$allocator@U?$pair@V?$basic_string@DU?$char_traits@D@std@@V?$allocator@D@2@@std@@V?$function@$$A6A?AV?$unique_ptr@VTest@test@@U?$default_delete@VTest@test@@@std@@@std@@XZ@2@@std@@@1@QAU?$pair@V?$basic_string@DU?$char_traits@D@std@@V?$allocator@D@2@@std@@V?$function@$$A6A?AV?$unique_ptr@VTest@test@@U?$default_delete@VTest@test@@@std@@@std@@XZ@2@@1@$$QAU31@@Z 0053e530 f i Application.obj
 0002:0002b5c0       ??$destroy@U?$pair@V?$basic_string@DU?$char_traits@D@std@@V?$allocator@D@2@@std@@V?$function@$$A6A?AV?$unique_ptr@VTest@test@@U?$default_delete@VTest@test@@@std@@@std@@XZ@2@@std@@@?$_Default_allocator_traits@V?$allocator@U?$pair@V?$basic_string@DU?$char_traits@D@std@@V?$allocator@D@2@@std@@V?$function@$$A6A?AV?$unique_ptr@VTest@test@@U?$default_delete@VTest@test@@@std@@@std@@XZ@2@@std@@@std@@@std@@SAXAAV?$allocator@U?$pair@V?$basic_string@DU?$char_traits@D@std@@V?$allocator@D@2@@std@@V?$function@$$A6A?AV?$unique_ptr@VTest@test@@U?$default_delete@VTest@test@@@std@@@std@@XZ@2@@std@@@1@QAU?$pair@V?$basic_string@DU?$char_traits@D@std@@V?$allocator@D@2@@std@@V?$function@$$A6A?AV?$unique_ptr@VTest@test@@U?$default_delete@VTest@test@@@std@@@std@@XZ@2@@1@@Z 0053e5c0 f i Application.obj
 0002:0002b610       ??$endl@DU?$char_traits@D@std@@@std@@YAAAV?$basic_ostream@DU?$char_traits@D@std@@@0@AAV10@@Z 0053e610 f i Application.obj
 0002:0002b6b0       ??$exchange@PAVTest@test@@$$T@std@@YAPAVTest@test@@AAPAV12@$$QA$$T@Z 0053e6b0 f i Application.obj
 0002:0002b720       ??$exchange@PAVTestBatchColor@test@@$$T@std@@YAPAVTestBatchColor@test@@AAPAV12@$$QA$$T@Z 0053e720 f i Application.obj
 0002:0002b790       ??$exchange@PAVTestBatchMove@test@@$$T@std@@YAPAVTestBatchMove@test@@AAPAV12@$$QA$$T@Z 0053e790 f i Application.obj
 0002:0002b800       ??$exchange@PAVTestBatchTexture@test@@$$T@std@@YAPAVTestBatchTexture@test@@AAPAV12@$$QA$$T@Z 0053e800 f i Application.obj
 0002:0002b870       ??$exchange@PAVTestChangeTexture@test@@$$T@std@@YAPAVTestChangeTexture@test@@AAPAV12@$$QA$$T@Z 0053e870 f i Application.obj
 0002:0002b8e0       ??$exchange@PAVTestClearColor@test@@$$T@std@@YAPAVTestClearColor@test@@AAPAV12@$$QA$$T@Z 0053e8e0 f i Application.obj
 0002:0002b950       ??$forward@AAPAVTestBatchColor@test@@@std@@YAAAPAVTestBatchColor@test@@AAPAV12@@Z 0053e950 f i Application.obj
 0002:0002b9a0       ??$forward@AAPAVTestBatchMove@test@@@std@@YAAAPAVTestBatchMove@test@@AAPAV12@@Z 0053e9a0 f i Application.obj
 0002:0002b9f0       ??$forward@AAPAVTestBatchTexture@test@@@std@@YAAAPAVTestBatchTexture@test@@AAPAV12@@Z 0053e9f0 f i Application.obj
 0002:0002ba40       ??$forward@AAPAVTestChangeTexture@test@@@std@@YAAAPAVTestChangeTexture@test@@AAPAV12@@Z 0053ea40 f i Application.obj
 0002:0002ba90       ??$forward@AAPAVTestClearColor@test@@@std@@YAAAPAVTestClearColor@test@@AAPAV12@@Z 0053ea90 f i Application.obj
 0002:0002bae0       ??$forward@ABM@std@@YAABMABM@Z 0053eae0 f i Application.obj
 0002:0002bb30       ??$forward@ABV<lambda_1>@?1???$Register@VTestBatchColor@test@@@TestMenu@test@@QAEXABV?$basic_string@DU?$char_traits@D@std@@V?$allocator@D@2@@std@@@Z@@std@@YAABV<lambda_1>@?1???$Register@VTestBatchColor@test@@@TestMenu@test@@QAEXABV?$basic_string@DU?$char_traits@D@std@@V?$allocator@D@2@@0@@Z@ABV1?1???$Register@VTestBatchColor@test@@@23@QAEX0@Z@@Z 0053eb30 f i Application.obj
 0002:0002bb80       ??$forward@ABV<lambda_1>@?1???$Register@VTestBatchMove@test@@@TestMenu@test@@QAEXABV?$basic_string@DU?$char_traits@D@std@@V?$allocator@D@2@@std@@@Z@@std@@YAABV<lambda_1>@?1???$Register@VTestBatchMove@test@@@TestMenu@test@@QAEXABV?$basic_string@DU?$char_traits@D@std@@V?$allocator@D@2@@0@@Z@ABV1?1???$Register@VTestBatchMove@test@@@23@QAEX0@Z@@Z 0053eb80 f i Application.obj
 0002:0002bbd0       ??$forward@ABV<lambda_1>@?1???$Register@VTestBatchTexture@test@@@TestMenu@test@@QAEXABV?$basic_string@DU?$char_traits@D@std@@V?$allocator@D@2@@std@@@Z@@std@@YAABV<lambda_1>@?1???$Register@VTestBatchTexture@test@@@TestMenu@test@@QAEXABV?$basic_string@DU?$char_traits@D@std@@V?$allocator@D@2@@0@@Z@ABV1?1???$Register@VTestBatchTexture@test@@@23@QAEX0@Z@@Z 0053ebd0 f i Application.obj
 0002:0002bc20       ??$forward@ABV<lambda_1>@?1???$Register@VTestChangeTexture@test@@@TestMenu@test@@QAEXABV?$basic_string@DU?$char_traits@D@std@@V?$allocator@D@2@@std@@@Z@@std@@YAABV<lambda_1>@?1???$Register@VTestChangeTexture@test@@@TestMenu@test@@QAEXABV?$basic_string@DU?$char_traits@D@std@@V?$allocator@D@2@@0@@Z@ABV1?1???$Register@VTestChangeTexture@test@@@23@QAEX0@Z@@Z 0053ec20 f i Application.obj
 0002:0002bc70       ??$forward@ABV<lambda_1>@?1???$Register@VTestClearColor@test@@@TestMenu@test@@QAEXABV?$basic_string@DU?$char_traits@D@std@@V?$allocator@D@2@@std@@@Z@@std@@YAABV<lambda_1>@?1???$Register@VTestClearColor@test@@@TestMenu@test@@QAEXABV?$basic_string@DU?$char_traits@D@std@@V?$allocator@D@2@@0@@Z@ABV1?1???$Register@VTestClearColor@test@@@23@QAEX0@Z@@Z 0053ec70 f i Application.obj
 0002:0002bcc0       ??$forward@ABV?$allocator@M@std@@@std@@YAABV?$allocator@M@0@ABV10@@Z 0053ecc0 f i Application.obj
 0002:0002bd10       ??$forward@PAVTest@test@@@std@@YA$$QAPAVTest@test@@AAPAV12@@Z 0053ed10 f i Application.obj
 0002:0002bd60       ??$forward@PAVTestBatchColor@test@@@std@@YA$$QAPAVTestBatchColor@test@@AAPAV12@@Z 0053ed60 f i Application.obj
 0002:0002bdb0       ??$forward@PAVTestBatchMove@test@@@std@@YA$$QAPAVTestBatchMove@test@@AAPAV12@@Z 0053edb0 f i Application.obj
 0002:0002be00       ??$forward@PAVTestBatchTexture@test@@@std@@YA$$QAPAVTestBatchTexture@test@@AAPAV12@@Z 0053ee00 f i Application.obj
 0002:0002be50       ??$forward@PAVTestChangeTexture@test@@@std@@YA$$QAPAVTestChangeTexture@test@@AAPAV12@@Z 0053ee50 f i Application.obj
 0002:0002bea0       ??$forward@PAVTestClearColor@test@@@std@@YA$$QAPAVTestClearColor@test@@AAPAV12@@Z 0053eea0 f i Application.obj
 0002:0002bef0       ??$forward@U?$default_delete@VTest@test@@@std@@@std@@YA$$QAU?$default_delete@VTest@test@@@0@AAU10@@Z 0053eef0 f i Application.obj
 0002:0002bf40       ??$forward@U?$default_delete@VTestBatchColor@test@@@std@@@std@@YA$$QAU?$default_delete@VTestBatchColor@test@@@0@AAU10@@Z 0053ef40 f i Application.obj
 0002:0002bf90       ??$forward@U?$default_delete@VTestBatchMove@test@@@std@@@std@@YA$$QAU?$default_delete@VTestBatchMove@test@@@0@AAU10@@Z 0053ef90 f i Application.obj
 0002:0002bfe0       ??$forward@U?$default_delete@VTestBatchTexture@test@@@std@@@std@@YA$$QAU?$default_delete@VTestBatchTexture@test@@@0@AAU10@@Z 0053efe0 f i Application.obj
 0002:0002c030       ??$forward@U?$default_delete@VTestChangeTexture@test@@@std@@@std@@YA$$QAU?$default_delete@VTestChangeTexture@test@@@0@AAU10@@Z 0053f030 f i Application.obj
 0002:0002c080       ??$forward@U?$default_delete@VTestClearColor@test@@@std@@@std@@YA$$QAU?$default_delete@VTestClearColor@test@@@0@AAU10@@Z 0053f080 f i Application.obj
 0002:0002c0d0       ??$forward@U?$pair@V?$basic_string@DU?$char_traits@D@std@@V?$allocator@D@2@@std@@V?$function@$$A6A?AV?$unique_ptr@VTest@test@@U?$default_delete@VTest@test@@@std@@@std@@XZ@2@@std@@@std@@YA$$QAU?$pair@V?$basic_string@DU?$char_traits@D@std@@V?$allocator@D@2@@std@@V?$function@$$A6A?AV?$unique_ptr@VTest@test@@U?$default_delete@VTest@test@@@std@@@std@@XZ@2@@0@AAU10@@Z 0053f0d0 f i Application.obj
 0002:0002c120       ??$forward@V<lambda_1>@?1???$Register@VTestBatchColor@test@@@TestMenu@test@@QAEXABV?$basic_string@DU?$char_traits@D@std@@V?$allocator@D@2@@std@@@Z@@std@@YA$$QAV<lambda_1>@?1???$Register@VTestBatchColor@test@@@TestMenu@test@@QAEXABV?$basic_string@DU?$char_traits@D@std@@V?$allocator@D@2@@0@@Z@AAV1?1???$Register@VTestBatchColor@test@@@23@QAEX0@Z@@Z 0053f120 f i Application.obj
 0002:0002c170       ??$forward@V<lambda_1>@?1???$Register@VTestBatchMove@test@@@TestMenu@test@@QAEXABV?$basic_string@DU?$char_traits@D@std@@V?$allocator@D@2@@std@@@Z@@std@@YA$$QAV<lambda_1>@?1???$Register@VTestBatchMove@test@@@TestMenu@test@@QAEXABV?$basic_string@DU?$char_traits@D@std@@V?$allocator@D@2@@0@@Z@AAV1?1???$Register@VTestBatchMove@test@@@23@QAEX0@Z@@Z 0053f170 f i Application.obj
 0002:0002c1c0       ??$forward@V<lambda_1>@?1???$Register@VTestBatchTexture@test@@@TestMenu@test@@QAEXABV?$basic_string@DU?$char_traits@D@std@@V?$allocator@D@2@@std@@@Z@@std@@YA$$QAV<lambda_1>@?1???$Register@VTestBatchTexture@test@@@TestMenu@test@@QAEXABV?$basic_string@DU?$char_traits@D@std@@V?$allocator@D@2@@0@@Z@AAV1?1???$Register@VTestBatchTexture@test@@@23@QAEX0@Z@@Z 0053f1c0 f i Application.obj
 0002:0002c210       ??$forward@V<lambda_1>@?1???$Register@VTestChangeTexture@test@@@TestMenu@test@@QAEXABV?$basic_string@DU?$char_traits@D@std@@V?$allocator@D@2@@std@@@Z@@std@@YA$$QAV<lambda_1>@?1???$Register@VTestChangeTexture@test@@@TestMenu@test@@QAEXABV?$basic_string@DU?$char_traits@D@std@@V?$allocator@D@2@@0@@Z@AAV1?1???$Register@VTestChangeTexture@test@@@23@QAEX0@Z@@Z 0053f210 f i Application.obj
 0002:0002c260       ??$forward@V<lambda_1>@?1???$Register@VTestClearColor@test@@@TestMenu@test@@QAEXABV?$basic_string@DU?$char_traits@D@std@@V?$allocator@D@2@@std@@@Z@@std@@YA$$QAV<lambda_1>@?1???$Register@VTestClearColor@test@@@TestMenu@test@@QAEXABV?$basic_string@DU?$char_traits@D@std@@V?$allocator@D@2@@0@@Z@AAV1?1???$Register@VTestClearColor@test@@@23@QAEX0@Z@@Z 0053f260 f i Application.obj
 0002:0002c2b0       ??$forward@V?$basic_string@DU?$char_traits@D@std@@V?$allocator@D@2@@std@@@std@@YA$$QAV?$basic_string@DU?$char_traits@D@std@@V?$allocator@D@2@@0@AAV10@@Z 0053f2b0 f i Application.obj
 0002:0002c300       ??$forward@VTestBatchColor@test@@@std@@YA$$QAVTestBatchColor@test@@AAV12@@Z 0053f300 f i Application.obj
 0002:0002c350       ??$forward@VTestBatchMove@test@@@std@@YA$$QAVTestBatchMove@test@@AAV12@@Z 0053f350 f i Application.obj
 0002:0002c3a0       ??$forward@VTestBatchTexture@test@@@std@@YA$$QAVTestBatchTexture@test@@AAV12@@Z 0053f3a0 f i Application.obj
 0002:0002c3f0       ??$forward@VTestChangeTexture@test@@@std@@YA$$QAVTestChangeTexture@test@@AAV12@@Z 0053f3f0 f i Application.obj
 0002:0002c440       ??$forward@VTestClearColor@test@@@std@@YA$$QAVTestClearColor@test@@AAV12@@Z 0053f440 f i Application.obj
 0002:0002c490       ??$invoke@AAV<lambda_1>@?1???$Register@VTestBatchColor@test@@@TestMenu@test@@QAEXABV?$basic_string@DU?$char_traits@D@std@@V?$allocator@D@2@@std@@@Z@@std@@YA?AV?$unique_ptr@VTestBatchColor@test@@U?$default_delete@VTestBatchColor@test@@@std@@@0@AAV<lambda_1>@?1???$Register@VTestBatchColor@test@@@TestMenu@test@@QAEXABV?$basic_string@DU?$char_traits@D@std@@V?$allocator@D@2@@0@@Z@@Z 0053f490 f i Application.obj
 0002:0002c540       ??$invoke@AAV<lambda_1>@?1???$Register@VTestBatchMove@test@@@TestMenu@test@@QAEXABV?$basic_string@DU?$char_traits@D@std@@V?$allocator@D@2@@std@@@Z@@std@@YA?AV?$unique_ptr@VTestBatchMove@test@@U?$default_delete@VTestBatchMove@test@@@std@@@0@AAV<lambda_1>@?1???$Register@VTestBatchMove@test@@@TestMenu@test@@QAEXABV?$basic_string@DU?$char_traits@D@std@@V?$allocator@D@2@@0@@Z@@Z 0053f540 f i Application.obj
 0002:0002c5f0       ??$invoke@AAV<lambda_1>@?1???$Register@VTestBatchTexture@test@@@TestMenu@test@@QAEXABV?$basic_string@DU?$char_traits@D@std@@V?$allocator@D@2@@std@@@Z@@std@@YA?AV?$unique_ptr@VTestBatchTexture@test@@U?$default_delete@VTestBatchTexture@test@@@std@@@0@AAV<lambda_1>@?1???$Register@VTestBatchTexture@test@@@TestMenu@test@@QAEXABV?$basic_string@DU?$char_traits@D@std@@V?$allocator@D@2@@0@@Z@@Z 0053f5f0 f i Application.obj
 0002:0002c6a0       ??$invoke@AAV<lambda_1>@?1???$Register@VTestChangeTexture@test@@@TestMenu@test@@QAEXABV?$basic_string@DU?$char_traits@D@std@@V?$allocator@D@2@@std@@@Z@@std@@YA?AV?$unique_ptr@VTestChangeTexture@test@@U?$default_delete@VTestChangeTexture@test@@@std@@@0@AAV<lambda_1>@?1???$Register@VTestChangeTexture@test@@@TestMenu@test@@QAEXABV?$basic_string@DU?$char_traits@D@std@@V?$allocator@D@2@@0@@Z@@Z 0053f6a0 f i Application.obj
 0002:0002c750       ??$invoke@AAV<lambda_1>@?1???$Register@VTestClearColor@test@@@TestMenu@test@@QAEXABV?$basic_string@DU?$char_traits@D@std@@V?$allocator@D@2@@std@@@Z@@std@@YA?AV?$unique_ptr@VTestClearColor@test@@U?$default_delete@VTestClearColor@test@@@std@@@0@AAV<lambda_1>@?1???$Register@VTestClearColor@test@@@TestMenu@test@@QAEXABV?$basic_string@DU?$char_traits@D@std@@V?$allocator@D@2@@0@@Z@@Z 0053f750 f i Application.obj
 0002:0002c800       ??$make_pair@ABV?$basic_string@DU?$char_traits@D@std@@V?$allocator@D@2@@std@@V<lambda_1>@?1???$Register@VTestBatchColor@test@@@TestMenu@test@@QAEXABV12@@Z@@std@@YA?AU?$pair@V?$basic_string@DU?$char_traits@D@std@@V?$allocator@D@2@@std@@V<lambda_1>@?1???$Register@VTestBatchColor@test@@@TestMenu@test@@QAEXABV12@@Z@@0@ABV?$basic_string@DU?$char_traits@D@std@@V?$allocator@D@2@@0@$$QAV<lambda_1>@?1???$Register@VTestBatchColor@test@@@TestMenu@test@@QAEX0@Z@@Z 0053f800 f i Application.obj
 0002:0002c8a0       ??$make_pair@ABV?$basic_string@DU?$char_traits@D@std@@V?$allocator@D@2@@std@@V<lambda_1>@?1???$Register@VTestBatchMove@test@@@TestMenu@test@@QAEXABV12@@Z@@std@@YA?AU?$pair@V?$basic_string@DU?$char_traits@D@std@@V?$allocator@D@2@@std@@V<lambda_1>@?1???$Register@VTestBatchMove@test@@@TestMenu@test@@QAEXABV12@@Z@@0@ABV?$basic_string@DU?$char_traits@D@std@@V?$allocator@D@2@@0@$$QAV<lambda_1>@?1???$Register@VTestBatchMove@test@@@TestMenu@test@@QAEX0@Z@@Z 0053f8a0 f i Application.obj
 0002:0002c940       ??$make_pair@ABV?$basic_string@DU?$char_traits@D@std@@V?$allocator@D@2@@std@@V<lambda_1>@?1???$Register@VTestBatchTexture@test@@@TestMenu@test@@QAEXABV12@@Z@@std@@YA?AU?$pair@V?$basic_string@DU?$char_traits@D@std@@V?$allocator@D@2@@std@@V<lambda_1>@?1???$Register@VTestBatchTexture@test@@@TestMenu@test@@QAEXABV12@@Z@@0@ABV?$basic_string@DU?$char_traits@D@std@@V?$allocator@D@2@@0@$$QAV<lambda_1>@?1???$Register@VTestBatchTexture@test@@@TestMenu@test@@QAEX0@Z@@Z 0053f940 f i Application.obj
 0002:0002c9e0       ??$make_pair@ABV?$basic_string@DU?$char_traits@D@std@@V?$allocator@D@2@@std@@V<lambda_1>@?1???$Register@VTestChangeTexture@test@@@TestMenu@test@@QAEXABV12@@Z@@std@@YA?AU?$pair@V?$basic_string@DU?$char_traits@D@std@@V?$allocator@D@2@@std@@V<lambda_1>@?1???$Register@VTestChangeTexture@test@@@TestMenu@test@@QAEXABV12@@Z@@0@ABV?$basic_string@DU?$char_traits@D@std@@V?$allocator@D@2@@0@$$QAV<lambda_1>@?1???$Register@VTestChangeTexture@test@@@TestMenu@test@@QAEX0@Z@@Z 0053f9e0 f i Application.obj
 0002:0002ca80       ??$make_pair@ABV?$basic_string@DU?$char_traits@D@std@@V?$allocator@D@2@@std@@V<lambda_1>@?1???$Register@VTestClearColor@test@@@TestMenu@test@@QAEXABV12@@Z@@std@@YA?AU?$pair@V?$basic_string@DU?$char_traits@D@std@@V?$allocator@D@2@@std@@V<lambda_1>@?1???$Register@VTestClearColor@test@@@TestMenu@test@@QAEXABV12@@Z@@0@ABV?$basic_string@DU?$char_traits@D@std@@V?$allocator@D@2@@0@$$QAV<lambda_1>@?1???$Register@VTestClearColor@test@@@TestMenu@test@@QAEX0@Z@@Z 0053fa80 f i Application.obj
 0002:0002cb20       ??$make_unique@VTestBatchColor@test@@V12@$0A@@std@@YA?AV?$unique_ptr@VTestBatchColor@test@@U?$default_delete@VTestBatchColor@test@@@std@@@0@$$QAVTestBatchColor@test@@@Z 0053fb20 f i Application.obj
 0002:0002cc30       ??$make_unique@VTestBatchMove@test@@V12@$0A@@std@@YA?AV?$unique_ptr@VTestBatchMove@test@@U?$default_delete@VTestBatchMove@test@@@std@@@0@$$QAVTestBatchMove@test@@@Z 0053fc30 f i Application.obj
 0002:0002cd40       ??$make_unique@VTestBatchTexture@test@@V12@$0A@@std@@YA?AV?$unique_ptr@VTestBatchTexture@test@@U?$default_delete@VTestBatchTexture@test@@@std@@@0@$$QAVTestBatchTexture@test@@@Z 0053fd40 f i Application.obj
 0002:0002ce50       ??$make_unique@VTestChangeTexture@test@@V12@$0A@@std@@YA?AV?$unique_ptr@VTestChangeTexture@test@@U?$default_delete@VTestChangeTexture@test@@@std@@@0@$$QAVTestChangeTexture@test@@@Z 0053fe50 f i Application.obj
 0002:0002cf60       ??$make_unique@VTestClearColor@test@@V12@$0A@@std@@YA?AV?$unique_ptr@VTestClearColor@test@@U?$default_delete@VTestClearColor@test@@@std@@@0@$$QAVTestClearColor@test@@@Z 0053ff60 f i Application.obj
 0002:0002d060       ??$move@AAU?$pair@V?$basic_string@DU?$char_traits@D@std@@V?$allocator@D@2@@std@@V?$function@$$A6A?AV?$unique_ptr@VTest@test@@U?$default_delete@VTest@test@@@std@@@std@@XZ@2@@std@@@std@@YA$$QAU?$pair@V?$basic_string@DU?$char_traits@D@std@@V?$allocator@D@2@@std@@V?$function@$$A6A?AV?$unique_ptr@VTest@test@@U?$default_delete@VTest@test@@@std@@@std@@XZ@2@@0@AAU10@@Z 00540060 f i Application.obj
 0002:0002d0b0       ??$move@AAV<lambda_1>@?1???$Register@VTestBatchColor@test@@@TestMenu@test@@QAEXABV?$basic_string@DU?$char_traits@D@std@@V?$allocator@D@2@@std@@@Z@@std@@YA$$QAV<lambda_1>@?1???$Register@VTestBatchColor@test@@@TestMenu@test@@QAEXABV?$basic_string@DU?$char_traits@D@std@@V?$allocator@D@2@@0@@Z@AAV1?1???$Register@VTestBatchColor@test@@@23@QAEX0@Z@@Z 005400b0 f i Application.obj
 0002:0002d100       ??$move@AAV<lambda_1>@?1???$Register@VTestBatchMove@test@@@TestMenu@test@@QAEXABV?$basic_string@DU?$char_traits@D@std@@V?$allocator@D@2@@std@@@Z@@std@@YA$$QAV<lambda_1>@?1???$Register@VTestBatchMove@test@@@TestMenu@test@@QAEXABV?$basic_string@DU?$char_traits@D@std@@V?$allocator@D@2@@0@@Z@AAV1?1???$Register@VTestBatchMove@test@@@23@QAEX0@Z@@Z 00540100 f i Application.obj
 0002:0002d150       ??$move@AAV<lambda_1>@?1???$Register@VTestBatchTexture@test@@@TestMenu@test@@QAEXABV?$basic_string@DU?$char_traits@D@std@@V?$allocator@D@2@@std@@@Z@@std@@YA$$QAV<lambda_1>@?1???$Register@VTestBatchTexture@test@@@TestMenu@test@@QAEXABV?$basic_string@DU?$char_traits@D@std@@V?$allocator@D@2@@0@@Z@AAV1?1???$Register@VTestBatchTexture@test@@@23@QAEX0@Z@@Z 00540150 f i Application.obj
 0002:0002d1a0       ??$move@AAV<lambda_1>@?1???$Register@VTestChangeTexture@test@@@TestMenu@test@@QAEXABV?$basic_string@DU?$char_traits@D@std@@V?$allocator@D@2@@std@@@Z@@std@@YA$$QAV<lambda_1>@?1???$Register@VTestChangeTexture@test@@@TestMenu@test@@QAEXABV?$basic_string@DU?$char_traits@D@std@@V?$allocator@D@2@@0@@Z@AAV1?1???$Register@VTestChangeTexture@test@@@23@QAEX0@Z@@Z 005401a0 f i Application.obj
 0002:0002d1f0       ??$move@AAV<lambda_1>@?1???$Register@VTestClearColor@test@@@TestMenu@test@@QAEXABV?$basic_string@DU?$char_traits@D@std@@V?$allocator@D@2@@std@@@Z@@std@@YA$$QAV<lambda_1>@?1???$Register@VTestClearColor@test@@@TestMenu@test@@QAEXABV?$basic_string@DU?$char_traits@D@std@@V?$allocator@D@2@@0@@Z@AAV1?1???$Register@VTestClearColor@test@@@23@QAEX0@Z@@Z 005401f0 f i Application.obj
 0002:0002d240       ??$move@AAV?$function@$$A6A?AV?$unique_ptr@VTest@test@@U?$default_delete@VTest@test@@@std@@@std@@XZ@std@@@std@@YA$$QAV?$function@$$A6A?AV?$unique_ptr@VTest@test@@U?$default_delete@VTest@test@@@std@@@std@@XZ@0@AAV10@@Z 00540240 f i Application.obj
 0002:0002d290       ??0?$ImVector@G@@QAE@ABU0@@Z 00540290 f i Application.obj
 0002:0002d320       ??0?$_Func_base@V?$unique_ptr@VTest@test@@U?$default_delete@VTest@test@@@std@@@std@@$$V@std@@QAE@XZ 00540320 f i Application.obj
 0002:0002d380       ??0?$_Func_class@V?$unique_ptr@VTest@test@@U?$default_delete@VTest@test@@@std@@@std@@$$V@std@@QAE@XZ 00540380 f i Application.obj
 0002:0002d3e0       ??0?$_Ptr_base@VIndexBuffer@@@std@@IAE@XZ 005403e0 f i Application.obj
 0002:0002d450       ??0?$_Ptr_base@VShader@@@std@@IAE@XZ 00540450 f i Application.obj
 0002:0002d4c0       ??0?$_Ptr_base@VTexture@@@std@@IAE@XZ 005404c0 f i Application.obj
 0002:0002d530       ??0?$_Ptr_base@VVertexArray@@@std@@IAE@XZ 00540530 f i Application.obj
 0002:0002d5a0       ??0?$_Ptr_base@VVertexBuffer@@@std@@IAE@XZ 005405a0 f i Application.obj
 0002:0002d610       ??0?$_Uninitialized_backout_al@V?$allocator@M@std@@@std@@QAE@PAMAAV?$allocator@M@1@@Z 00540610 f i Application.obj
 0002:0002d690       ??0?$_Uninitialized_backout_al@V?$allocator@U?$pair@V?$basic_string@DU?$char_traits@D@std@@V?$allocator@D@2@@std@@V?$function@$$A6A?AV?$unique_ptr@VTest@test@@U?$default_delete@VTest@test@@@std@@@std@@XZ@2@@std@@@std@@@std@@QAE@PAU?$pair@V?$basic_string@DU?$char_traits@D@std@@V?$allocator@D@2@@std@@V?$function@$$A6A?AV?$unique_ptr@VTest@test@@U?$default_delete@VTest@test@@@std@@@std@@XZ@2@@1@AAV?$allocator@U?$pair@V?$basic_string@DU?$char_traits@D@std@@V?$allocator@D@2@@std@@V?$function@$$A6A?AV?$unique_ptr@VTest@test@@U?$default_delete@VTest@test@@@std@@@std@@XZ@2@@std@@@1@@Z 00540690 f i Application.obj
 0002:0002d710       ??0?$_Vector_val@U?$_Simple_types@M@std@@@std@@QAE@XZ 00540710 f i Application.obj
 0002:0002d790       ??0?$_Vector_val@U?$_Simple_types@U?$pair@V?$basic_string@DU?$char_traits@D@std@@V?$allocator@D@2@@std@@V?$function@$$A6A?AV?$unique_ptr@VTest@test@@U?$default_delete@VTest@test@@@std@@@std@@XZ@2@@std@@@std@@@std@@QAE@XZ 00540790 f i Application.obj
 0002:0002d810       ??0?$allocator@M@std@@QAE@XZ 00540810 f i Application.obj
 0002:0002d870       ??0?$allocator@U?$pair@V?$basic_string@DU?$char_traits@D@std@@V?$allocator@D@2@@std@@V?$function@$$A6A?AV?$unique_ptr@VTest@test@@U?$default_delete@VTest@test@@@std@@@std@@XZ@2@@std@@@std@@QAE@XZ 00540870 f i Application.obj
 0002:0002d8d0       ??0?$basic_string@DU?$char_traits@D@std@@V?$allocator@D@2@@std@@QAE@QBD@Z 005408d0 f i Application.obj
 0002:0002d9b0       ??0?$function@$$A6A?AV?$unique_ptr@VTest@test@@U?$default_delete@VTest@test@@@std@@@std@@XZ@std@@QAE@$$QAV01@@Z 005409b0 f i Application.obj
 0002:0002da30       ??0?$pair@V?$basic_string@DU?$char_traits@D@std@@V?$allocator@D@2@@std@@V?$function@$$A6A?AV?$unique_ptr@VTest@test@@U?$default_delete@VTest@test@@@std@@@std@@XZ@2@@std@@QAE@$$QAU01@@Z 00540a30 f i Application.obj
 0002:0002dab0       ??0?$shared_ptr@VIndexBuffer@@@std@@QAE@ABV01@@Z 00540ab0 f i Application.obj
 0002:0002db20       ??0?$shared_ptr@VShader@@@std@@QAE@ABV01@@Z 00540b20 f i Application.obj
 0002:0002db90       ??0?$shared_ptr@VTexture@@@std@@QAE@ABV01@@Z 00540b90 f i Application.obj
 0002:0002dc00       ??0?$shared_ptr@VVertexArray@@@std@@QAE@ABV01@@Z 00540c00 f i Application.obj
 0002:0002dc70       ??0?$shared_ptr@VVertexBuffer@@@std@@QAE@ABV01@@Z 00540c70 f i Application.obj
 0002:0002dce0       ??0?$vector@MV?$allocator@M@std@@@std@@QAE@IABMABV?$allocator@M@1@@Z 00540ce0 f i Application.obj
 0002:0002dd60       ??0?$vector@U?$pair@V?$basic_string@DU?$char_traits@D@std@@V?$allocator@D@2@@std@@V?$function@$$A6A?AV?$unique_ptr@VTest@test@@U?$default_delete@VTest@test@@@std@@@std@@XZ@2@@std@@V?$allocator@U?$pair@V?$basic_string@DU?$char_traits@D@std@@V?$allocator@D@2@@std@@V?$function@$$A6A?AV?$unique_ptr@VTest@test@@U?$default_delete@VTest@test@@@std@@@std@@XZ@2@@std@@@2@@std@@QAE@XZ 00540d60 f i Application.obj
 0002:0002dde0       ??0ImGuiIO@@QAE@ABU0@@Z    00540de0 f i Application.obj
 0002:0002e620       ??0Test@test@@QAE@ABV01@@Z 00541620 f i Application.obj
 0002:0002e650       ??0Test@test@@QAE@XZ       00541650 f i Application.obj
 0002:0002e6b0       ??0TestBatchColor@test@@QAE@ABV01@@Z 005416b0 f i Application.obj
 0002:0002e7b0       ??0TestBatchMove@test@@QAE@ABV01@@Z 005417b0 f i Application.obj
 0002:0002e890       ??0TestBatchTexture@test@@QAE@ABV01@@Z 00541890 f i Application.obj
 0002:0002e990       ??0TestChangeTexture@test@@QAE@ABV01@@Z 00541990 f i Application.obj
 0002:0002ea90       ??0TestClearColor@test@@QAE@ABV01@@Z 00541a90 f i Application.obj
 0002:0002eb20       ??0TestMenu@test@@QAE@XZ   00541b20 f i Application.obj
 0002:0002ebb0       ??1?$ImVector@G@@QAE@XZ    00541bb0 f i Application.obj
 0002:0002ec60       ??1?$_Func_class@V?$unique_ptr@VTest@test@@U?$default_delete@VTest@test@@@std@@@std@@$$V@std@@QAE@XZ 00541c60 f i Application.obj
 0002:0002ecc0       ??1?$_Tidy_guard@V?$vector@MV?$allocator@M@std@@@std@@@std@@QAE@XZ 00541cc0 f i Application.obj
 0002:0002ed30       ??1?$_Uninitialized_backout_al@V?$allocator@M@std@@@std@@QAE@XZ 00541d30 f i Application.obj
 0002:0002eda0       ??1?$_Uninitialized_backout_al@V?$allocator@U?$pair@V?$basic_string@DU?$char_traits@D@std@@V?$allocator@D@2@@std@@V?$function@$$A6A?AV?$unique_ptr@VTest@test@@U?$default_delete@VTest@test@@@std@@@std@@XZ@2@@std@@@std@@@std@@QAE@XZ 00541da0 f i Application.obj
 0002:0002ee10       ??1?$function@$$A6A?AV?$unique_ptr@VTest@test@@U?$default_delete@VTest@test@@@std@@@std@@XZ@std@@QAE@XZ 00541e10 f i Application.obj
 0002:0002ee60       ??1?$pair@V?$basic_string@DU?$char_traits@D@std@@V?$allocator@D@2@@std@@V<lambda_1>@?1???$Register@VTestBatchColor@test@@@TestMenu@test@@QAEXABV12@@Z@@std@@QAE@XZ 00541e60 f i Application.obj
 0002:0002eeb0       ??1?$pair@V?$basic_string@DU?$char_traits@D@std@@V?$allocator@D@2@@std@@V<lambda_1>@?1???$Register@VTestBatchMove@test@@@TestMenu@test@@QAEXABV12@@Z@@std@@QAE@XZ 00541eb0 f i Application.obj
 0002:0002ef00       ??1?$pair@V?$basic_string@DU?$char_traits@D@std@@V?$allocator@D@2@@std@@V<lambda_1>@?1???$Register@VTestBatchTexture@test@@@TestMenu@test@@QAEXABV12@@Z@@std@@QAE@XZ 00541f00 f i Application.obj
 0002:0002ef50       ??1?$pair@V?$basic_string@DU?$char_traits@D@std@@V?$allocator@D@2@@std@@V<lambda_1>@?1???$Register@VTestChangeTexture@test@@@TestMenu@test@@QAEXABV12@@Z@@std@@QAE@XZ 00541f50 f i Application.obj
 0002:0002efa0       ??1?$pair@V?$basic_string@DU?$char_traits@D@std@@V?$allocator@D@2@@std@@V<lambda_1>@?1???$Register@VTestClearColor@test@@@TestMenu@test@@QAEXABV12@@Z@@std@@QAE@XZ 00541fa0 f i Application.obj
 0002:0002eff0       ??1?$pair@V?$basic_string@DU?$char_traits@D@std@@V?$allocator@D@2@@std@@V?$function@$$A6A?AV?$unique_ptr@VTest@test@@U?$default_delete@VTest@test@@@std@@@std@@XZ@2@@std@@QAE@XZ 00541ff0 f i Application.obj
 0002:0002f050       ??1?$shared_ptr@VIndexBuffer@@@std@@QAE@XZ 00542050 f i Application.obj
 0002:0002f0b0       ??1?$shared_ptr@VShader@@@std@@QAE@XZ 005420b0 f i Application.obj
 0002:0002f110       ??1?$shared_ptr@VTexture@@@std@@QAE@XZ 00542110 f i Application.obj
 0002:0002f170       ??1?$shared_ptr@VVertexArray@@@std@@QAE@XZ 00542170 f i Application.obj
 0002:0002f1d0       ??1?$shared_ptr@VVertexBuffer@@@std@@QAE@XZ 005421d0 f i Application.obj
 0002:0002f230       ??1?$unique_ptr@VTest@test@@U?$default_delete@VTest@test@@@std@@@std@@QAE@XZ 00542230 f i Application.obj
 0002:0002f2b0       ??1?$unique_ptr@VTestBatchColor@test@@U?$default_delete@VTestBatchColor@test@@@std@@@std@@QAE@XZ 005422b0 f i Application.obj
 0002:0002f330       ??1?$unique_ptr@VTestBatchMove@test@@U?$default_delete@VTestBatchMove@test@@@std@@@std@@QAE@XZ 00542330 f i Application.obj
 0002:0002f3b0       ??1?$unique_ptr@VTestBatchTexture@test@@U?$default_delete@VTestBatchTexture@test@@@std@@@std@@QAE@XZ 005423b0 f i Application.obj
 0002:0002f430       ??1?$unique_ptr@VTestChangeTexture@test@@U?$default_delete@VTestChangeTexture@test@@@std@@@std@@QAE@XZ 00542430 f i Application.obj
 0002:0002f4b0       ??1?$unique_ptr@VTestClearColor@test@@U?$default_delete@VTestClearColor@test@@@std@@@std@@QAE@XZ 005424b0 f i Application.obj
 0002:0002f530       ??1?$vector@MV?$allocator@M@std@@@std@@QAE@XZ 00542530 f i Application.obj
 0002:0002f590       ??1?$vector@U?$pair@V?$basic_string@DU?$char_traits@D@std@@V?$allocator@D@2@@std@@V?$function@$$A6A?AV?$unique_ptr@VTest@test@@U?$default_delete@VTest@test@@@std@@@std@@XZ@2@@std@@V?$allocator@U?$pair@V?$basic_string@DU?$char_traits@D@std@@V?$allocator@D@2@@std@@V?$function@$$A6A?AV?$unique_ptr@VTest@test@@U?$default_delete@VTest@test@@@std@@@std@@XZ@2@@std@@@2@@std@@QAE@XZ 00542590 f i Application.obj
 0002:0002f5f0       ??1ImGuiIO@@QAE@XZ         005425f0 f i Application.obj
 0002:0002f650       ??1Test@test@@UAE@XZ       00542650 f i Application.obj
 0002:0002f6a0       ??1TestBatchColor@test@@UAE@XZ 005426a0 f i Application.obj
 0002:0002f740       ??1TestBatchMove@test@@UAE@XZ 00542740 f i Application.obj
 0002:0002f7d0       ??1TestBatchTexture@test@@UAE@XZ 005427d0 f i Application.obj
 0002:0002f870       ??1TestChangeTexture@test@@UAE@XZ 00542870 f i Application.obj
 0002:0002f910       ??1TestClearColor@test@@UAE@XZ 00542910 f i Application.obj
 0002:0002f970       ??1TestMenu@test@@UAE@XZ   00542970 f i Application.obj
 0002:0002f9f0       ??4?$ImVector@G@@QAEAAU0@ABU0@@Z 005429f0 f i Application.obj
 0002:0002fa90       ??A?$vector@MV?$allocator@M@std@@@std@@QAEAAMI@Z 00542a90 f i Application.obj
 0002:0002fb00       ??R<lambda_1>@?1???$Register@VTestBatchColor@test@@@TestMenu@test@@QAEXABV?$basic_string@DU?$char_traits@D@std@@V?$allocator@D@2@@std@@@Z@QBE@XZ 00542b00 f i Application.obj
 0002:0002fc30       ??R<lambda_1>@?1???$Register@VTestBatchMove@test@@@TestMenu@test@@QAEXABV?$basic_string@DU?$char_traits@D@std@@V?$allocator@D@2@@std@@@Z@QBE@XZ 00542c30 f i Application.obj
 0002:0002fd60       ??R<lambda_1>@?1???$Register@VTestBatchTexture@test@@@TestMenu@test@@QAEXABV?$basic_string@DU?$char_traits@D@std@@V?$allocator@D@2@@std@@@Z@QBE@XZ 00542d60 f i Application.obj
 0002:0002fe90       ??R<lambda_1>@?1???$Register@VTestChangeTexture@test@@@TestMenu@test@@QAEXABV?$basic_string@DU?$char_traits@D@std@@V?$allocator@D@2@@std@@@Z@QBE@XZ 00542e90 f i Application.obj
 0002:0002ffc0       ??R<lambda_1>@?1???$Register@VTestClearColor@test@@@TestMenu@test@@QAEXABV?$basic_string@DU?$char_traits@D@std@@V?$allocator@D@2@@std@@@Z@QBE@XZ 00542fc0 f i Application.obj
 0002:000300f0       ??R?$default_delete@VTest@test@@@std@@QBEXPAVTest@test@@@Z 005430f0 f i Application.obj
 0002:000301a0       ??R?$default_delete@VTestBatchColor@test@@@std@@QBEXPAVTestBatchColor@test@@@Z 005431a0 f i Application.obj
 0002:00030250       ??R?$default_delete@VTestBatchMove@test@@@std@@QBEXPAVTestBatchMove@test@@@Z 00543250 f i Application.obj
 0002:00030300       ??R?$default_delete@VTestBatchTexture@test@@@std@@QBEXPAVTestBatchTexture@test@@@Z 00543300 f i Application.obj
 0002:000303b0       ??R?$default_delete@VTestChangeTexture@test@@@std@@QBEXPAVTestChangeTexture@test@@@Z 005433b0 f i Application.obj
 0002:00030460       ??R?$default_delete@VTestClearColor@test@@@std@@QBEXPAVTestClearColor@test@@@Z 00543460 f i Application.obj
 0002:00030510       ??_G?$pair@V?$basic_string@DU?$char_traits@D@std@@V?$allocator@D@2@@std@@V?$function@$$A6A?AV?$unique_ptr@VTest@test@@U?$default_delete@VTest@test@@@std@@@std@@XZ@2@@std@@QAEPAXI@Z 00543510 f i Application.obj
 0002:00030580       ??_ETest@test@@UAEPAXI@Z   00543580 f i Application.obj
 0002:00030580       ??_GTest@test@@UAEPAXI@Z   00543580 f i Application.obj
 0002:000305f0       ??_ETestBatchColor@test@@UAEPAXI@Z 005435f0 f i Application.obj
 0002:000305f0       ??_GTestBatchColor@test@@UAEPAXI@Z 005435f0 f i Application.obj
 0002:00030660       ??_ETestBatchMove@test@@UAEPAXI@Z 00543660 f i Application.obj
 0002:00030660       ??_GTestBatchMove@test@@UAEPAXI@Z 00543660 f i Application.obj
 0002:000306d0       ??_ETestBatchTexture@test@@UAEPAXI@Z 005436d0 f i Application.obj
 0002:000306d0       ??_GTestBatchTexture@test@@UAEPAXI@Z 005436d0 f i Application.obj
 0002:00030740       ??_ETestChangeTexture@test@@UAEPAXI@Z 00543740 f i Application.obj
 0002:00030740       ??_GTestChangeTexture@test@@UAEPAXI@Z 00543740 f i Application.obj
 0002:000307b0       ??_ETestClearColor@test@@UAEPAXI@Z 005437b0 f i Application.obj
 0002:000307b0       ??_GTestClearColor@test@@UAEPAXI@Z 005437b0 f i Application.obj
 0002:00030820       ??_ETestMenu@test@@UAEPAXI@Z 00543820 f i Application.obj
 0002:00030820       ??_GTestMenu@test@@UAEPAXI@Z 00543820 f i Application.obj
 0002:00030890       ?OnImGuiRender@Test@test@@UAEXXZ 00543890 f i Application.obj
 0002:000308e0       ?OnRender@Test@test@@UAEXXZ 005438e0 f i Application.obj
 0002:00030930       ?OnUpdate@Test@test@@UAEXM@Z 00543930 f i Application.obj
 0002:00030980       ?_Buy_nonzero@?$vector@MV?$allocator@M@std@@@std@@AAEXI@Z 00543980 f i Application.obj
 0002:00030a00       ?_Buy_raw@?$vector@MV?$allocator@M@std@@@std@@AAEXI@Z 00543a00 f i Application.obj
 0002:00030ac0       ?_Calculate_growth@?$vector@U?$pair@V?$basic_string@DU?$char_traits@D@std@@V?$allocator@D@2@@std@@V?$function@$$A6A?AV?$unique_ptr@VTest@test@@U?$default_delete@VTest@test@@@std@@@std@@XZ@2@@std@@V?$allocator@U?$pair@V?$basic_string@DU?$char_traits@D@std@@V?$allocator@D@2@@std@@V?$function@$$A6A?AV?$unique_ptr@VTest@test@@U?$default_delete@VTest@test@@@std@@@std@@XZ@2@@std@@@2@@std@@ABEII@Z 00543ac0 f i Application.obj
 0002:00030b70       ?_Change_array@?$vector@U?$pair@V?$basic_string@DU?$char_traits@D@std@@V?$allocator@D@2@@std@@V?$function@$$A6A?AV?$unique_ptr@VTest@test@@U?$default_delete@VTest@test@@@std@@@std@@XZ@2@@std@@V?$allocator@U?$pair@V?$basic_string@DU?$char_traits@D@std@@V?$allocator@D@2@@std@@V?$function@$$A6A?AV?$unique_ptr@VTest@test@@U?$default_delete@VTest@test@@@std@@@std@@XZ@2@@std@@@2@@std@@AAEXQAU?$pair@V?$basic_string@DU?$char_traits@D@std@@V?$allocator@D@2@@std@@V?$function@$$A6A?AV?$unique_ptr@VTest@test@@U?$default_delete@VTest@test@@@std@@@std@@XZ@2@@2@II@Z 00543b70 f i Application.obj
 0002:00030c80       ?_Copy@?$_Func_impl_no_alloc@V<lambda_1>@?1???$Register@VTestBatchColor@test@@@TestMenu@test@@QAEXABV?$basic_string@DU?$char_traits@D@std@@V?$allocator@D@2@@std@@@Z@V?$unique_ptr@VTest@test@@U?$default_delete@VTest@test@@@std@@@5@$$V@std@@EBEPAV?$_Func_base@V?$unique_ptr@VTest@test@@U?$default_delete@VTest@test@@@std@@@std@@$$V@2@PAX@Z 00543c80 f i Application.obj
 0002:00030d00       ?_Copy@?$_Func_impl_no_alloc@V<lambda_1>@?1???$Register@VTestBatchMove@test@@@TestMenu@test@@QAEXABV?$basic_string@DU?$char_traits@D@std@@V?$allocator@D@2@@std@@@Z@V?$unique_ptr@VTest@test@@U?$default_delete@VTest@test@@@std@@@5@$$V@std@@EBEPAV?$_Func_base@V?$unique_ptr@VTest@test@@U?$default_delete@VTest@test@@@std@@@std@@$$V@2@PAX@Z 00543d00 f i Application.obj
 0002:00030d80       ?_Copy@?$_Func_impl_no_alloc@V<lambda_1>@?1???$Register@VTestBatchTexture@test@@@TestMenu@test@@QAEXABV?$basic_string@DU?$char_traits@D@std@@V?$allocator@D@2@@std@@@Z@V?$unique_ptr@VTest@test@@U?$default_delete@VTest@test@@@std@@@5@$$V@std@@EBEPAV?$_Func_base@V?$unique_ptr@VTest@test@@U?$default_delete@VTest@test@@@std@@@std@@$$V@2@PAX@Z 00543d80 f i Application.obj
 0002:00030e00       ?_Copy@?$_Func_impl_no_alloc@V<lambda_1>@?1???$Register@VTestChangeTexture@test@@@TestMenu@test@@QAEXABV?$basic_string@DU?$char_traits@D@std@@V?$allocator@D@2@@std@@@Z@V?$unique_ptr@VTest@test@@U?$default_delete@VTest@test@@@std@@@5@$$V@std@@EBEPAV?$_Func_base@V?$unique_ptr@VTest@test@@U?$default_delete@VTest@test@@@std@@@std@@$$V@2@PAX@Z 00543e00 f i Application.obj
 0002:00030e80       ?_Copy@?$_Func_impl_no_alloc@V<lambda_1>@?1???$Register@VTestClearColor@test@@@TestMenu@test@@QAEXABV?$basic_string@DU?$char_traits@D@std@@V?$allocator@D@2@@std@@@Z@V?$unique_ptr@VTest@test@@U?$default_delete@VTest@test@@@std@@@5@$$V@std@@EBEPAV?$_Func_base@V?$unique_ptr@VTest@test@@U?$default_delete@VTest@test@@@std@@@std@@$$V@2@PAX@Z 00543e80 f i Application.obj
 0002:00030f00       ?_Decref@?$_Ptr_base@VIndexBuffer@@@std@@IAEXXZ 00543f00 f i Application.obj
 0002:00030f70       ?_Decref@?$_Ptr_base@VShader@@@std@@IAEXXZ 00543f70 f i Application.obj
 0002:00030fe0       ?_Decref@?$_Ptr_base@VTexture@@@std@@IAEXXZ 00543fe0 f i Application.obj
 0002:00031050       ?_Decref@?$_Ptr_base@VVertexArray@@@std@@IAEXXZ 00544050 f i Application.obj
 0002:000310c0       ?_Decref@?$_Ptr_base@VVertexBuffer@@@std@@IAEXXZ 005440c0 f i Application.obj
 0002:00031130       ?_Decref@_Ref_count_base@std@@QAEXXZ 00544130 f i Application.obj
 0002:000311c0       ?_Decwref@_Ref_count_base@std@@QAEXXZ 005441c0 f i Application.obj
 0002:00031240       ?_Delete_this@?$_Func_impl_no_alloc@V<lambda_1>@?1???$Register@VTestBatchColor@test@@@TestMenu@test@@QAEXABV?$basic_string@DU?$char_traits@D@std@@V?$allocator@D@2@@std@@@Z@V?$unique_ptr@VTest@test@@U?$default_delete@VTest@test@@@std@@@5@$$V@std@@EAEX_N@Z 00544240 f i Application.obj
 0002:000312b0       ?_Delete_this@?$_Func_impl_no_alloc@V<lambda_1>@?1???$Register@VTestBatchMove@test@@@TestMenu@test@@QAEXABV?$basic_string@DU?$char_traits@D@std@@V?$allocator@D@2@@std@@@Z@V?$unique_ptr@VTest@test@@U?$default_delete@VTest@test@@@std@@@5@$$V@std@@EAEX_N@Z 005442b0 f i Application.obj
 0002:00031320       ?_Delete_this@?$_Func_impl_no_alloc@V<lambda_1>@?1???$Register@VTestBatchTexture@test@@@TestMenu@test@@QAEXABV?$basic_string@DU?$char_traits@D@std@@V?$allocator@D@2@@std@@@Z@V?$unique_ptr@VTest@test@@U?$default_delete@VTest@test@@@std@@@5@$$V@std@@EAEX_N@Z 00544320 f i Application.obj
 0002:00031390       ?_Delete_this@?$_Func_impl_no_alloc@V<lambda_1>@?1???$Register@VTestChangeTexture@test@@@TestMenu@test@@QAEXABV?$basic_string@DU?$char_traits@D@std@@V?$allocator@D@2@@std@@@Z@V?$unique_ptr@VTest@test@@U?$default_delete@VTest@test@@@std@@@5@$$V@std@@EAEX_N@Z 00544390 f i Application.obj
 0002:00031400       ?_Delete_this@?$_Func_impl_no_alloc@V<lambda_1>@?1???$Register@VTestClearColor@test@@@TestMenu@test@@QAEXABV?$basic_string@DU?$char_traits@D@std@@V?$allocator@D@2@@std@@@Z@V?$unique_ptr@VTest@test@@U?$default_delete@VTest@test@@@std@@@5@$$V@std@@EAEX_N@Z 00544400 f i Application.obj
 0002:00031470       ?_Do_call@?$_Func_impl_no_alloc@V<lambda_1>@?1???$Register@VTestBatchColor@test@@@TestMenu@test@@QAEXABV?$basic_string@DU?$char_traits@D@std@@V?$allocator@D@2@@std@@@Z@V?$unique_ptr@VTest@test@@U?$default_delete@VTest@test@@@std@@@5@$$V@std@@EAE?AV?$unique_ptr@VTest@test@@U?$default_delete@VTest@test@@@std@@@2@XZ 00544470 f i Application.obj
 0002:00031530       ?_Do_call@?$_Func_impl_no_alloc@V<lambda_1>@?1???$Register@VTestBatchMove@test@@@TestMenu@test@@QAEXABV?$basic_string@DU?$char_traits@D@std@@V?$allocator@D@2@@std@@@Z@V?$unique_ptr@VTest@test@@U?$default_delete@VTest@test@@@std@@@5@$$V@std@@EAE?AV?$unique_ptr@VTest@test@@U?$default_delete@VTest@test@@@std@@@2@XZ 00544530 f i Application.obj
 0002:000315f0       ?_Do_call@?$_Func_impl_no_alloc@V<lambda_1>@?1???$Register@VTestBatchTexture@test@@@TestMenu@test@@QAEXABV?$basic_string@DU?$char_traits@D@std@@V?$allocator@D@2@@std@@@Z@V?$unique_ptr@VTest@test@@U?$default_delete@VTest@test@@@std@@@5@$$V@std@@EAE?AV?$unique_ptr@VTest@test@@U?$default_delete@VTest@test@@@std@@@2@XZ 005445f0 f i Application.obj
 0002:000316b0       ?_Do_call@?$_Func_impl_no_alloc@V<lambda_1>@?1???$Register@VTestChangeTexture@test@@@TestMenu@test@@QAEXABV?$basic_string@DU?$char_traits@D@std@@V?$allocator@D@2@@std@@@Z@V?$unique_ptr@VTest@test@@U?$default_delete@VTest@test@@@std@@@5@$$V@std@@EAE?AV?$unique_ptr@VTest@test@@U?$default_delete@VTest@test@@@std@@@2@XZ 005446b0 f i Application.obj
 0002:00031770       ?_Do_call@?$_Func_impl_no_alloc@V<lambda_1>@?1???$Register@VTestClearColor@test@@@TestMenu@test@@QAEXABV?$basic_string@DU?$char_traits@D@std@@V?$allocator@D@2@@std@@@Z@V?$unique_ptr@VTest@test@@U?$default_delete@VTest@test@@@std@@@5@$$V@std@@EAE?AV?$unique_ptr@VTest@test@@U?$default_delete@VTest@test@@@std@@@2@XZ 00544770 f i Application.obj
 0002:00031830       ?_Empty@?$_Func_class@V?$unique_ptr@VTest@test@@U?$default_delete@VTest@test@@@std@@@std@@$$V@std@@IBE_NXZ 00544830 f i Application.obj
 0002:000318b0       ?_Get@?$_Func_impl_no_alloc@V<lambda_1>@?1???$Register@VTestBatchColor@test@@@TestMenu@test@@QAEXABV?$basic_string@DU?$char_traits@D@std@@V?$allocator@D@2@@std@@@Z@V?$unique_ptr@VTest@test@@U?$default_delete@VTest@test@@@std@@@5@$$V@std@@EBEPBXXZ 005448b0 f i Application.obj
 0002:00031910       ?_Get@?$_Func_impl_no_alloc@V<lambda_1>@?1???$Register@VTestBatchMove@test@@@TestMenu@test@@QAEXABV?$basic_string@DU?$char_traits@D@std@@V?$allocator@D@2@@std@@@Z@V?$unique_ptr@VTest@test@@U?$default_delete@VTest@test@@@std@@@5@$$V@std@@EBEPBXXZ 00544910 f i Application.obj
 0002:00031970       ?_Get@?$_Func_impl_no_alloc@V<lambda_1>@?1???$Register@VTestBatchTexture@test@@@TestMenu@test@@QAEXABV?$basic_string@DU?$char_traits@D@std@@V?$allocator@D@2@@std@@@Z@V?$unique_ptr@VTest@test@@U?$default_delete@VTest@test@@@std@@@5@$$V@std@@EBEPBXXZ 00544970 f i Application.obj
 0002:000319d0       ?_Get@?$_Func_impl_no_alloc@V<lambda_1>@?1???$Register@VTestChangeTexture@test@@@TestMenu@test@@QAEXABV?$basic_string@DU?$char_traits@D@std@@V?$allocator@D@2@@std@@@Z@V?$unique_ptr@VTest@test@@U?$default_delete@VTest@test@@@std@@@5@$$V@std@@EBEPBXXZ 005449d0 f i Application.obj
 0002:00031a30       ?_Get@?$_Func_impl_no_alloc@V<lambda_1>@?1???$Register@VTestClearColor@test@@@TestMenu@test@@QAEXABV?$basic_string@DU?$char_traits@D@std@@V?$allocator@D@2@@std@@@Z@V?$unique_ptr@VTest@test@@U?$default_delete@VTest@test@@@std@@@5@$$V@std@@EBEPBXXZ 00544a30 f i Application.obj
 0002:00031a90       ?_Get_first@?$_Compressed_pair@U?$default_delete@VTest@test@@@std@@PAVTest@test@@$00@std@@QAEAAU?$default_delete@VTest@test@@@2@XZ 00544a90 f i Application.obj
 0002:00031af0       ?_Get_first@?$_Compressed_pair@U?$default_delete@VTestBatchColor@test@@@std@@PAVTestBatchColor@test@@$00@std@@QAEAAU?$default_delete@VTestBatchColor@test@@@2@XZ 00544af0 f i Application.obj
 0002:00031b50       ?_Get_first@?$_Compressed_pair@U?$default_delete@VTestBatchMove@test@@@std@@PAVTestBatchMove@test@@$00@std@@QAEAAU?$default_delete@VTestBatchMove@test@@@2@XZ 00544b50 f i Application.obj
 0002:00031bb0       ?_Get_first@?$_Compressed_pair@U?$default_delete@VTestBatchTexture@test@@@std@@PAVTestBatchTexture@test@@$00@std@@QAEAAU?$default_delete@VTestBatchTexture@test@@@2@XZ 00544bb0 f i Application.obj
 0002:00031c10       ?_Get_first@?$_Compressed_pair@U?$default_delete@VTestChangeTexture@test@@@std@@PAVTestChangeTexture@test@@$00@std@@QAEAAU?$default_delete@VTestChangeTexture@test@@@2@XZ 00544c10 f i Application.obj
 0002:00031c70       ?_Get_first@?$_Compressed_pair@U?$default_delete@VTestClearColor@test@@@std@@PAVTestClearColor@test@@$00@std@@QAEAAU?$default_delete@VTestClearColor@test@@@2@XZ 00544c70 f i Application.obj
 0002:00031cd0       ?_Get_first@?$_Compressed_pair@V?$allocator@M@std@@V?$_Vector_val@U?$_Simple_types@M@std@@@2@$00@std@@QAEAAV?$allocator@M@2@XZ 00544cd0 f i Application.obj
 0002:00031d30       ?_Get_first@?$_Compressed_pair@V?$allocator@M@std@@V?$_Vector_val@U?$_Simple_types@M@std@@@2@$00@std@@QBEABV?$allocator@M@2@XZ 00544d30 f i Application.obj
 0002:00031d90       ?_Get_first@?$_Compressed_pair@V?$allocator@U?$pair@V?$basic_string@DU?$char_traits@D@std@@V?$allocator@D@2@@std@@V?$function@$$A6A?AV?$unique_ptr@VTest@test@@U?$default_delete@VTest@test@@@std@@@std@@XZ@2@@std@@@std@@V?$_Vector_val@U?$_Simple_types@U?$pair@V?$basic_string@DU?$char_traits@D@std@@V?$allocator@D@2@@std@@V?$function@$$A6A?AV?$unique_ptr@VTest@test@@U?$default_delete@VTest@test@@@std@@@std@@XZ@2@@std@@@std@@@2@$00@std@@QAEAAV?$allocator@U?$pair@V?$basic_string@DU?$char_traits@D@std@@V?$allocator@D@2@@std@@V?$function@$$A6A?AV?$unique_ptr@VTest@test@@U?$default_delete@VTest@test@@@std@@@std@@XZ@2@@std@@@2@XZ 00544d90 f i Application.obj
 0002:00031df0       ?_Get_first@?$_Compressed_pair@V?$allocator@U?$pair@V?$basic_string@DU?$char_traits@D@std@@V?$allocator@D@2@@std@@V?$function@$$A6A?AV?$unique_ptr@VTest@test@@U?$default_delete@VTest@test@@@std@@@std@@XZ@2@@std@@@std@@V?$_Vector_val@U?$_Simple_types@U?$pair@V?$basic_string@DU?$char_traits@D@std@@V?$allocator@D@2@@std@@V?$function@$$A6A?AV?$unique_ptr@VTest@test@@U?$default_delete@VTest@test@@@std@@@std@@XZ@2@@std@@@std@@@2@$00@std@@QBEABV?$allocator@U?$pair@V?$basic_string@DU?$char_traits@D@std@@V?$allocator@D@2@@std@@V?$function@$$A6A?AV?$unique_ptr@VTest@test@@U?$default_delete@VTest@test@@@std@@@std@@XZ@2@@std@@@2@XZ 00544df0 f i Application.obj
 0002:00031e50       ?_Getal@?$vector@MV?$allocator@M@std@@@std@@AAEAAV?$allocator@M@2@XZ 00544e50 f i Application.obj
 0002:00031eb0       ?_Getal@?$vector@MV?$allocator@M@std@@@std@@ABEABV?$allocator@M@2@XZ 00544eb0 f i Application.obj
 0002:00031f10       ?_Getal@?$vector@U?$pair@V?$basic_string@DU?$char_traits@D@std@@V?$allocator@D@2@@std@@V?$function@$$A6A?AV?$unique_ptr@VTest@test@@U?$default_delete@VTest@test@@@std@@@std@@XZ@2@@std@@V?$allocator@U?$pair@V?$basic_string@DU?$char_traits@D@std@@V?$allocator@D@2@@std@@V?$function@$$A6A?AV?$unique_ptr@VTest@test@@U?$default_delete@VTest@test@@@std@@@std@@XZ@2@@std@@@2@@std@@AAEAAV?$allocator@U?$pair@V?$basic_string@DU?$char_traits@D@std@@V?$allocator@D@2@@std@@V?$function@$$A6A?AV?$unique_ptr@VTest@test@@U?$default_delete@VTest@test@@@std@@@std@@XZ@2@@std@@@2@XZ 00544f10 f i Application.obj
 0002:00031f70       ?_Getal@?$vector@U?$pair@V?$basic_string@DU?$char_traits@D@std@@V?$allocator@D@2@@std@@V?$function@$$A6A?AV?$unique_ptr@VTest@test@@U?$default_delete@VTest@test@@@std@@@std@@XZ@2@@std@@V?$allocator@U?$pair@V?$basic_string@DU?$char_traits@D@std@@V?$allocator@D@2@@std@@V?$function@$$A6A?AV?$unique_ptr@VTest@test@@U?$default_delete@VTest@test@@@std@@@std@@XZ@2@@std@@@2@@std@@ABEABV?$allocator@U?$pair@V?$basic_string@DU?$char_traits@D@std@@V?$allocator@D@2@@std@@V?$function@$$A6A?AV?$unique_ptr@VTest@test@@U?$default_delete@VTest@test@@@std@@@std@@XZ@2@@std@@@2@XZ 00544f70 f i Application.obj
 0002:00031fd0       ?_Getimpl@?$_Func_class@V?$unique_ptr@VTest@test@@U?$default_delete@VTest@test@@@std@@@std@@$$V@std@@ABEPAV?$_Func_base@V?$unique_ptr@VTest@test@@U?$default_delete@VTest@test@@@std@@@std@@$$V@2@XZ 00544fd0 f i Application.obj
 0002:00032030       ?_Incref@?$_Ptr_base@VIndexBuffer@@@std@@IBEXXZ 00545030 f i Application.obj
 0002:000320a0       ?_Incref@?$_Ptr_base@VShader@@@std@@IBEXXZ 005450a0 f i Application.obj
 0002:00032110       ?_Incref@?$_Ptr_base@VTexture@@@std@@IBEXXZ 00545110 f i Application.obj
 0002:00032180       ?_Incref@?$_Ptr_base@VVertexArray@@@std@@IBEXXZ 00545180 f i Application.obj
 0002:000321f0       ?_Incref@?$_Ptr_base@VVertexBuffer@@@std@@IBEXXZ 005451f0 f i Application.obj
 0002:00032260       ?_Incref@_Ref_count_base@std@@QAEXXZ 00545260 f i Application.obj
 0002:000322c0       ?_Local@?$_Func_class@V?$unique_ptr@VTest@test@@U?$default_delete@VTest@test@@@std@@@std@@$$V@std@@ABE_NXZ 005452c0 f i Application.obj
 0002:00032340       ?_Maklocwcs@std@@YAPA_WPB_W@Z 00545340 f i Application.obj
 0002:00032400       ?_Move@?$_Func_impl_no_alloc@V<lambda_1>@?1???$Register@VTestBatchColor@test@@@TestMenu@test@@QAEXABV?$basic_string@DU?$char_traits@D@std@@V?$allocator@D@2@@std@@@Z@V?$unique_ptr@VTest@test@@U?$default_delete@VTest@test@@@std@@@5@$$V@std@@EAEPAV?$_Func_base@V?$unique_ptr@VTest@test@@U?$default_delete@VTest@test@@@std@@@std@@$$V@2@PAX@Z 00545400 f i Application.obj
 0002:000324d0       ?_Move@?$_Func_impl_no_alloc@V<lambda_1>@?1???$Register@VTestBatchMove@test@@@TestMenu@test@@QAEXABV?$basic_string@DU?$char_traits@D@std@@V?$allocator@D@2@@std@@@Z@V?$unique_ptr@VTest@test@@U?$default_delete@VTest@test@@@std@@@5@$$V@std@@EAEPAV?$_Func_base@V?$unique_ptr@VTest@test@@U?$default_delete@VTest@test@@@std@@@std@@$$V@2@PAX@Z 005454d0 f i Application.obj
 0002:000325a0       ?_Move@?$_Func_impl_no_alloc@V<lambda_1>@?1???$Register@VTestBatchTexture@test@@@TestMenu@test@@QAEXABV?$basic_string@DU?$char_traits@D@std@@V?$allocator@D@2@@std@@@Z@V?$unique_ptr@VTest@test@@U?$default_delete@VTest@test@@@std@@@5@$$V@std@@EAEPAV?$_Func_base@V?$unique_ptr@VTest@test@@U?$default_delete@VTest@test@@@std@@@std@@$$V@2@PAX@Z 005455a0 f i Application.obj
 0002:00032670       ?_Move@?$_Func_impl_no_alloc@V<lambda_1>@?1???$Register@VTestChangeTexture@test@@@TestMenu@test@@QAEXABV?$basic_string@DU?$char_traits@D@std@@V?$allocator@D@2@@std@@@Z@V?$unique_ptr@VTest@test@@U?$default_delete@VTest@test@@@std@@@5@$$V@std@@EAEPAV?$_Func_base@V?$unique_ptr@VTest@test@@U?$default_delete@VTest@test@@@std@@@std@@$$V@2@PAX@Z 00545670 f i Application.obj
 0002:00032740       ?_Move@?$_Func_impl_no_alloc@V<lambda_1>@?1???$Register@VTestClearColor@test@@@TestMenu@test@@QAEXABV?$basic_string@DU?$char_traits@D@std@@V?$allocator@D@2@@std@@@Z@V?$unique_ptr@VTest@test@@U?$default_delete@VTest@test@@@std@@@5@$$V@std@@EAEPAV?$_Func_base@V?$unique_ptr@VTest@test@@U?$default_delete@VTest@test@@@std@@@std@@$$V@2@PAX@Z 00545740 f i Application.obj
 0002:00032810       ?_Orphan_range@?$vector@U?$pair@V?$basic_string@DU?$char_traits@D@std@@V?$allocator@D@2@@std@@V?$function@$$A6A?AV?$unique_ptr@VTest@test@@U?$default_delete@VTest@test@@@std@@@std@@XZ@2@@std@@V?$allocator@U?$pair@V?$basic_string@DU?$char_traits@D@std@@V?$allocator@D@2@@std@@V?$function@$$A6A?AV?$unique_ptr@VTest@test@@U?$default_delete@VTest@test@@@std@@@std@@XZ@2@@std@@@2@@std@@ABEXPAU?$pair@V?$basic_string@DU?$char_traits@D@std@@V?$allocator@D@2@@std@@V?$function@$$A6A?AV?$unique_ptr@VTest@test@@U?$default_delete@VTest@test@@@std@@@std@@XZ@2@@2@0@Z 00545810 f i Application.obj
 0002:00032860       ?_Release@?$_Uninitialized_backout_al@V?$allocator@M@std@@@std@@QAEPAMXZ 00545860 f i Application.obj
 0002:000328d0       ?_Release@?$_Uninitialized_backout_al@V?$allocator@U?$pair@V?$basic_string@DU?$char_traits@D@std@@V?$allocator@D@2@@std@@V?$function@$$A6A?AV?$unique_ptr@VTest@test@@U?$default_delete@VTest@test@@@std@@@std@@XZ@2@@std@@@std@@@std@@QAEPAU?$pair@V?$basic_string@DU?$char_traits@D@std@@V?$allocator@D@2@@std@@V?$function@$$A6A?AV?$unique_ptr@VTest@test@@U?$default_delete@VTest@test@@@std@@@std@@XZ@2@@2@XZ 005458d0 f i Application.obj
 0002:00032940       ?_Reset_move@?$_Func_class@V?$unique_ptr@VTest@test@@U?$default_delete@VTest@test@@@std@@@std@@$$V@std@@IAEX$$QAV12@@Z 00545940 f i Application.obj
 0002:00032a30       ?_Set@?$_Func_class@V?$unique_ptr@VTest@test@@U?$default_delete@VTest@test@@@std@@@std@@$$V@std@@AAEXPAV?$_Func_base@V?$unique_ptr@VTest@test@@U?$default_delete@VTest@test@@@std@@@std@@$$V@2@@Z 00545a30 f i Application.obj
 0002:00032aa0       ?_Target_type@?$_Func_impl_no_alloc@V<lambda_1>@?1???$Register@VTestBatchColor@test@@@TestMenu@test@@QAEXABV?$basic_string@DU?$char_traits@D@std@@V?$allocator@D@2@@std@@@Z@V?$unique_ptr@VTest@test@@U?$default_delete@VTest@test@@@std@@@5@$$V@std@@EBEABVtype_info@@XZ 00545aa0 f i Application.obj
 0002:00032b00       ?_Target_type@?$_Func_impl_no_alloc@V<lambda_1>@?1???$Register@VTestBatchMove@test@@@TestMenu@test@@QAEXABV?$basic_string@DU?$char_traits@D@std@@V?$allocator@D@2@@std@@@Z@V?$unique_ptr@VTest@test@@U?$default_delete@VTest@test@@@std@@@5@$$V@std@@EBEABVtype_info@@XZ 00545b00 f i Application.obj
 0002:00032b60       ?_Target_type@?$_Func_impl_no_alloc@V<lambda_1>@?1???$Register@VTestBatchTexture@test@@@TestMenu@test@@QAEXABV?$basic_string@DU?$char_traits@D@std@@V?$allocator@D@2@@std@@@Z@V?$unique_ptr@VTest@test@@U?$default_delete@VTest@test@@@std@@@5@$$V@std@@EBEABVtype_info@@XZ 00545b60 f i Application.obj
 0002:00032bc0       ?_Target_type@?$_Func_impl_no_alloc@V<lambda_1>@?1???$Register@VTestChangeTexture@test@@@TestMenu@test@@QAEXABV?$basic_string@DU?$char_traits@D@std@@V?$allocator@D@2@@std@@@Z@V?$unique_ptr@VTest@test@@U?$default_delete@VTest@test@@@std@@@5@$$V@std@@EBEABVtype_info@@XZ 00545bc0 f i Application.obj
 0002:00032c20       ?_Target_type@?$_Func_impl_no_alloc@V<lambda_1>@?1???$Register@VTestClearColor@test@@@TestMenu@test@@QAEXABV?$basic_string@DU?$char_traits@D@std@@V?$allocator@D@2@@std@@@Z@V?$unique_ptr@VTest@test@@U?$default_delete@VTest@test@@@std@@@5@$$V@std@@EBEABVtype_info@@XZ 00545c20 f i Application.obj
 0002:00032c80       ?_Tidy@?$_Func_class@V?$unique_ptr@VTest@test@@U?$default_delete@VTest@test@@@std@@@std@@$$V@std@@IAEXXZ 00545c80 f i Application.obj
 0002:00032d60       ?_Tidy@?$vector@MV?$allocator@M@std@@@std@@AAEXXZ 00545d60 f i Application.obj
 0002:00032ea0       ?_Tidy@?$vector@U?$pair@V?$basic_string@DU?$char_traits@D@std@@V?$allocator@D@2@@std@@V?$function@$$A6A?AV?$unique_ptr@VTest@test@@U?$default_delete@VTest@test@@@std@@@std@@XZ@2@@std@@V?$allocator@U?$pair@V?$basic_string@DU?$char_traits@D@std@@V?$allocator@D@2@@std@@V?$function@$$A6A?AV?$unique_ptr@VTest@test@@U?$default_delete@VTest@test@@@std@@@std@@XZ@2@@std@@@2@@std@@AAEXXZ 00545ea0 f i Application.obj
 0002:00032fe0       ?_Xlength@?$vector@MV?$allocator@M@std@@@std@@CAXXZ 00545fe0 f i Application.obj
 0002:00033030       ?_Xlength@?$vector@U?$pair@V?$basic_string@DU?$char_traits@D@std@@V?$allocator@D@2@@std@@V?$function@$$A6A?AV?$unique_ptr@VTest@test@@U?$default_delete@VTest@test@@@std@@@std@@XZ@2@@std@@V?$allocator@U?$pair@V?$basic_string@DU?$char_traits@D@std@@V?$allocator@D@2@@std@@V?$function@$$A6A?AV?$unique_ptr@VTest@test@@U?$default_delete@VTest@test@@@std@@@std@@XZ@2@@std@@@2@@std@@CAXXZ 00546030 f i Application.obj
 0002:00033080       ?__autoclassinit2@?$_Uninitialized_backout_al@V?$allocator@M@std@@@std@@QAEXI@Z 00546080 f i Application.obj
 0002:000330e0       ?__autoclassinit2@?$_Uninitialized_backout_al@V?$allocator@U?$pair@V?$basic_string@DU?$char_traits@D@std@@V?$allocator@D@2@@std@@V?$function@$$A6A?AV?$unique_ptr@VTest@test@@U?$default_delete@VTest@test@@@std@@@std@@XZ@2@@std@@@std@@@std@@QAEXI@Z 005460e0 f i Application.obj
 0002:00033140       ?__autoclassinit2@?$vector@MV?$allocator@M@std@@@std@@QAEXI@Z 00546140 f i Application.obj
 0002:000331a0       ?__autoclassinit2@TestBatchColor@test@@QAEXI@Z 005461a0 f i Application.obj
 0002:00033200       ?__autoclassinit2@TestBatchMove@test@@QAEXI@Z 00546200 f i Application.obj
 0002:00033260       ?__autoclassinit2@TestBatchTexture@test@@QAEXI@Z 00546260 f i Application.obj
 0002:000332c0       ?__autoclassinit2@TestChangeTexture@test@@QAEXI@Z 005462c0 f i Application.obj
 0002:00033320       ?__autoclassinit2@TestMenu@test@@QAEXI@Z 00546320 f i Application.obj
 0002:00033380       ?_grow_capacity@?$ImVector@G@@QBEHH@Z 00546380 f i Application.obj
 0002:00033440       ?abs@@YAMM@Z               00546440 f i Application.obj
 0002:000334a0       ?allocate@?$allocator@M@std@@QAEPAMI@Z 005464a0 f i Application.obj
 0002:00033510       ?allocate@?$allocator@U?$pair@V?$basic_string@DU?$char_traits@D@std@@V?$allocator@D@2@@std@@V?$function@$$A6A?AV?$unique_ptr@VTest@test@@U?$default_delete@VTest@test@@@std@@@std@@XZ@2@@std@@@std@@QAEPAU?$pair@V?$basic_string@DU?$char_traits@D@std@@V?$allocator@D@2@@std@@V?$function@$$A6A?AV?$unique_ptr@VTest@test@@U?$default_delete@VTest@test@@@std@@@std@@XZ@2@@2@I@Z 00546510 f i Application.obj
 0002:00033580       ?capacity@?$vector@U?$pair@V?$basic_string@DU?$char_traits@D@std@@V?$allocator@D@2@@std@@V?$function@$$A6A?AV?$unique_ptr@VTest@test@@U?$default_delete@VTest@test@@@std@@@std@@XZ@2@@std@@V?$allocator@U?$pair@V?$basic_string@DU?$char_traits@D@std@@V?$allocator@D@2@@std@@V?$function@$$A6A?AV?$unique_ptr@VTest@test@@U?$default_delete@VTest@test@@@std@@@std@@XZ@2@@std@@@2@@std@@QBEIXZ 00546580 f i Application.obj
 0002:000335f0       ?clear@?$ImVector@G@@QAEXXZ 005465f0 f i Application.obj
 0002:00033680       ?cloth_update@@YA@PAM0I0I_N@Z 00546680 f   Application.obj
 0002:00033be0       ?compute_constraint@@YA@PAMI0I@Z 00546be0 f   Application.obj
 0002:00033f70       ?compute_obstruct@@YA@PAMI0I@Z 00546f70 f   Application.obj
 0002:00034280       ?deallocate@?$allocator@M@std@@QAEXQAMI@Z 00547280 f i Application.obj
 0002:000342f0       ?deallocate@?$allocator@U?$pair@V?$basic_string@DU?$char_traits@D@std@@V?$allocator@D@2@@std@@V?$function@$$A6A?AV?$unique_ptr@VTest@test@@U?$default_delete@VTest@test@@@std@@@std@@XZ@2@@std@@@std@@QAEXQAU?$pair@V?$basic_string@DU?$char_traits@D@std@@V?$allocator@D@2@@std@@V?$function@$$A6A?AV?$unique_ptr@VTest@test@@U?$default_delete@VTest@test@@@std@@@std@@XZ@2@@2@I@Z 005472f0 f i Application.obj
 0002:00034360       ?dist@@YA@PAMII@Z          00547360 f   Application.obj
 0002:00034480       ?get_deleter@?$unique_ptr@VTest@test@@U?$default_delete@VTest@test@@@std@@@std@@QAEAAU?$default_delete@VTest@test@@@2@XZ 00547480 f i Application.obj
 0002:000344e0       ?get_deleter@?$unique_ptr@VTestBatchColor@test@@U?$default_delete@VTestBatchColor@test@@@std@@@std@@QAEAAU?$default_delete@VTestBatchColor@test@@@2@XZ 005474e0 f i Application.obj
 0002:00034540       ?get_deleter@?$unique_ptr@VTestBatchMove@test@@U?$default_delete@VTestBatchMove@test@@@std@@@std@@QAEAAU?$default_delete@VTestBatchMove@test@@@2@XZ 00547540 f i Application.obj
 0002:000345a0       ?get_deleter@?$unique_ptr@VTestBatchTexture@test@@U?$default_delete@VTestBatchTexture@test@@@std@@@std@@QAEAAU?$default_delete@VTestBatchTexture@test@@@2@XZ 005475a0 f i Application.obj
 0002:00034600       ?get_deleter@?$unique_ptr@VTestChangeTexture@test@@U?$default_delete@VTestChangeTexture@test@@@std@@@std@@QAEAAU?$default_delete@VTestChangeTexture@test@@@2@XZ 00547600 f i Application.obj
 0002:00034660       ?get_deleter@?$unique_ptr@VTestClearColor@test@@U?$default_delete@VTestClearColor@test@@@std@@@std@@QAEAAU?$default_delete@VTestClearColor@test@@@2@XZ 00547660 f i Application.obj
 0002:000346c0       ?max_size@?$_Default_allocator_traits@V?$allocator@M@std@@@std@@SAIABV?$allocator@M@2@@Z 005476c0 f i Application.obj
 0002:00034710       ?max_size@?$_Default_allocator_traits@V?$allocator@U?$pair@V?$basic_string@DU?$char_traits@D@std@@V?$allocator@D@2@@std@@V?$function@$$A6A?AV?$unique_ptr@VTest@test@@U?$default_delete@VTest@test@@@std@@@std@@XZ@2@@std@@@std@@@std@@SAIABV?$allocator@U?$pair@V?$basic_string@DU?$char_traits@D@std@@V?$allocator@D@2@@std@@V?$function@$$A6A?AV?$unique_ptr@VTest@test@@U?$default_delete@VTest@test@@@std@@@std@@XZ@2@@std@@@2@@Z 00547710 f i Application.obj
 0002:00034760       ?max_size@?$vector@MV?$allocator@M@std@@@std@@QBEIXZ 00547760 f i Application.obj
 0002:00034800       ?max_size@?$vector@U?$pair@V?$basic_string@DU?$char_traits@D@std@@V?$allocator@D@2@@std@@V?$function@$$A6A?AV?$unique_ptr@VTest@test@@U?$default_delete@VTest@test@@@std@@@std@@XZ@2@@std@@V?$allocator@U?$pair@V?$basic_string@DU?$char_traits@D@std@@V?$allocator@D@2@@std@@V?$function@$$A6A?AV?$unique_ptr@VTest@test@@U?$default_delete@VTest@test@@@std@@@std@@XZ@2@@std@@@2@@std@@QBEIXZ 00547800 f i Application.obj
 0002:000348a0       ?pow@@YAMMM@Z              005478a0 f i Application.obj
 0002:00034910       ?push_back@?$vector@U?$pair@V?$basic_string@DU?$char_traits@D@std@@V?$allocator@D@2@@std@@V?$function@$$A6A?AV?$unique_ptr@VTest@test@@U?$default_delete@VTest@test@@@std@@@std@@XZ@2@@std@@V?$allocator@U?$pair@V?$basic_string@DU?$char_traits@D@std@@V?$allocator@D@2@@std@@V?$function@$$A6A?AV?$unique_ptr@VTest@test@@U?$default_delete@VTest@test@@@std@@@std@@XZ@2@@std@@@2@@std@@QAEX$$QAU?$pair@V?$basic_string@DU?$char_traits@D@std@@V?$allocator@D@2@@std@@V?$function@$$A6A?AV?$unique_ptr@VTest@test@@U?$default_delete@VTest@test@@@std@@@std@@XZ@2@@2@@Z 00547910 f i Application.obj
 0002:00034980       ?release@?$unique_ptr@VTest@test@@U?$default_delete@VTest@test@@@std@@@std@@QAEPAVTest@test@@XZ 00547980 f i Application.obj
 0002:00034a00       ?release@?$unique_ptr@VTestBatchColor@test@@U?$default_delete@VTestBatchColor@test@@@std@@@std@@QAEPAVTestBatchColor@test@@XZ 00547a00 f i Application.obj
 0002:00034a80       ?release@?$unique_ptr@VTestBatchMove@test@@U?$default_delete@VTestBatchMove@test@@@std@@@std@@QAEPAVTestBatchMove@test@@XZ 00547a80 f i Application.obj
 0002:00034b00       ?release@?$unique_ptr@VTestBatchTexture@test@@U?$default_delete@VTestBatchTexture@test@@@std@@@std@@QAEPAVTestBatchTexture@test@@XZ 00547b00 f i Application.obj
 0002:00034b80       ?release@?$unique_ptr@VTestChangeTexture@test@@U?$default_delete@VTestChangeTexture@test@@@std@@@std@@QAEPAVTestChangeTexture@test@@XZ 00547b80 f i Application.obj
 0002:00034c00       ?release@?$unique_ptr@VTestClearColor@test@@U?$default_delete@VTestClearColor@test@@@std@@@std@@QAEPAVTestClearColor@test@@XZ 00547c00 f i Application.obj
 0002:00034c80       ?reserve@?$ImVector@G@@QAEXH@Z 00547c80 f i Application.obj
 0002:00034d50       ?resize@?$ImVector@G@@QAEXH@Z 00547d50 f i Application.obj
 0002:00034de0       ?sqrt@@YAMM@Z              00547de0 f i Application.obj
 0002:00034e40       _fabsf                     00547e40 f i Application.obj
 0002:00034eb0       _main                      00547eb0 f   Application.obj
 0002:00035400       _powf                      00548400 f i Application.obj
 0002:00035480       _sqrtf                     00548480 f i Application.obj
 0002:000354f0       _wmemcpy                   005484f0 f i Application.obj
 0002:00035550       ??$?4U?$default_delete@VTest@test@@@std@@$0A@@?$unique_ptr@VTest@test@@U?$default_delete@VTest@test@@@std@@@std@@QAEAAV01@$$QAV01@@Z 00548550 f i Test.obj
 0002:000355f0       ??$_Pocca@V?$allocator@D@std@@@std@@YAXAAV?$allocator@D@0@ABV10@@Z 005485f0 f i Test.obj
 0002:00035640       ??$addressof@$$CBV?$basic_string@DU?$char_traits@D@std@@V?$allocator@D@2@@std@@@std@@YAPBV?$basic_string@DU?$char_traits@D@std@@V?$allocator@D@2@@0@ABV10@@Z 00548640 f i Test.obj
 0002:00035690       ??$addressof@V?$unique_ptr@VTest@test@@U?$default_delete@VTest@test@@@std@@@std@@@std@@YAPAV?$unique_ptr@VTest@test@@U?$default_delete@VTest@test@@@std@@@0@AAV10@@Z 00548690 f i Test.obj
 0002:000356e0       ??$exchange@PAVTest@test@@AAPAV12@@std@@YAPAVTest@test@@AAPAV12@0@Z 005486e0 f i Test.obj
 0002:00035750       ??0ImVec2@@QAE@MM@Z        00548750 f i Test.obj
 0002:000357a0       ??4?$basic_string@DU?$char_traits@D@std@@V?$allocator@D@2@@std@@QAEAAV01@ABV01@@Z 005487a0 f i Test.obj
 0002:00035860       ??B?$unique_ptr@VTest@test@@U?$default_delete@VTest@test@@@std@@@std@@QBE_NXZ 00548860 f i Test.obj
 0002:000358e0       ??C?$unique_ptr@VTest@test@@U?$default_delete@VTest@test@@@std@@@std@@QBEPAVTest@test@@XZ 005488e0 f i Test.obj
 0002:00035940       ??R?$_Func_class@V?$unique_ptr@VTest@test@@U?$default_delete@VTest@test@@@std@@@std@@$$V@std@@QBE?AV?$unique_ptr@VTest@test@@U?$default_delete@VTest@test@@@std@@@1@XZ 00548940 f i Test.obj
 0002:00035a30       ?OnImGuiRender@TestMenu@test@@UAEXXZ 00548a30 f   Test.obj
 0002:00035c60       ?OnRender@TestMenu@test@@UAEXXZ 00548c60 f   Test.obj
 0002:00035dd0       ?OnUpdate@TestMenu@test@@UAEXM@Z 00548dd0 f   Test.obj
 0002:00035ea0       ?_Unchecked_begin@?$vector@U?$pair@V?$basic_string@DU?$char_traits@D@std@@V?$allocator@D@2@@std@@V?$function@$$A6A?AV?$unique_ptr@VTest@test@@U?$default_delete@VTest@test@@@std@@@std@@XZ@2@@std@@V?$allocator@U?$pair@V?$basic_string@DU?$char_traits@D@std@@V?$allocator@D@2@@std@@V?$function@$$A6A?AV?$unique_ptr@VTest@test@@U?$default_delete@VTest@test@@@std@@@std@@XZ@2@@std@@@2@@std@@QAEPAU?$pair@V?$basic_string@DU?$char_traits@D@std@@V?$allocator@D@2@@std@@V?$function@$$A6A?AV?$unique_ptr@VTest@test@@U?$default_delete@VTest@test@@@std@@@std@@XZ@2@@2@XZ 00548ea0 f i Test.obj
 0002:00035f00       ?_Unchecked_end@?$vector@U?$pair@V?$basic_string@DU?$char_traits@D@std@@V?$allocator@D@2@@std@@V?$function@$$A6A?AV?$unique_ptr@VTest@test@@U?$default_delete@VTest@test@@@std@@@std@@XZ@2@@std@@V?$allocator@U?$pair@V?$basic_string@DU?$char_traits@D@std@@V?$allocator@D@2@@std@@V?$function@$$A6A?AV?$unique_ptr@VTest@test@@U?$default_delete@VTest@test@@@std@@@std@@XZ@2@@std@@@2@@std@@QAEPAU?$pair@V?$basic_string@DU?$char_traits@D@std@@V?$allocator@D@2@@std@@V?$function@$$A6A?AV?$unique_ptr@VTest@test@@U?$default_delete@VTest@test@@@std@@@std@@XZ@2@@2@XZ 00548f00 f i Test.obj
 0002:00035f60       ?reset@?$unique_ptr@VTest@test@@U?$default_delete@VTest@test@@@std@@@std@@QAEXPAVTest@test@@@Z 00548f60 f i Test.obj
 0002:00035ff0       ??$?0$$V@?$_Compressed_pair@V?$allocator@UVertexBufferElements@@@std@@V?$_Vector_val@U?$_Simple_types@UVertexBufferElements@@@std@@@2@$00@std@@QAE@U_Zero_then_variadic_args_t@1@@Z 00548ff0 f i TestBatchColor.obj
 0002:00036060       ??$?0AAPAVIndexBuffer@@@?$_Compressed_pair@U?$default_delete@VIndexBuffer@@@std@@PAVIndexBuffer@@$00@std@@QAE@U_Zero_then_variadic_args_t@1@AAPAVIndexBuffer@@@Z 00549060 f i TestBatchColor.obj
 0002:000360d0       ??$?0AAPAVShader@@@?$_Compressed_pair@U?$default_delete@VShader@@@std@@PAVShader@@$00@std@@QAE@U_Zero_then_variadic_args_t@1@AAPAVShader@@@Z 005490d0 f i TestBatchColor.obj
 0002:00036140       ??$?0AAPAVTexture@@@?$_Compressed_pair@U?$default_delete@VTexture@@@std@@PAVTexture@@$00@std@@QAE@U_Zero_then_variadic_args_t@1@AAPAVTexture@@@Z 00549140 f i TestBatchColor.obj
 0002:000361b0       ??$?0AAPAVVertexArray@@@?$_Compressed_pair@U?$default_delete@VVertexArray@@@std@@PAVVertexArray@@$00@std@@QAE@U_Zero_then_variadic_args_t@1@AAPAVVertexArray@@@Z 005491b0 f i TestBatchColor.obj
 0002:00036220       ??$?0AAPAVVertexBuffer@@@?$_Compressed_pair@U?$default_delete@VVertexBuffer@@@std@@PAVVertexBuffer@@$00@std@@QAE@U_Zero_then_variadic_args_t@1@AAPAVVertexBuffer@@@Z 00549220 f i TestBatchColor.obj
 0002:00036290       ??$?0HHHM@?$vec@$03M$0A@@glm@@QAE@HHHM@Z 00549290 f i TestBatchColor.obj
 0002:00036330       ??$?0HHMH@?$vec@$03M$0A@@glm@@QAE@HHMH@Z 00549330 f i TestBatchColor.obj
 0002:000363d0       ??$?0HMHH@?$vec@$03M$0A@@glm@@QAE@HMHH@Z 005493d0 f i TestBatchColor.obj
 0002:00036470       ??$?0MHHH@?$vec@$03M$0A@@glm@@QAE@MHHH@Z 00549470 f i TestBatchColor.obj
 0002:00036510       ??$?0U?$default_delete@VIndexBuffer@@@std@@$0A@@?$unique_ptr@VIndexBuffer@@U?$default_delete@VIndexBuffer@@@std@@@std@@QAE@$$QAV01@@Z 00549510 f i TestBatchColor.obj
 0002:000365b0       ??$?0U?$default_delete@VIndexBuffer@@@std@@$0A@@?$unique_ptr@VIndexBuffer@@U?$default_delete@VIndexBuffer@@@std@@@std@@QAE@PAVIndexBuffer@@@Z 005495b0 f i TestBatchColor.obj
 0002:00036620       ??$?0U?$default_delete@VIndexBuffer@@@std@@AAPAVIndexBuffer@@@?$_Compressed_pair@U?$default_delete@VIndexBuffer@@@std@@PAVIndexBuffer@@$00@std@@QAE@U_One_then_variadic_args_t@1@$$QAU?$default_delete@VIndexBuffer@@@1@AAPAVIndexBuffer@@@Z 00549620 f i TestBatchColor.obj
 0002:000366a0       ??$?0U?$default_delete@VIndexBuffer@@@std@@PAVIndexBuffer@@@?$_Compressed_pair@U?$default_delete@VIndexBuffer@@@std@@PAVIndexBuffer@@$00@std@@QAE@U_One_then_variadic_args_t@1@$$QAU?$default_delete@VIndexBuffer@@@1@$$QAPAVIndexBuffer@@@Z 005496a0 f i TestBatchColor.obj
 0002:00036720       ??$?0U?$default_delete@VShader@@@std@@$0A@@?$unique_ptr@VShader@@U?$default_delete@VShader@@@std@@@std@@QAE@$$QAV01@@Z 00549720 f i TestBatchColor.obj
 0002:000367c0       ??$?0U?$default_delete@VShader@@@std@@$0A@@?$unique_ptr@VShader@@U?$default_delete@VShader@@@std@@@std@@QAE@PAVShader@@@Z 005497c0 f i TestBatchColor.obj
 0002:00036830       ??$?0U?$default_delete@VShader@@@std@@AAPAVShader@@@?$_Compressed_pair@U?$default_delete@VShader@@@std@@PAVShader@@$00@std@@QAE@U_One_then_variadic_args_t@1@$$QAU?$default_delete@VShader@@@1@AAPAVShader@@@Z 00549830 f i TestBatchColor.obj
 0002:000368b0       ??$?0U?$default_delete@VShader@@@std@@PAVShader@@@?$_Compressed_pair@U?$default_delete@VShader@@@std@@PAVShader@@$00@std@@QAE@U_One_then_variadic_args_t@1@$$QAU?$default_delete@VShader@@@1@$$QAPAVShader@@@Z 005498b0 f i TestBatchColor.obj
 0002:00036930       ??$?0U?$default_delete@VTexture@@@std@@$0A@@?$unique_ptr@VTexture@@U?$default_delete@VTexture@@@std@@@std@@QAE@$$QAV01@@Z 00549930 f i TestBatchColor.obj
 0002:000369d0       ??$?0U?$default_delete@VTexture@@@std@@$0A@@?$unique_ptr@VTexture@@U?$default_delete@VTexture@@@std@@@std@@QAE@PAVTexture@@@Z 005499d0 f i TestBatchColor.obj
 0002:00036a40       ??$?0U?$default_delete@VTexture@@@std@@AAPAVTexture@@@?$_Compressed_pair@U?$default_delete@VTexture@@@std@@PAVTexture@@$00@std@@QAE@U_One_then_variadic_args_t@1@$$QAU?$default_delete@VTexture@@@1@AAPAVTexture@@@Z 00549a40 f i TestBatchColor.obj
 0002:00036ac0       ??$?0U?$default_delete@VTexture@@@std@@PAVTexture@@@?$_Compressed_pair@U?$default_delete@VTexture@@@std@@PAVTexture@@$00@std@@QAE@U_One_then_variadic_args_t@1@$$QAU?$default_delete@VTexture@@@1@$$QAPAVTexture@@@Z 00549ac0 f i TestBatchColor.obj
 0002:00036b40       ??$?0U?$default_delete@VVertexArray@@@std@@$0A@@?$unique_ptr@VVertexArray@@U?$default_delete@VVertexArray@@@std@@@std@@QAE@$$QAV01@@Z 00549b40 f i TestBatchColor.obj
 0002:00036be0       ??$?0U?$default_delete@VVertexArray@@@std@@$0A@@?$unique_ptr@VVertexArray@@U?$default_delete@VVertexArray@@@std@@@std@@QAE@PAVVertexArray@@@Z 00549be0 f i TestBatchColor.obj
 0002:00036c50       ??$?0U?$default_delete@VVertexArray@@@std@@AAPAVVertexArray@@@?$_Compressed_pair@U?$default_delete@VVertexArray@@@std@@PAVVertexArray@@$00@std@@QAE@U_One_then_variadic_args_t@1@$$QAU?$default_delete@VVertexArray@@@1@AAPAVVertexArray@@@Z 00549c50 f i TestBatchColor.obj
 0002:00036cd0       ??$?0U?$default_delete@VVertexArray@@@std@@PAVVertexArray@@@?$_Compressed_pair@U?$default_delete@VVertexArray@@@std@@PAVVertexArray@@$00@std@@QAE@U_One_then_variadic_args_t@1@$$QAU?$default_delete@VVertexArray@@@1@$$QAPAVVertexArray@@@Z 00549cd0 f i TestBatchColor.obj
 0002:00036d50       ??$?0U?$default_delete@VVertexBuffer@@@std@@$0A@@?$unique_ptr@VVertexBuffer@@U?$default_delete@VVertexBuffer@@@std@@@std@@QAE@$$QAV01@@Z 00549d50 f i TestBatchColor.obj
 0002:00036df0       ??$?0U?$default_delete@VVertexBuffer@@@std@@$0A@@?$unique_ptr@VVertexBuffer@@U?$default_delete@VVertexBuffer@@@std@@@std@@QAE@PAVVertexBuffer@@@Z 00549df0 f i TestBatchColor.obj
 0002:00036e60       ??$?0U?$default_delete@VVertexBuffer@@@std@@AAPAVVertexBuffer@@@?$_Compressed_pair@U?$default_delete@VVertexBuffer@@@std@@PAVVertexBuffer@@$00@std@@QAE@U_One_then_variadic_args_t@1@$$QAU?$default_delete@VVertexBuffer@@@1@AAPAVVertexBuffer@@@Z 00549e60 f i TestBatchColor.obj
 0002:00036ee0       ??$?0U?$default_delete@VVertexBuffer@@@std@@PAVVertexBuffer@@@?$_Compressed_pair@U?$default_delete@VVertexBuffer@@@std@@PAVVertexBuffer@@$00@std@@QAE@U_One_then_variadic_args_t@1@$$QAU?$default_delete@VVertexBuffer@@@1@$$QAPAVVertexBuffer@@@Z 00549ee0 f i TestBatchColor.obj
 0002:00036f60       ??$?0VIndexBuffer@@U?$default_delete@VIndexBuffer@@@std@@$0A@@?$shared_ptr@VIndexBuffer@@@std@@QAE@$$QAV?$unique_ptr@VIndexBuffer@@U?$default_delete@VIndexBuffer@@@std@@@1@@Z 00549f60 f i TestBatchColor.obj
 0002:000370e0       ??$?0VShader@@U?$default_delete@VShader@@@std@@$0A@@?$shared_ptr@VShader@@@std@@QAE@$$QAV?$unique_ptr@VShader@@U?$default_delete@VShader@@@std@@@1@@Z 0054a0e0 f i TestBatchColor.obj
 0002:00037260       ??$?0VTexture@@U?$default_delete@VTexture@@@std@@$0A@@?$shared_ptr@VTexture@@@std@@QAE@$$QAV?$unique_ptr@VTexture@@U?$default_delete@VTexture@@@std@@@1@@Z 0054a260 f i TestBatchColor.obj
 0002:000373e0       ??$?0VVertexArray@@U?$default_delete@VVertexArray@@@std@@$0A@@?$shared_ptr@VVertexArray@@@std@@QAE@$$QAV?$unique_ptr@VVertexArray@@U?$default_delete@VVertexArray@@@std@@@1@@Z 0054a3e0 f i TestBatchColor.obj
 0002:00037560       ??$?0VVertexBuffer@@U?$default_delete@VVertexBuffer@@@std@@$0A@@?$shared_ptr@VVertexBuffer@@@std@@QAE@$$QAV?$unique_ptr@VVertexBuffer@@U?$default_delete@VVertexBuffer@@@std@@@1@@Z 0054a560 f i TestBatchColor.obj
 0002:000376e0       ??$?4VIndexBuffer@@U?$default_delete@VIndexBuffer@@@std@@$0A@@?$shared_ptr@VIndexBuffer@@@std@@QAEAAV01@$$QAV?$unique_ptr@VIndexBuffer@@U?$default_delete@VIndexBuffer@@@std@@@1@@Z 0054a6e0 f i TestBatchColor.obj
 0002:00037780       ??$?4VShader@@U?$default_delete@VShader@@@std@@$0A@@?$shared_ptr@VShader@@@std@@QAEAAV01@$$QAV?$unique_ptr@VShader@@U?$default_delete@VShader@@@std@@@1@@Z 0054a780 f i TestBatchColor.obj
 0002:00037820       ??$?4VTexture@@U?$default_delete@VTexture@@@std@@$0A@@?$shared_ptr@VTexture@@@std@@QAEAAV01@$$QAV?$unique_ptr@VTexture@@U?$default_delete@VTexture@@@std@@@1@@Z 0054a820 f i TestBatchColor.obj
 0002:000378c0       ??$?4VVertexArray@@U?$default_delete@VVertexArray@@@std@@$0A@@?$shared_ptr@VVertexArray@@@std@@QAEAAV01@$$QAV?$unique_ptr@VVertexArray@@U?$default_delete@VVertexArray@@@std@@@1@@Z 0054a8c0 f i TestBatchColor.obj
 0002:00037960       ??$?4VVertexBuffer@@U?$default_delete@VVertexBuffer@@@std@@$0A@@?$shared_ptr@VVertexBuffer@@@std@@QAEAAV01@$$QAV?$unique_ptr@VVertexBuffer@@U?$default_delete@VVertexBuffer@@@std@@@1@@Z 0054a960 f i TestBatchColor.obj
 0002:00037a00       ??$?CVShader@@$0A@@?$shared_ptr@VShader@@@std@@QBEPAVShader@@XZ 0054aa00 f i TestBatchColor.obj
 0002:00037a60       ??$?CVVertexArray@@$0A@@?$shared_ptr@VVertexArray@@@std@@QBEPAVVertexArray@@XZ 0054aa60 f i TestBatchColor.obj
 0002:00037ac0       ??$?DM$0A@@glm@@YA?AU?$mat@$03$03M$0A@@0@ABU10@0@Z 0054aac0 f i TestBatchColor.obj
 0002:000381c0       ??$?DM$0A@@glm@@YA?AU?$vec@$03M$0A@@0@ABU10@ABM@Z 0054b1c0 f i TestBatchColor.obj
 0002:00038280       ??$?DVIndexBuffer@@$0A@@?$shared_ptr@VIndexBuffer@@@std@@QBEAAVIndexBuffer@@XZ 0054b280 f i TestBatchColor.obj
 0002:000382e0       ??$?DVShader@@$0A@@?$shared_ptr@VShader@@@std@@QBEAAVShader@@XZ 0054b2e0 f i TestBatchColor.obj
 0002:00038340       ??$?DVVertexArray@@$0A@@?$shared_ptr@VVertexArray@@@std@@QBEAAVVertexArray@@XZ 0054b340 f i TestBatchColor.obj
 0002:000383a0       ??$?DVVertexBuffer@@$0A@@?$shared_ptr@VVertexBuffer@@@std@@QBEAAVVertexBuffer@@XZ 0054b3a0 f i TestBatchColor.obj
 0002:00038400       ??$?HM$0A@@glm@@YA?AU?$vec@$03M$0A@@0@ABU10@0@Z 0054b400 f i TestBatchColor.obj
 0002:000384b0       ??$?XM@?$vec@$03M$0A@@glm@@QAEAAU01@M@Z 0054b4b0 f i TestBatchColor.obj
 0002:00038560       ??$?YM@?$vec@$03M$0A@@glm@@QAEAAU01@ABU01@@Z 0054b560 f i TestBatchColor.obj
 0002:00038630       ??$Push@M@VertexBufferLayout@@QAEXI@Z 0054b630 f i TestBatchColor.obj
 0002:000386e0       ??$_Construct_in_place@UVertexBufferElements@@U1@@std@@YAXAAUVertexBufferElements@@$$QAU1@@Z 0054b6e0 f i TestBatchColor.obj
 0002:00038790       ??$_Copy_memmove@PAUVertexBufferElements@@PAU1@@std@@YAPAUVertexBufferElements@@PAU1@00@Z 0054b790 f i TestBatchColor.obj
 0002:00038860       ??$_Destroy_range@V?$allocator@UVertexBufferElements@@@std@@@std@@YAXPAUVertexBufferElements@@QAU1@AAV?$allocator@UVertexBufferElements@@@0@@Z 0054b860 f i TestBatchColor.obj
 0002:000388b0       ??$_Emplace_back@UVertexBufferElements@@@?$_Uninitialized_backout_al@V?$allocator@UVertexBufferElements@@@std@@@std@@QAEX$$QAUVertexBufferElements@@@Z 0054b8b0 f i TestBatchColor.obj
 0002:00038950       ??$_Emplace_back_with_unused_capacity@UVertexBufferElements@@@?$vector@UVertexBufferElements@@V?$allocator@UVertexBufferElements@@@std@@@std@@AAEAAUVertexBufferElements@@$$QAU2@@Z 0054b950 f i TestBatchColor.obj
 0002:00038a10       ??$_Emplace_one_at_back@UVertexBufferElements@@@?$vector@UVertexBufferElements@@V?$allocator@UVertexBufferElements@@@std@@@std@@AAEAAUVertexBufferElements@@$$QAU2@@Z 0054ba10 f i TestBatchColor.obj
 0002:00038ad0       ??$_Emplace_reallocate@UVertexBufferElements@@@?$vector@UVertexBufferElements@@V?$allocator@UVertexBufferElements@@@std@@@std@@AAEPAUVertexBufferElements@@QAU2@$$QAU2@@Z 0054bad0 f i TestBatchColor.obj
 0002:00038db0       ??$_Get_size_of_n@$0M@@std@@YAII@Z 0054bdb0 f i TestBatchColor.obj
 0002:00038e20       ??$_Get_unwrapped@ABQAUVertexBufferElements@@@std@@YA?A_TABQAUVertexBufferElements@@@Z 0054be20 f i TestBatchColor.obj
 0002:00038e70       ??$_Set_ptr_rep_and_enable_shared@VIndexBuffer@@@?$shared_ptr@VIndexBuffer@@@std@@AAEXQAVIndexBuffer@@QAV_Ref_count_base@1@@Z 0054be70 f i TestBatchColor.obj
 0002:00038ee0       ??$_Set_ptr_rep_and_enable_shared@VShader@@@?$shared_ptr@VShader@@@std@@AAEXQAVShader@@QAV_Ref_count_base@1@@Z 0054bee0 f i TestBatchColor.obj
 0002:00038f50       ??$_Set_ptr_rep_and_enable_shared@VTexture@@@?$shared_ptr@VTexture@@@std@@AAEXQAVTexture@@QAV_Ref_count_base@1@@Z 0054bf50 f i TestBatchColor.obj
 0002:00038fc0       ??$_Set_ptr_rep_and_enable_shared@VVertexArray@@@?$shared_ptr@VVertexArray@@@std@@AAEXQAVVertexArray@@QAV_Ref_count_base@1@@Z 0054bfc0 f i TestBatchColor.obj
 0002:00039030       ??$_Set_ptr_rep_and_enable_shared@VVertexBuffer@@@?$shared_ptr@VVertexBuffer@@@std@@AAEXQAVVertexBuffer@@QAV_Ref_count_base@1@@Z 0054c030 f i TestBatchColor.obj
 0002:000390a0       ??$_To_address@PAUVertexBufferElements@@@std@@YA?A_PABQAUVertexBufferElements@@@Z 0054c0a0 f i TestBatchColor.obj
 0002:000390f0       ??$_Unfancy@UVertexBufferElements@@@std@@YAPAUVertexBufferElements@@PAU1@@Z 0054c0f0 f i TestBatchColor.obj
 0002:00039140       ??$_Uninitialized_move@PAUVertexBufferElements@@V?$allocator@UVertexBufferElements@@@std@@@std@@YAPAUVertexBufferElements@@QAU1@0PAU1@AAV?$allocator@UVertexBufferElements@@@0@@Z 0054c140 f i TestBatchColor.obj
 0002:00039300       ??$_Voidify_iter@PAUVertexBufferElements@@@std@@YAPAXPAUVertexBufferElements@@@Z 0054c300 f i TestBatchColor.obj
 0002:00039350       ??$addressof@$$CBU?$default_delete@VIndexBuffer@@@std@@@std@@YAPBU?$default_delete@VIndexBuffer@@@0@ABU10@@Z 0054c350 f i TestBatchColor.obj
 0002:000393a0       ??$addressof@$$CBU?$default_delete@VShader@@@std@@@std@@YAPBU?$default_delete@VShader@@@0@ABU10@@Z 0054c3a0 f i TestBatchColor.obj
 0002:000393f0       ??$addressof@$$CBU?$default_delete@VTexture@@@std@@@std@@YAPBU?$default_delete@VTexture@@@0@ABU10@@Z 0054c3f0 f i TestBatchColor.obj
 0002:00039440       ??$addressof@$$CBU?$default_delete@VVertexArray@@@std@@@std@@YAPBU?$default_delete@VVertexArray@@@0@ABU10@@Z 0054c440 f i TestBatchColor.obj
 0002:00039490       ??$addressof@$$CBU?$default_delete@VVertexBuffer@@@std@@@std@@YAPBU?$default_delete@VVertexBuffer@@@0@ABU10@@Z 0054c490 f i TestBatchColor.obj
 0002:000394e0       ??$addressof@UVertexBufferElements@@@std@@YAPAUVertexBufferElements@@AAU1@@Z 0054c4e0 f i TestBatchColor.obj
 0002:00039530       ??$construct@UVertexBufferElements@@U1@@?$_Default_allocator_traits@V?$allocator@UVertexBufferElements@@@std@@@std@@SAXAAV?$allocator@UVertexBufferElements@@@1@QAUVertexBufferElements@@$$QAU3@@Z 0054c530 f i TestBatchColor.obj
 0002:000395d0       ??$exchange@PAVIndexBuffer@@$$T@std@@YAPAVIndexBuffer@@AAPAV1@$$QA$$T@Z 0054c5d0 f i TestBatchColor.obj
 0002:00039640       ??$exchange@PAVShader@@$$T@std@@YAPAVShader@@AAPAV1@$$QA$$T@Z 0054c640 f i TestBatchColor.obj
 0002:000396b0       ??$exchange@PAVTexture@@$$T@std@@YAPAVTexture@@AAPAV1@$$QA$$T@Z 0054c6b0 f i TestBatchColor.obj
 0002:00039720       ??$exchange@PAVVertexArray@@$$T@std@@YAPAVVertexArray@@AAPAV1@$$QA$$T@Z 0054c720 f i TestBatchColor.obj
 0002:00039790       ??$exchange@PAVVertexBuffer@@$$T@std@@YAPAVVertexBuffer@@AAPAV1@$$QA$$T@Z 0054c790 f i TestBatchColor.obj
 0002:00039800       ??$forward@AAPAVIndexBuffer@@@std@@YAAAPAVIndexBuffer@@AAPAV1@@Z 0054c800 f i TestBatchColor.obj
 0002:00039850       ??$forward@AAPAVShader@@@std@@YAAAPAVShader@@AAPAV1@@Z 0054c850 f i TestBatchColor.obj
 0002:000398a0       ??$forward@AAPAVTexture@@@std@@YAAAPAVTexture@@AAPAV1@@Z 0054c8a0 f i TestBatchColor.obj
 0002:000398f0       ??$forward@AAPAVVertexArray@@@std@@YAAAPAVVertexArray@@AAPAV1@@Z 0054c8f0 f i TestBatchColor.obj
 0002:00039940       ??$forward@AAPAVVertexBuffer@@@std@@YAAAPAVVertexBuffer@@AAPAV1@@Z 0054c940 f i TestBatchColor.obj
 0002:00039990       ??$forward@AAY0DD@$$CBD@std@@YAAAY0DD@$$CBDAAY0DD@$$CBD@Z 0054c990 f i TestBatchColor.obj
 0002:000399e0       ??$forward@AAY0DI@M@std@@YAAAY0DI@MAAY0DI@M@Z 0054c9e0 f i TestBatchColor.obj
 0002:00039a30       ??$forward@AAY0M@I@std@@YAAAY0M@IAAY0M@I@Z 0054ca30 f i TestBatchColor.obj
 0002:00039a80       ??$forward@H@std@@YA$$QAHAAH@Z 0054ca80 f i TestBatchColor.obj
 0002:00039ad0       ??$forward@I@std@@YA$$QAIAAI@Z 0054cad0 f i TestBatchColor.obj
 0002:00039b20       ??$forward@PAVIndexBuffer@@@std@@YA$$QAPAVIndexBuffer@@AAPAV1@@Z 0054cb20 f i TestBatchColor.obj
 0002:00039b70       ??$forward@PAVShader@@@std@@YA$$QAPAVShader@@AAPAV1@@Z 0054cb70 f i TestBatchColor.obj
 0002:00039bc0       ??$forward@PAVTexture@@@std@@YA$$QAPAVTexture@@AAPAV1@@Z 0054cbc0 f i TestBatchColor.obj
 0002:00039c10       ??$forward@PAVVertexArray@@@std@@YA$$QAPAVVertexArray@@AAPAV1@@Z 0054cc10 f i TestBatchColor.obj
 0002:00039c60       ??$forward@PAVVertexBuffer@@@std@@YA$$QAPAVVertexBuffer@@AAPAV1@@Z 0054cc60 f i TestBatchColor.obj
 0002:00039cb0       ??$forward@U?$default_delete@VIndexBuffer@@@std@@@std@@YA$$QAU?$default_delete@VIndexBuffer@@@0@AAU10@@Z 0054ccb0 f i TestBatchColor.obj
 0002:00039d00       ??$forward@U?$default_delete@VShader@@@std@@@std@@YA$$QAU?$default_delete@VShader@@@0@AAU10@@Z 0054cd00 f i TestBatchColor.obj
 0002:00039d50       ??$forward@U?$default_delete@VTexture@@@std@@@std@@YA$$QAU?$default_delete@VTexture@@@0@AAU10@@Z 0054cd50 f i TestBatchColor.obj
 0002:00039da0       ??$forward@U?$default_delete@VVertexArray@@@std@@@std@@YA$$QAU?$default_delete@VVertexArray@@@0@AAU10@@Z 0054cda0 f i TestBatchColor.obj
 0002:00039df0       ??$forward@U?$default_delete@VVertexBuffer@@@std@@@std@@YA$$QAU?$default_delete@VVertexBuffer@@@0@AAU10@@Z 0054cdf0 f i TestBatchColor.obj
 0002:00039e40       ??$forward@UVertexBufferElements@@@std@@YA$$QAUVertexBufferElements@@AAU1@@Z 0054ce40 f i TestBatchColor.obj
 0002:00039e90       ??$forward@W4DrawMode@@@std@@YA$$QAW4DrawMode@@AAW41@@Z 0054ce90 f i TestBatchColor.obj
 0002:00039ee0       ??$make_unique@VIndexBuffer@@AAY0M@IH$0A@@std@@YA?AV?$unique_ptr@VIndexBuffer@@U?$default_delete@VIndexBuffer@@@std@@@0@AAY0M@I$$QAH@Z 0054cee0 f i TestBatchColor.obj
 0002:0003a050       ??$make_unique@VShader@@AAY0DD@$$CBD$0A@@std@@YA?AV?$unique_ptr@VShader@@U?$default_delete@VShader@@@std@@@0@AAY0DD@$$CBD@Z 0054d050 f i TestBatchColor.obj
 0002:0003a210       ??$make_unique@VTexture@@AAY0DD@$$CBD$0A@@std@@YA?AV?$unique_ptr@VTexture@@U?$default_delete@VTexture@@@std@@@0@AAY0DD@$$CBD@Z 0054d210 f i TestBatchColor.obj
 0002:0003a3d0       ??$make_unique@VVertexArray@@$$V$0A@@std@@YA?AV?$unique_ptr@VVertexArray@@U?$default_delete@VVertexArray@@@std@@@0@XZ 0054d3d0 f i TestBatchColor.obj
 0002:0003a520       ??$make_unique@VVertexBuffer@@AAY0DI@MIW4DrawMode@@$0A@@std@@YA?AV?$unique_ptr@VVertexBuffer@@U?$default_delete@VVertexBuffer@@@std@@@0@AAY0DI@M$$QAI$$QAW4DrawMode@@@Z 0054d520 f i TestBatchColor.obj
 0002:0003a6a0       ??$move@AAPAVIndexBuffer@@@std@@YA$$QAPAVIndexBuffer@@AAPAV1@@Z 0054d6a0 f i TestBatchColor.obj
 0002:0003a6f0       ??$move@AAPAVShader@@@std@@YA$$QAPAVShader@@AAPAV1@@Z 0054d6f0 f i TestBatchColor.obj
 0002:0003a740       ??$move@AAPAVTexture@@@std@@YA$$QAPAVTexture@@AAPAV1@@Z 0054d740 f i TestBatchColor.obj
 0002:0003a790       ??$move@AAPAVVertexArray@@@std@@YA$$QAPAVVertexArray@@AAPAV1@@Z 0054d790 f i TestBatchColor.obj
 0002:0003a7e0       ??$move@AAPAVVertexBuffer@@@std@@YA$$QAPAVVertexBuffer@@AAPAV1@@Z 0054d7e0 f i TestBatchColor.obj
 0002:0003a830       ??$move@AAPAV_Ref_count_base@std@@@std@@YA$$QAPAV_Ref_count_base@0@AAPAV10@@Z 0054d830 f i TestBatchColor.obj
 0002:0003a880       ??$move@AAU?$default_delete@VIndexBuffer@@@std@@@std@@YA$$QAU?$default_delete@VIndexBuffer@@@0@AAU10@@Z 0054d880 f i TestBatchColor.obj
 0002:0003a8d0       ??$move@AAU?$default_delete@VShader@@@std@@@std@@YA$$QAU?$default_delete@VShader@@@0@AAU10@@Z 0054d8d0 f i TestBatchColor.obj
 0002:0003a920       ??$move@AAU?$default_delete@VTexture@@@std@@@std@@YA$$QAU?$default_delete@VTexture@@@0@AAU10@@Z 0054d920 f i TestBatchColor.obj
 0002:0003a970       ??$move@AAU?$default_delete@VVertexArray@@@std@@@std@@YA$$QAU?$default_delete@VVertexArray@@@0@AAU10@@Z 0054d970 f i TestBatchColor.obj
 0002:0003a9c0       ??$move@AAU?$default_delete@VVertexBuffer@@@std@@@std@@YA$$QAU?$default_delete@VVertexBuffer@@@0@AAU10@@Z 0054d9c0 f i TestBatchColor.obj
 0002:0003aa10       ??$move@AAUVertexBufferElements@@@std@@YA$$QAUVertexBufferElements@@AAU1@@Z 0054da10 f i TestBatchColor.obj
 0002:0003aa60       ??$move@AAV?$unique_ptr@VIndexBuffer@@U?$default_delete@VIndexBuffer@@@std@@@std@@@std@@YA$$QAV?$unique_ptr@VIndexBuffer@@U?$default_delete@VIndexBuffer@@@std@@@0@AAV10@@Z 0054da60 f i TestBatchColor.obj
 0002:0003aab0       ??$move@AAV?$unique_ptr@VShader@@U?$default_delete@VShader@@@std@@@std@@@std@@YA$$QAV?$unique_ptr@VShader@@U?$default_delete@VShader@@@std@@@0@AAV10@@Z 0054dab0 f i TestBatchColor.obj
 0002:0003ab00       ??$move@AAV?$unique_ptr@VTexture@@U?$default_delete@VTexture@@@std@@@std@@@std@@YA$$QAV?$unique_ptr@VTexture@@U?$default_delete@VTexture@@@std@@@0@AAV10@@Z 0054db00 f i TestBatchColor.obj
 0002:0003ab50       ??$move@AAV?$unique_ptr@VVertexArray@@U?$default_delete@VVertexArray@@@std@@@std@@@std@@YA$$QAV?$unique_ptr@VVertexArray@@U?$default_delete@VVertexArray@@@std@@@0@AAV10@@Z 0054db50 f i TestBatchColor.obj
 0002:0003aba0       ??$move@AAV?$unique_ptr@VVertexBuffer@@U?$default_delete@VVertexBuffer@@@std@@@std@@@std@@YA$$QAV?$unique_ptr@VVertexBuffer@@U?$default_delete@VVertexBuffer@@@std@@@0@AAV10@@Z 0054dba0 f i TestBatchColor.obj
 0002:0003abf0       ??$ortho@M@glm@@YA?AU?$mat@$03$03M$0A@@0@MMMMMM@Z 0054dbf0 f i TestBatchColor.obj
 0002:0003aca0       ??$orthoRH_NO@M@glm@@YA?AU?$mat@$03$03M$0A@@0@MMMMMM@Z 0054dca0 f i TestBatchColor.obj
 0002:0003af60       ??$scale@M$0A@@glm@@YA?AU?$mat@$03$03M$0A@@0@ABU10@ABU?$vec@$02M$0A@@0@@Z 0054df60 f i TestBatchColor.obj
 0002:0003b150       ??$swap@PAVIndexBuffer@@$0A@@std@@YAXAAPAVIndexBuffer@@0@Z 0054e150 f i TestBatchColor.obj
 0002:0003b230       ??$swap@PAVShader@@$0A@@std@@YAXAAPAVShader@@0@Z 0054e230 f i TestBatchColor.obj
 0002:0003b310       ??$swap@PAVTexture@@$0A@@std@@YAXAAPAVTexture@@0@Z 0054e310 f i TestBatchColor.obj
 0002:0003b3f0       ??$swap@PAVVertexArray@@$0A@@std@@YAXAAPAVVertexArray@@0@Z 0054e3f0 f i TestBatchColor.obj
 0002:0003b4d0       ??$swap@PAVVertexBuffer@@$0A@@std@@YAXAAPAVVertexBuffer@@0@Z 0054e4d0 f i TestBatchColor.obj
 0002:0003b5b0       ??$swap@PAV_Ref_count_base@std@@$0A@@std@@YAXAAPAV_Ref_count_base@0@0@Z 0054e5b0 f i TestBatchColor.obj
 0002:0003b690       ??$translate@M$0A@@glm@@YA?AU?$mat@$03$03M$0A@@0@ABU10@ABU?$vec@$02M$0A@@0@@Z 0054e690 f i TestBatchColor.obj
 0002:0003b850       ??0?$_Ref_count_resource@PAVIndexBuffer@@U?$default_delete@VIndexBuffer@@@std@@@std@@QAE@PAVIndexBuffer@@U?$default_delete@VIndexBuffer@@@1@@Z 0054e850 f i TestBatchColor.obj
 0002:0003b900       ??0?$_Ref_count_resource@PAVShader@@U?$default_delete@VShader@@@std@@@std@@QAE@PAVShader@@U?$default_delete@VShader@@@1@@Z 0054e900 f i TestBatchColor.obj
 0002:0003b9b0       ??0?$_Ref_count_resource@PAVTexture@@U?$default_delete@VTexture@@@std@@@std@@QAE@PAVTexture@@U?$default_delete@VTexture@@@1@@Z 0054e9b0 f i TestBatchColor.obj
 0002:0003ba60       ??0?$_Ref_count_resource@PAVVertexArray@@U?$default_delete@VVertexArray@@@std@@@std@@QAE@PAVVertexArray@@U?$default_delete@VVertexArray@@@1@@Z 0054ea60 f i TestBatchColor.obj
 0002:0003bb10       ??0?$_Ref_count_resource@PAVVertexBuffer@@U?$default_delete@VVertexBuffer@@@std@@@std@@QAE@PAVVertexBuffer@@U?$default_delete@VVertexBuffer@@@1@@Z 0054eb10 f i TestBatchColor.obj
 0002:0003bbc0       ??0?$_Uninitialized_backout_al@V?$allocator@UVertexBufferElements@@@std@@@std@@QAE@PAUVertexBufferElements@@AAV?$allocator@UVertexBufferElements@@@1@@Z 0054ebc0 f i TestBatchColor.obj
 0002:0003bc40       ??0?$_Vector_val@U?$_Simple_types@UVertexBufferElements@@@std@@@std@@QAE@XZ 0054ec40 f i TestBatchColor.obj
 0002:0003bcc0       ??0?$allocator@UVertexBufferElements@@@std@@QAE@XZ 0054ecc0 f i TestBatchColor.obj
 0002:0003bd20       ??0?$mat@$03$03M$0A@@glm@@QAE@ABM@Z 0054ed20 f i TestBatchColor.obj
 0002:0003be10       ??0?$shared_ptr@VIndexBuffer@@@std@@QAE@XZ 0054ee10 f i TestBatchColor.obj
 0002:0003be70       ??0?$shared_ptr@VShader@@@std@@QAE@XZ 0054ee70 f i TestBatchColor.obj
 0002:0003bed0       ??0?$shared_ptr@VTexture@@@std@@QAE@XZ 0054eed0 f i TestBatchColor.obj
 0002:0003bf30       ??0?$shared_ptr@VVertexArray@@@std@@QAE@XZ 0054ef30 f i TestBatchColor.obj
 0002:0003bf90       ??0?$shared_ptr@VVertexBuffer@@@std@@QAE@XZ 0054ef90 f i TestBatchColor.obj
 0002:0003bff0       ??0?$vec@$02M$0A@@glm@@QAE@MMM@Z 0054eff0 f i TestBatchColor.obj
 0002:0003c080       ??0?$vec@$03M$0A@@glm@@QAE@M@Z 0054f080 f i TestBatchColor.obj
 0002:0003c120       ??0?$vec@$03M$0A@@glm@@QAE@MMMM@Z 0054f120 f i TestBatchColor.obj
 0002:0003c1c0       ??0?$vector@UVertexBufferElements@@V?$allocator@UVertexBufferElements@@@std@@@std@@QAE@XZ 0054f1c0 f i TestBatchColor.obj
 0002:0003c240       ??0TestBatchColor@test@@QAE@XZ 0054f240 f   TestBatchColor.obj
 0002:0003cba0       ??0VertexBufferLayout@@QAE@XZ 0054fba0 f i TestBatchColor.obj
 0002:0003cc10       ??0_Ref_count_base@std@@IAE@XZ 0054fc10 f i TestBatchColor.obj
 0002:0003cc80       ??1?$_Ref_count_resource@PAVIndexBuffer@@U?$default_delete@VIndexBuffer@@@std@@@std@@UAE@XZ 0054fc80 f i TestBatchColor.obj
 0002:0003cce0       ??1?$_Ref_count_resource@PAVShader@@U?$default_delete@VShader@@@std@@@std@@UAE@XZ 0054fce0 f i TestBatchColor.obj
 0002:0003cd40       ??1?$_Ref_count_resource@PAVTexture@@U?$default_delete@VTexture@@@std@@@std@@UAE@XZ 0054fd40 f i TestBatchColor.obj
 0002:0003cda0       ??1?$_Ref_count_resource@PAVVertexArray@@U?$default_delete@VVertexArray@@@std@@@std@@UAE@XZ 0054fda0 f i TestBatchColor.obj
 0002:0003ce00       ??1?$_Ref_count_resource@PAVVertexBuffer@@U?$default_delete@VVertexBuffer@@@std@@@std@@UAE@XZ 0054fe00 f i TestBatchColor.obj
 0002:0003ce60       ??1?$_Uninitialized_backout_al@V?$allocator@UVertexBufferElements@@@std@@@std@@QAE@XZ 0054fe60 f i TestBatchColor.obj
 0002:0003ced0       ??1?$unique_ptr@VIndexBuffer@@U?$default_delete@VIndexBuffer@@@std@@@std@@QAE@XZ 0054fed0 f i TestBatchColor.obj
 0002:0003cf50       ??1?$unique_ptr@VShader@@U?$default_delete@VShader@@@std@@@std@@QAE@XZ 0054ff50 f i TestBatchColor.obj
 0002:0003cfd0       ??1?$unique_ptr@VTexture@@U?$default_delete@VTexture@@@std@@@std@@QAE@XZ 0054ffd0 f i TestBatchColor.obj
 0002:0003d050       ??1?$unique_ptr@VVertexArray@@U?$default_delete@VVertexArray@@@std@@@std@@QAE@XZ 00550050 f i TestBatchColor.obj
 0002:0003d0d0       ??1?$unique_ptr@VVertexBuffer@@U?$default_delete@VVertexBuffer@@@std@@@std@@QAE@XZ 005500d0 f i TestBatchColor.obj
 0002:0003d150       ??1?$vector@UVertexBufferElements@@V?$allocator@UVertexBufferElements@@@std@@@std@@QAE@XZ 00550150 f i TestBatchColor.obj
 0002:0003d1b0       ??1VertexBufferLayout@@QAE@XZ 005501b0 f i TestBatchColor.obj
 0002:0003d210       ??1_Ref_count_base@std@@UAE@XZ 00550210 f i TestBatchColor.obj
 0002:0003d260       ??8type_info@@QBE_NABV0@@Z 00550260 f i TestBatchColor.obj
 0002:0003d300       ??A?$mat@$03$03M$0A@@glm@@QAEAAU?$vec@$03M$0A@@1@H@Z 00550300 f i TestBatchColor.obj
 0002:0003d3a0       ??A?$vec@$02M$0A@@glm@@QAEAAMH@Z 005503a0 f i TestBatchColor.obj
 0002:0003d480       ??A?$vec@$02M$0A@@glm@@QBEABMH@Z 00550480 f i TestBatchColor.obj
 0002:0003d560       ??A?$vec@$03M$0A@@glm@@QAEAAMH@Z 00550560 f i TestBatchColor.obj
 0002:0003d650       ??R?$default_delete@VIndexBuffer@@@std@@QBEXPAVIndexBuffer@@@Z 00550650 f i TestBatchColor.obj
 0002:0003d6e0       ??R?$default_delete@VShader@@@std@@QBEXPAVShader@@@Z 005506e0 f i TestBatchColor.obj
 0002:0003d770       ??R?$default_delete@VTexture@@@std@@QBEXPAVTexture@@@Z 00550770 f i TestBatchColor.obj
 0002:0003d800       ??R?$default_delete@VVertexArray@@@std@@QBEXPAVVertexArray@@@Z 00550800 f i TestBatchColor.obj
 0002:0003d890       ??R?$default_delete@VVertexBuffer@@@std@@QBEXPAVVertexBuffer@@@Z 00550890 f i TestBatchColor.obj
 0002:0003d920       ??_E?$_Ref_count_resource@PAVIndexBuffer@@U?$default_delete@VIndexBuffer@@@std@@@std@@UAEPAXI@Z 00550920 f i TestBatchColor.obj
 0002:0003d920       ??_G?$_Ref_count_resource@PAVIndexBuffer@@U?$default_delete@VIndexBuffer@@@std@@@std@@UAEPAXI@Z 00550920 f i TestBatchColor.obj
 0002:0003d990       ??_E?$_Ref_count_resource@PAVShader@@U?$default_delete@VShader@@@std@@@std@@UAEPAXI@Z 00550990 f i TestBatchColor.obj
 0002:0003d990       ??_G?$_Ref_count_resource@PAVShader@@U?$default_delete@VShader@@@std@@@std@@UAEPAXI@Z 00550990 f i TestBatchColor.obj
 0002:0003da00       ??_E?$_Ref_count_resource@PAVTexture@@U?$default_delete@VTexture@@@std@@@std@@UAEPAXI@Z 00550a00 f i TestBatchColor.obj
 0002:0003da00       ??_G?$_Ref_count_resource@PAVTexture@@U?$default_delete@VTexture@@@std@@@std@@UAEPAXI@Z 00550a00 f i TestBatchColor.obj
 0002:0003da70       ??_E?$_Ref_count_resource@PAVVertexArray@@U?$default_delete@VVertexArray@@@std@@@std@@UAEPAXI@Z 00550a70 f i TestBatchColor.obj
 0002:0003da70       ??_G?$_Ref_count_resource@PAVVertexArray@@U?$default_delete@VVertexArray@@@std@@@std@@UAEPAXI@Z 00550a70 f i TestBatchColor.obj
 0002:0003dae0       ??_E?$_Ref_count_resource@PAVVertexBuffer@@U?$default_delete@VVertexBuffer@@@std@@@std@@UAEPAXI@Z 00550ae0 f i TestBatchColor.obj
 0002:0003dae0       ??_G?$_Ref_count_resource@PAVVertexBuffer@@U?$default_delete@VVertexBuffer@@@std@@@std@@UAEPAXI@Z 00550ae0 f i TestBatchColor.obj
 0002:0003db50       ??_GIndexBuffer@@QAEPAXI@Z 00550b50 f i TestBatchColor.obj
 0002:0003dbc0       ??_GShader@@QAEPAXI@Z      00550bc0 f i TestBatchColor.obj
 0002:0003dc30       ??_GTexture@@QAEPAXI@Z     00550c30 f i TestBatchColor.obj
 0002:0003dca0       ??_GVertexArray@@QAEPAXI@Z 00550ca0 f i TestBatchColor.obj
 0002:0003dd10       ??_GVertexBuffer@@QAEPAXI@Z 00550d10 f i TestBatchColor.obj
 0002:0003dd80       ?GetSizeofType@VertexBufferElements@@SAII@Z 00550d80 f i TestBatchColor.obj
 0002:0003de20       ?OnImGuiRender@TestBatchColor@test@@UAEXXZ 00550e20 f   TestBatchColor.obj
 0002:0003def0       ?OnRender@TestBatchColor@test@@UAEXXZ 00550ef0 f   TestBatchColor.obj
 0002:0003e050       ?OnUpdate@TestBatchColor@test@@UAEXM@Z 00551050 f   TestBatchColor.obj
 0002:0003e410       ?_Calculate_growth@?$vector@UVertexBufferElements@@V?$allocator@UVertexBufferElements@@@std@@@std@@ABEII@Z 00551410 f i TestBatchColor.obj
 0002:0003e4c0       ?_Change_array@?$vector@UVertexBufferElements@@V?$allocator@UVertexBufferElements@@@std@@@std@@AAEXQAUVertexBufferElements@@II@Z 005514c0 f i TestBatchColor.obj
 0002:0003e5d0       ?_Delete_this@?$_Ref_count_resource@PAVIndexBuffer@@U?$default_delete@VIndexBuffer@@@std@@@std@@EAEXXZ 005515d0 f i TestBatchColor.obj
 0002:0003e670       ?_Delete_this@?$_Ref_count_resource@PAVShader@@U?$default_delete@VShader@@@std@@@std@@EAEXXZ 00551670 f i TestBatchColor.obj
 0002:0003e710       ?_Delete_this@?$_Ref_count_resource@PAVTexture@@U?$default_delete@VTexture@@@std@@@std@@EAEXXZ 00551710 f i TestBatchColor.obj
 0002:0003e7b0       ?_Delete_this@?$_Ref_count_resource@PAVVertexArray@@U?$default_delete@VVertexArray@@@std@@@std@@EAEXXZ 005517b0 f i TestBatchColor.obj
 0002:0003e850       ?_Delete_this@?$_Ref_count_resource@PAVVertexBuffer@@U?$default_delete@VVertexBuffer@@@std@@@std@@EAEXXZ 00551850 f i TestBatchColor.obj
 0002:0003e8f0       ?_Destroy@?$_Ref_count_resource@PAVIndexBuffer@@U?$default_delete@VIndexBuffer@@@std@@@std@@EAEXXZ 005518f0 f i TestBatchColor.obj
 0002:0003e960       ?_Destroy@?$_Ref_count_resource@PAVShader@@U?$default_delete@VShader@@@std@@@std@@EAEXXZ 00551960 f i TestBatchColor.obj
 0002:0003e9d0       ?_Destroy@?$_Ref_count_resource@PAVTexture@@U?$default_delete@VTexture@@@std@@@std@@EAEXXZ 005519d0 f i TestBatchColor.obj
 0002:0003ea40       ?_Destroy@?$_Ref_count_resource@PAVVertexArray@@U?$default_delete@VVertexArray@@@std@@@std@@EAEXXZ 00551a40 f i TestBatchColor.obj
 0002:0003eab0       ?_Destroy@?$_Ref_count_resource@PAVVertexBuffer@@U?$default_delete@VVertexBuffer@@@std@@@std@@EAEXXZ 00551ab0 f i TestBatchColor.obj
 0002:0003eb20       ?_Get_deleter@?$_Ref_count_resource@PAVIndexBuffer@@U?$default_delete@VIndexBuffer@@@std@@@std@@UBEPAXABVtype_info@@@Z 00551b20 f i TestBatchColor.obj
 0002:0003ebb0       ?_Get_deleter@?$_Ref_count_resource@PAVShader@@U?$default_delete@VShader@@@std@@@std@@UBEPAXABVtype_info@@@Z 00551bb0 f i TestBatchColor.obj
 0002:0003ec40       ?_Get_deleter@?$_Ref_count_resource@PAVTexture@@U?$default_delete@VTexture@@@std@@@std@@UBEPAXABVtype_info@@@Z 00551c40 f i TestBatchColor.obj
 0002:0003ecd0       ?_Get_deleter@?$_Ref_count_resource@PAVVertexArray@@U?$default_delete@VVertexArray@@@std@@@std@@UBEPAXABVtype_info@@@Z 00551cd0 f i TestBatchColor.obj
 0002:0003ed60       ?_Get_deleter@?$_Ref_count_resource@PAVVertexBuffer@@U?$default_delete@VVertexBuffer@@@std@@@std@@UBEPAXABVtype_info@@@Z 00551d60 f i TestBatchColor.obj
 0002:0003edf0       ?_Get_first@?$_Compressed_pair@U?$default_delete@VIndexBuffer@@@std@@PAVIndexBuffer@@$00@std@@QAEAAU?$default_delete@VIndexBuffer@@@2@XZ 00551df0 f i TestBatchColor.obj
 0002:0003ee50       ?_Get_first@?$_Compressed_pair@U?$default_delete@VIndexBuffer@@@std@@PAVIndexBuffer@@$00@std@@QBEABU?$default_delete@VIndexBuffer@@@2@XZ 00551e50 f i TestBatchColor.obj
 0002:0003eeb0       ?_Get_first@?$_Compressed_pair@U?$default_delete@VShader@@@std@@PAVShader@@$00@std@@QAEAAU?$default_delete@VShader@@@2@XZ 00551eb0 f i TestBatchColor.obj
 0002:0003ef10       ?_Get_first@?$_Compressed_pair@U?$default_delete@VShader@@@std@@PAVShader@@$00@std@@QBEABU?$default_delete@VShader@@@2@XZ 00551f10 f i TestBatchColor.obj
 0002:0003ef70       ?_Get_first@?$_Compressed_pair@U?$default_delete@VTexture@@@std@@PAVTexture@@$00@std@@QAEAAU?$default_delete@VTexture@@@2@XZ 00551f70 f i TestBatchColor.obj
 0002:0003efd0       ?_Get_first@?$_Compressed_pair@U?$default_delete@VTexture@@@std@@PAVTexture@@$00@std@@QBEABU?$default_delete@VTexture@@@2@XZ 00551fd0 f i TestBatchColor.obj
 0002:0003f030       ?_Get_first@?$_Compressed_pair@U?$default_delete@VVertexArray@@@std@@PAVVertexArray@@$00@std@@QAEAAU?$default_delete@VVertexArray@@@2@XZ 00552030 f i TestBatchColor.obj
 0002:0003f090       ?_Get_first@?$_Compressed_pair@U?$default_delete@VVertexArray@@@std@@PAVVertexArray@@$00@std@@QBEABU?$default_delete@VVertexArray@@@2@XZ 00552090 f i TestBatchColor.obj
 0002:0003f0f0       ?_Get_first@?$_Compressed_pair@U?$default_delete@VVertexBuffer@@@std@@PAVVertexBuffer@@$00@std@@QAEAAU?$default_delete@VVertexBuffer@@@2@XZ 005520f0 f i TestBatchColor.obj
 0002:0003f150       ?_Get_first@?$_Compressed_pair@U?$default_delete@VVertexBuffer@@@std@@PAVVertexBuffer@@$00@std@@QBEABU?$default_delete@VVertexBuffer@@@2@XZ 00552150 f i TestBatchColor.obj
 0002:0003f1b0       ?_Get_first@?$_Compressed_pair@V?$allocator@UVertexBufferElements@@@std@@V?$_Vector_val@U?$_Simple_types@UVertexBufferElements@@@std@@@2@$00@std@@QAEAAV?$allocator@UVertexBufferElements@@@2@XZ 005521b0 f i TestBatchColor.obj
 0002:0003f210       ?_Get_first@?$_Compressed_pair@V?$allocator@UVertexBufferElements@@@std@@V?$_Vector_val@U?$_Simple_types@UVertexBufferElements@@@std@@@2@$00@std@@QBEABV?$allocator@UVertexBufferElements@@@2@XZ 00552210 f i TestBatchColor.obj
 0002:0003f270       ?_Getal@?$vector@UVertexBufferElements@@V?$allocator@UVertexBufferElements@@@std@@@std@@AAEAAV?$allocator@UVertexBufferElements@@@2@XZ 00552270 f i TestBatchColor.obj
 0002:0003f2d0       ?_Getal@?$vector@UVertexBufferElements@@V?$allocator@UVertexBufferElements@@@std@@@std@@ABEABV?$allocator@UVertexBufferElements@@@2@XZ 005522d0 f i TestBatchColor.obj
 0002:0003f330       ?_Orphan_range@?$vector@UVertexBufferElements@@V?$allocator@UVertexBufferElements@@@std@@@std@@ABEXPAUVertexBufferElements@@0@Z 00552330 f i TestBatchColor.obj
 0002:0003f380       ?_Release@?$_Uninitialized_backout_al@V?$allocator@UVertexBufferElements@@@std@@@std@@QAEPAUVertexBufferElements@@XZ 00552380 f i TestBatchColor.obj
 0002:0003f3f0       ?_Swap@?$_Ptr_base@VIndexBuffer@@@std@@IAEXAAV12@@Z 005523f0 f i TestBatchColor.obj
 0002:0003f470       ?_Swap@?$_Ptr_base@VShader@@@std@@IAEXAAV12@@Z 00552470 f i TestBatchColor.obj
 0002:0003f4f0       ?_Swap@?$_Ptr_base@VTexture@@@std@@IAEXAAV12@@Z 005524f0 f i TestBatchColor.obj
 0002:0003f570       ?_Swap@?$_Ptr_base@VVertexArray@@@std@@IAEXAAV12@@Z 00552570 f i TestBatchColor.obj
 0002:0003f5f0       ?_Swap@?$_Ptr_base@VVertexBuffer@@@std@@IAEXAAV12@@Z 005525f0 f i TestBatchColor.obj
 0002:0003f670       ?_Tidy@?$vector@UVertexBufferElements@@V?$allocator@UVertexBufferElements@@@std@@@std@@AAEXXZ 00552670 f i TestBatchColor.obj
 0002:0003f7b0       ?_Xlength@?$vector@UVertexBufferElements@@V?$allocator@UVertexBufferElements@@@std@@@std@@CAXXZ 005527b0 f i TestBatchColor.obj
 0002:0003f800       ?__autoclassinit2@?$_Ref_count_resource@PAVIndexBuffer@@U?$default_delete@VIndexBuffer@@@std@@@std@@QAEXI@Z 00552800 f i TestBatchColor.obj
 0002:0003f860       ?__autoclassinit2@?$_Ref_count_resource@PAVShader@@U?$default_delete@VShader@@@std@@@std@@QAEXI@Z 00552860 f i TestBatchColor.obj
 0002:0003f8c0       ?__autoclassinit2@?$_Ref_count_resource@PAVTexture@@U?$default_delete@VTexture@@@std@@@std@@QAEXI@Z 005528c0 f i TestBatchColor.obj
 0002:0003f920       ?__autoclassinit2@?$_Ref_count_resource@PAVVertexArray@@U?$default_delete@VVertexArray@@@std@@@std@@QAEXI@Z 00552920 f i TestBatchColor.obj
 0002:0003f980       ?__autoclassinit2@?$_Ref_count_resource@PAVVertexBuffer@@U?$default_delete@VVertexBuffer@@@std@@@std@@QAEXI@Z 00552980 f i TestBatchColor.obj
 0002:0003f9e0       ?__autoclassinit2@?$_Uninitialized_backout_al@V?$allocator@UVertexBufferElements@@@std@@@std@@QAEXI@Z 005529e0 f i TestBatchColor.obj
 0002:0003fa40       ?__autoclassinit2@Shader@@QAEXI@Z 00552a40 f i TestBatchColor.obj
 0002:0003faa0       ?__autoclassinit2@Texture@@QAEXI@Z 00552aa0 f i TestBatchColor.obj
 0002:0003fb00       ?__autoclassinit2@VertexBufferLayout@@QAEXI@Z 00552b00 f i TestBatchColor.obj
 0002:0003fb60       ?allocate@?$allocator@UVertexBufferElements@@@std@@QAEPAUVertexBufferElements@@I@Z 00552b60 f i TestBatchColor.obj
 0002:0003fbd0       ?call@?$compute_vec4_add@M$0A@$0A@@detail@glm@@SA?AU?$vec@$03M$0A@@3@ABU43@0@Z 00552bd0 f i TestBatchColor.obj
 0002:0003fc90       ?call@?$compute_vec4_mul@M$0A@$0A@@detail@glm@@SA?AU?$vec@$03M$0A@@3@ABU43@0@Z 00552c90 f i TestBatchColor.obj
 0002:0003fd50       ?capacity@?$vector@UVertexBufferElements@@V?$allocator@UVertexBufferElements@@@std@@@std@@QBEIXZ 00552d50 f i TestBatchColor.obj
 0002:0003fdc0       ?deallocate@?$allocator@UVertexBufferElements@@@std@@QAEXQAUVertexBufferElements@@I@Z 00552dc0 f i TestBatchColor.obj
 0002:0003fe30       ?get@?$_Ptr_base@VIndexBuffer@@@std@@IBEPAVIndexBuffer@@XZ 00552e30 f i TestBatchColor.obj
 0002:0003fe90       ?get@?$_Ptr_base@VShader@@@std@@IBEPAVShader@@XZ 00552e90 f i TestBatchColor.obj
 0002:0003fef0       ?get@?$_Ptr_base@VVertexArray@@@std@@IBEPAVVertexArray@@XZ 00552ef0 f i TestBatchColor.obj
 0002:0003ff50       ?get@?$_Ptr_base@VVertexBuffer@@@std@@IBEPAVVertexBuffer@@XZ 00552f50 f i TestBatchColor.obj
 0002:0003ffb0       ?get@?$unique_ptr@VIndexBuffer@@U?$default_delete@VIndexBuffer@@@std@@@std@@QBEPAVIndexBuffer@@XZ 00552fb0 f i TestBatchColor.obj
 0002:00040010       ?get@?$unique_ptr@VShader@@U?$default_delete@VShader@@@std@@@std@@QBEPAVShader@@XZ 00553010 f i TestBatchColor.obj
 0002:00040070       ?get@?$unique_ptr@VTexture@@U?$default_delete@VTexture@@@std@@@std@@QBEPAVTexture@@XZ 00553070 f i TestBatchColor.obj
 0002:000400d0       ?get@?$unique_ptr@VVertexArray@@U?$default_delete@VVertexArray@@@std@@@std@@QBEPAVVertexArray@@XZ 005530d0 f i TestBatchColor.obj
 0002:00040130       ?get@?$unique_ptr@VVertexBuffer@@U?$default_delete@VVertexBuffer@@@std@@@std@@QBEPAVVertexBuffer@@XZ 00553130 f i TestBatchColor.obj
 0002:00040190       ?get_deleter@?$unique_ptr@VIndexBuffer@@U?$default_delete@VIndexBuffer@@@std@@@std@@QAEAAU?$default_delete@VIndexBuffer@@@2@XZ 00553190 f i TestBatchColor.obj
 0002:000401f0       ?get_deleter@?$unique_ptr@VShader@@U?$default_delete@VShader@@@std@@@std@@QAEAAU?$default_delete@VShader@@@2@XZ 005531f0 f i TestBatchColor.obj
 0002:00040250       ?get_deleter@?$unique_ptr@VTexture@@U?$default_delete@VTexture@@@std@@@std@@QAEAAU?$default_delete@VTexture@@@2@XZ 00553250 f i TestBatchColor.obj
 0002:000402b0       ?get_deleter@?$unique_ptr@VVertexArray@@U?$default_delete@VVertexArray@@@std@@@std@@QAEAAU?$default_delete@VVertexArray@@@2@XZ 005532b0 f i TestBatchColor.obj
 0002:00040310       ?get_deleter@?$unique_ptr@VVertexBuffer@@U?$default_delete@VVertexBuffer@@@std@@@std@@QAEAAU?$default_delete@VVertexBuffer@@@2@XZ 00553310 f i TestBatchColor.obj
 0002:00040370       ?length@?$vec@$02M$0A@@glm@@SAHXZ 00553370 f i TestBatchColor.obj
 0002:000403c0       ?max_size@?$_Default_allocator_traits@V?$allocator@UVertexBufferElements@@@std@@@std@@SAIABV?$allocator@UVertexBufferElements@@@2@@Z 005533c0 f i TestBatchColor.obj
 0002:00040410       ?max_size@?$vector@UVertexBufferElements@@V?$allocator@UVertexBufferElements@@@std@@@std@@QBEIXZ 00553410 f i TestBatchColor.obj
 0002:000404b0       ?push_back@?$vector@UVertexBufferElements@@V?$allocator@UVertexBufferElements@@@std@@@std@@QAEX$$QAUVertexBufferElements@@@Z 005534b0 f i TestBatchColor.obj
 0002:00040520       ?release@?$unique_ptr@VIndexBuffer@@U?$default_delete@VIndexBuffer@@@std@@@std@@QAEPAVIndexBuffer@@XZ 00553520 f i TestBatchColor.obj
 0002:000405a0       ?release@?$unique_ptr@VShader@@U?$default_delete@VShader@@@std@@@std@@QAEPAVShader@@XZ 005535a0 f i TestBatchColor.obj
 0002:00040620       ?release@?$unique_ptr@VTexture@@U?$default_delete@VTexture@@@std@@@std@@QAEPAVTexture@@XZ 00553620 f i TestBatchColor.obj
 0002:000406a0       ?release@?$unique_ptr@VVertexArray@@U?$default_delete@VVertexArray@@@std@@@std@@QAEPAVVertexArray@@XZ 005536a0 f i TestBatchColor.obj
 0002:00040720       ?release@?$unique_ptr@VVertexBuffer@@U?$default_delete@VVertexBuffer@@@std@@@std@@QAEPAVVertexBuffer@@XZ 00553720 f i TestBatchColor.obj
 0002:000407a0       ?swap@?$shared_ptr@VIndexBuffer@@@std@@QAEXAAV12@@Z 005537a0 f i TestBatchColor.obj
 0002:00040800       ?swap@?$shared_ptr@VShader@@@std@@QAEXAAV12@@Z 00553800 f i TestBatchColor.obj
 0002:00040860       ?swap@?$shared_ptr@VTexture@@@std@@QAEXAAV12@@Z 00553860 f i TestBatchColor.obj
 0002:000408c0       ?swap@?$shared_ptr@VVertexArray@@@std@@QAEXAAV12@@Z 005538c0 f i TestBatchColor.obj
 0002:00040920       ?swap@?$shared_ptr@VVertexBuffer@@@std@@QAEXAAV12@@Z 00553920 f i TestBatchColor.obj
 0002:00040980       ??$forward@AAY0BI@M@std@@YAAAY0BI@MAAY0BI@M@Z 00553980 f i TestBatchMove.obj
 0002:000409d0       ??$forward@AAY0DC@$$CBD@std@@YAAAY0DC@$$CBDAAY0DC@$$CBD@Z 005539d0 f i TestBatchMove.obj
 0002:00040a20       ??$make_unique@VShader@@AAY0DC@$$CBD$0A@@std@@YA?AV?$unique_ptr@VShader@@U?$default_delete@VShader@@@std@@@0@AAY0DC@$$CBD@Z 00553a20 f i TestBatchMove.obj
 0002:00040be0       ??$make_unique@VVertexBuffer@@AAY0BI@MIW4DrawMode@@$0A@@std@@YA?AV?$unique_ptr@VVertexBuffer@@U?$default_delete@VVertexBuffer@@@std@@@0@AAY0BI@M$$QAI$$QAW4DrawMode@@@Z 00553be0 f i TestBatchMove.obj
 0002:00040d60       ??0TestBatchMove@test@@QAE@XZ 00553d60 f   TestBatchMove.obj
 0002:00041450       ?OnImGuiRender@TestBatchMove@test@@UAEXXZ 00554450 f   TestBatchMove.obj
 0002:00041520       ?OnRender@TestBatchMove@test@@UAEXXZ 00554520 f   TestBatchMove.obj
 0002:00041680       ?OnUpdate@TestBatchMove@test@@UAEXM@Z 00554680 f   TestBatchMove.obj
 0002:00041a40       ??$forward@AAY0CI@M@std@@YAAAY0CI@MAAY0CI@M@Z 00554a40 f i TestBatchTexture.obj
 0002:00041a90       ??$forward@AAY0DF@$$CBD@std@@YAAAY0DF@$$CBDAAY0DF@$$CBD@Z 00554a90 f i TestBatchTexture.obj
 0002:00041ae0       ??$make_unique@VShader@@AAY0DF@$$CBD$0A@@std@@YA?AV?$unique_ptr@VShader@@U?$default_delete@VShader@@@std@@@0@AAY0DF@$$CBD@Z 00554ae0 f i TestBatchTexture.obj
 0002:00041ca0       ??$make_unique@VVertexBuffer@@AAY0CI@MIW4DrawMode@@$0A@@std@@YA?AV?$unique_ptr@VVertexBuffer@@U?$default_delete@VVertexBuffer@@@std@@@0@AAY0CI@M$$QAI$$QAW4DrawMode@@@Z 00554ca0 f i TestBatchTexture.obj
 0002:00041e20       ??0TestBatchTexture@test@@QAE@XZ 00554e20 f   TestBatchTexture.obj
 0002:00042610       ?OnImGuiRender@TestBatchTexture@test@@UAEXXZ 00555610 f   TestBatchTexture.obj
 0002:000426e0       ?OnRender@TestBatchTexture@test@@UAEXXZ 005556e0 f   TestBatchTexture.obj
 0002:00042840       ?OnUpdate@TestBatchTexture@test@@UAEXM@Z 00555840 f   TestBatchTexture.obj
 0002:00042c00       ??$?CVTexture@@$0A@@?$shared_ptr@VTexture@@@std@@QBEPAVTexture@@XZ 00555c00 f i TestChangeTexture.obj
 0002:00042c60       ??$forward@AAY05I@std@@YAAAY05IAAY05I@Z 00555c60 f i TestChangeTexture.obj
 0002:00042cb0       ??$forward@AAY0BA@M@std@@YAAAY0BA@MAAY0BA@M@Z 00555cb0 f i TestChangeTexture.obj
 0002:00042d00       ??$forward@AAY0CO@$$CBD@std@@YAAAY0CO@$$CBDAAY0CO@$$CBD@Z 00555d00 f i TestChangeTexture.obj
 0002:00042d50       ??$make_unique@VIndexBuffer@@AAY05IH$0A@@std@@YA?AV?$unique_ptr@VIndexBuffer@@U?$default_delete@VIndexBuffer@@@std@@@0@AAY05I$$QAH@Z 00555d50 f i TestChangeTexture.obj
 0002:00042ec0       ??$make_unique@VShader@@AAY0CO@$$CBD$0A@@std@@YA?AV?$unique_ptr@VShader@@U?$default_delete@VShader@@@std@@@0@AAY0CO@$$CBD@Z 00555ec0 f i TestChangeTexture.obj
 0002:00043080       ??$make_unique@VVertexBuffer@@AAY0BA@MIW4DrawMode@@$0A@@std@@YA?AV?$unique_ptr@VVertexBuffer@@U?$default_delete@VVertexBuffer@@@std@@@0@AAY0BA@M$$QAI$$QAW4DrawMode@@@Z 00556080 f i TestChangeTexture.obj
 0002:00043200       ??0TestChangeTexture@test@@QAE@XZ 00556200 f   TestChangeTexture.obj
 0002:00043870       ?OnImGuiRender@TestChangeTexture@test@@UAEXXZ 00556870 f   TestChangeTexture.obj
 0002:00043940       ?OnRender@TestChangeTexture@test@@UAEXXZ 00556940 f   TestChangeTexture.obj
 0002:00043aa0       ?OnUpdate@TestChangeTexture@test@@UAEXM@Z 00556aa0 f   TestChangeTexture.obj
 0002:00043e60       ?get@?$_Ptr_base@VTexture@@@std@@IBEPAVTexture@@XZ 00556e60 f i TestChangeTexture.obj
 0002:00043ec0       ??0TestClearColor@test@@QAE@XZ 00556ec0 f   TestClearColor.obj
 0002:00043f80       ?OnImGuiRender@TestClearColor@test@@UAEXXZ 00556f80 f   TestClearColor.obj
 0002:00043ff0       ?OnRender@TestClearColor@test@@UAEXXZ 00556ff0 f   TestClearColor.obj
 0002:00044140       ?OnUpdate@TestClearColor@test@@UAEXM@Z 00557140 f   TestClearColor.obj
 0002:00044190       ??$?0HH@?$vec@$01M$00@glm@@QAE@HH@Z 00557190 f i glm.obj
 0002:00044210       ??$?0HH@?$vec@$01M$01@glm@@QAE@HH@Z 00557210 f i glm.obj
 0002:00044290       ??$?0HH@?$vec@$01M$0A@@glm@@QAE@HH@Z 00557290 f i glm.obj
 0002:00044310       ??$?0HH@?$vec@$01N$00@glm@@QAE@HH@Z 00557310 f i glm.obj
 0002:00044390       ??$?0HH@?$vec@$01N$01@glm@@QAE@HH@Z 00557390 f i glm.obj
 0002:00044410       ??$?0HH@?$vec@$01N$0A@@glm@@QAE@HH@Z 00557410 f i glm.obj
 0002:00044490       ??$?0HHH@?$vec@$02M$00@glm@@QAE@HHH@Z 00557490 f i glm.obj
 0002:00044520       ??$?0HHH@?$vec@$02M$01@glm@@QAE@HHH@Z 00557520 f i glm.obj
 0002:000445b0       ??$?0HHH@?$vec@$02M$0A@@glm@@QAE@HHH@Z 005575b0 f i glm.obj
 0002:00044640       ??$?0HHH@?$vec@$02N$00@glm@@QAE@HHH@Z 00557640 f i glm.obj
 0002:000446d0       ??$?0HHH@?$vec@$02N$01@glm@@QAE@HHH@Z 005576d0 f i glm.obj
 0002:00044760       ??$?0HHH@?$vec@$02N$0A@@glm@@QAE@HHH@Z 00557760 f i glm.obj
 0002:000447f0       ??$?0HHHH@?$vec@$03M$00@glm@@QAE@HHHH@Z 005577f0 f i glm.obj
 0002:00044890       ??$?0HHHH@?$vec@$03M$01@glm@@QAE@HHHH@Z 00557890 f i glm.obj
 0002:00044930       ??$?0HHHH@?$vec@$03M$0A@@glm@@QAE@HHHH@Z 00557930 f i glm.obj
 0002:000449d0       ??$?0HHHH@?$vec@$03N$00@glm@@QAE@HHHH@Z 005579d0 f i glm.obj
 0002:00044a70       ??$?0HHHH@?$vec@$03N$01@glm@@QAE@HHHH@Z 00557a70 f i glm.obj
 0002:00044b10       ??$?0HHHH@?$vec@$03N$0A@@glm@@QAE@HHHH@Z 00557b10 f i glm.obj
 0002:00044bb0       ??$?0HHHM@?$vec@$03M$00@glm@@QAE@HHHM@Z 00557bb0 f i glm.obj
 0002:00044c50       ??$?0HHHM@?$vec@$03M$01@glm@@QAE@HHHM@Z 00557c50 f i glm.obj
 0002:00044cf0       ??$?0HHHN@?$vec@$03N$00@glm@@QAE@HHHN@Z 00557cf0 f i glm.obj
 0002:00044d90       ??$?0HHHN@?$vec@$03N$01@glm@@QAE@HHHN@Z 00557d90 f i glm.obj
 0002:00044e30       ??$?0HHHN@?$vec@$03N$0A@@glm@@QAE@HHHN@Z 00557e30 f i glm.obj
 0002:00044ed0       ??$?0HHM@?$vec@$02M$00@glm@@QAE@HHM@Z 00557ed0 f i glm.obj
 0002:00044f60       ??$?0HHM@?$vec@$02M$01@glm@@QAE@HHM@Z 00557f60 f i glm.obj
 0002:00044ff0       ??$?0HHM@?$vec@$02M$0A@@glm@@QAE@HHM@Z 00557ff0 f i glm.obj
 0002:00045080       ??$?0HHMH@?$vec@$03M$00@glm@@QAE@HHMH@Z 00558080 f i glm.obj
 0002:00045120       ??$?0HHMH@?$vec@$03M$01@glm@@QAE@HHMH@Z 00558120 f i glm.obj
 0002:000451c0       ??$?0HHN@?$vec@$02N$00@glm@@QAE@HHN@Z 005581c0 f i glm.obj
 0002:00045250       ??$?0HHN@?$vec@$02N$01@glm@@QAE@HHN@Z 00558250 f i glm.obj
 0002:000452e0       ??$?0HHN@?$vec@$02N$0A@@glm@@QAE@HHN@Z 005582e0 f i glm.obj
 0002:00045370       ??$?0HHNH@?$vec@$03N$00@glm@@QAE@HHNH@Z 00558370 f i glm.obj
 0002:00045410       ??$?0HHNH@?$vec@$03N$01@glm@@QAE@HHNH@Z 00558410 f i glm.obj
 0002:000454b0       ??$?0HHNH@?$vec@$03N$0A@@glm@@QAE@HHNH@Z 005584b0 f i glm.obj
 0002:00045550       ??$?0HM@?$vec@$01M$00@glm@@QAE@HM@Z 00558550 f i glm.obj
 0002:000455d0       ??$?0HM@?$vec@$01M$01@glm@@QAE@HM@Z 005585d0 f i glm.obj
 0002:00045650       ??$?0HM@?$vec@$01M$0A@@glm@@QAE@HM@Z 00558650 f i glm.obj
 0002:000456d0       ??$?0HMH@?$vec@$02M$00@glm@@QAE@HMH@Z 005586d0 f i glm.obj
 0002:00045760       ??$?0HMH@?$vec@$02M$01@glm@@QAE@HMH@Z 00558760 f i glm.obj
 0002:000457f0       ??$?0HMH@?$vec@$02M$0A@@glm@@QAE@HMH@Z 005587f0 f i glm.obj
 0002:00045880       ??$?0HMHH@?$vec@$03M$00@glm@@QAE@HMHH@Z 00558880 f i glm.obj
 0002:00045920       ??$?0HMHH@?$vec@$03M$01@glm@@QAE@HMHH@Z 00558920 f i glm.obj
 0002:000459c0       ??$?0HN@?$vec@$01N$00@glm@@QAE@HN@Z 005589c0 f i glm.obj
 0002:00045a40       ??$?0HN@?$vec@$01N$01@glm@@QAE@HN@Z 00558a40 f i glm.obj
 0002:00045ac0       ??$?0HN@?$vec@$01N$0A@@glm@@QAE@HN@Z 00558ac0 f i glm.obj
 0002:00045b40       ??$?0HNH@?$vec@$02N$00@glm@@QAE@HNH@Z 00558b40 f i glm.obj
 0002:00045bd0       ??$?0HNH@?$vec@$02N$01@glm@@QAE@HNH@Z 00558bd0 f i glm.obj
 0002:00045c60       ??$?0HNH@?$vec@$02N$0A@@glm@@QAE@HNH@Z 00558c60 f i glm.obj
 0002:00045cf0       ??$?0HNHH@?$vec@$03N$00@glm@@QAE@HNHH@Z 00558cf0 f i glm.obj
 0002:00045d90       ??$?0HNHH@?$vec@$03N$01@glm@@QAE@HNHH@Z 00558d90 f i glm.obj
 0002:00045e30       ??$?0HNHH@?$vec@$03N$0A@@glm@@QAE@HNHH@Z 00558e30 f i glm.obj
 0002:00045ed0       ??$?0M$00@?$vec@$01M$00@glm@@QAE@ABU?$vec@$02M$00@1@@Z 00558ed0 f i glm.obj
 0002:00045f40       ??$?0M$00@?$vec@$01M$00@glm@@QAE@ABU?$vec@$03M$00@1@@Z 00558f40 f i glm.obj
 0002:00045fb0       ??$?0M$00@?$vec@$02M$00@glm@@QAE@ABU?$vec@$03M$00@1@@Z 00558fb0 f i glm.obj
 0002:00046030       ??$?0M$01@?$vec@$01M$01@glm@@QAE@ABU?$vec@$02M$01@1@@Z 00559030 f i glm.obj
 0002:000460a0       ??$?0M$01@?$vec@$01M$01@glm@@QAE@ABU?$vec@$03M$01@1@@Z 005590a0 f i glm.obj
 0002:00046110       ??$?0M$01@?$vec@$02M$01@glm@@QAE@ABU?$vec@$03M$01@1@@Z 00559110 f i glm.obj
 0002:00046190       ??$?0M$0A@@?$vec@$01M$0A@@glm@@QAE@ABU?$vec@$02M$0A@@1@@Z 00559190 f i glm.obj
 0002:00046200       ??$?0M$0A@@?$vec@$01M$0A@@glm@@QAE@ABU?$vec@$03M$0A@@1@@Z 00559200 f i glm.obj
 0002:00046270       ??$?0M$0A@@?$vec@$02M$0A@@glm@@QAE@ABU?$vec@$03M$0A@@1@@Z 00559270 f i glm.obj
 0002:000462f0       ??$?0MH$00@?$vec@$02M$00@glm@@QAE@ABU?$vec@$01M$00@1@H@Z 005592f0 f i glm.obj
 0002:00046370       ??$?0MH$00@?$vec@$03M$00@glm@@QAE@ABU?$vec@$02M$00@1@H@Z 00559370 f i glm.obj
 0002:00046400       ??$?0MH$01@?$vec@$02M$01@glm@@QAE@ABU?$vec@$01M$01@1@H@Z 00559400 f i glm.obj
 0002:00046480       ??$?0MH$01@?$vec@$03M$01@glm@@QAE@ABU?$vec@$02M$01@1@H@Z 00559480 f i glm.obj
 0002:00046510       ??$?0MH$0A@@?$vec@$02M$0A@@glm@@QAE@ABU?$vec@$01M$0A@@1@H@Z 00559510 f i glm.obj
 0002:00046590       ??$?0MH$0A@@?$vec@$03M$0A@@glm@@QAE@ABU?$vec@$02M$0A@@1@H@Z 00559590 f i glm.obj
 0002:00046620       ??$?0MH@?$vec@$01M$00@glm@@QAE@MH@Z 00559620 f i glm.obj
 0002:000466a0       ??$?0MH@?$vec@$01M$01@glm@@QAE@MH@Z 005596a0 f i glm.obj
 0002:00046720       ??$?0MH@?$vec@$01M$0A@@glm@@QAE@MH@Z 00559720 f i glm.obj
 0002:000467a0       ??$?0MHH$00@?$vec@$03M$00@glm@@QAE@ABU?$vec@$01M$00@1@HH@Z 005597a0 f i glm.obj
 0002:00046830       ??$?0MHH$01@?$vec@$03M$01@glm@@QAE@ABU?$vec@$01M$01@1@HH@Z 00559830 f i glm.obj
 0002:000468c0       ??$?0MHH$0A@@?$vec@$03M$0A@@glm@@QAE@ABU?$vec@$01M$0A@@1@HH@Z 005598c0 f i glm.obj
 0002:00046950       ??$?0MHH@?$vec@$02M$00@glm@@QAE@MHH@Z 00559950 f i glm.obj
 0002:000469e0       ??$?0MHH@?$vec@$02M$01@glm@@QAE@MHH@Z 005599e0 f i glm.obj
 0002:00046a70       ??$?0MHH@?$vec@$02M$0A@@glm@@QAE@MHH@Z 00559a70 f i glm.obj
 0002:00046b00       ??$?0MHHH@?$vec@$03M$00@glm@@QAE@MHHH@Z 00559b00 f i glm.obj
 0002:00046ba0       ??$?0MHHH@?$vec@$03M$01@glm@@QAE@MHHH@Z 00559ba0 f i glm.obj
 0002:00046c40       ??$?0N$00@?$vec@$01N$00@glm@@QAE@ABU?$vec@$02N$00@1@@Z 00559c40 f i glm.obj
 0002:00046cc0       ??$?0N$00@?$vec@$01N$00@glm@@QAE@ABU?$vec@$03N$00@1@@Z 00559cc0 f i glm.obj
 0002:00046d40       ??$?0N$00@?$vec@$02N$00@glm@@QAE@ABU?$vec@$03N$00@1@@Z 00559d40 f i glm.obj
 0002:00046dd0       ??$?0N$01@?$vec@$01N$01@glm@@QAE@ABU?$vec@$02N$01@1@@Z 00559dd0 f i glm.obj
 0002:00046e50       ??$?0N$01@?$vec@$01N$01@glm@@QAE@ABU?$vec@$03N$01@1@@Z 00559e50 f i glm.obj
 0002:00046ed0       ??$?0N$01@?$vec@$02N$01@glm@@QAE@ABU?$vec@$03N$01@1@@Z 00559ed0 f i glm.obj
 0002:00046f60       ??$?0N$0A@@?$vec@$01N$0A@@glm@@QAE@ABU?$vec@$02N$0A@@1@@Z 00559f60 f i glm.obj
 0002:00046fe0       ??$?0N$0A@@?$vec@$01N$0A@@glm@@QAE@ABU?$vec@$03N$0A@@1@@Z 00559fe0 f i glm.obj
 0002:00047060       ??$?0N$0A@@?$vec@$02N$0A@@glm@@QAE@ABU?$vec@$03N$0A@@1@@Z 0055a060 f i glm.obj
 0002:000470f0       ??$?0NH$00@?$vec@$02N$00@glm@@QAE@ABU?$vec@$01N$00@1@H@Z 0055a0f0 f i glm.obj
 0002:00047180       ??$?0NH$00@?$vec@$03N$00@glm@@QAE@ABU?$vec@$02N$00@1@H@Z 0055a180 f i glm.obj
 0002:00047220       ??$?0NH$01@?$vec@$02N$01@glm@@QAE@ABU?$vec@$01N$01@1@H@Z 0055a220 f i glm.obj
 0002:000472b0       ??$?0NH$01@?$vec@$03N$01@glm@@QAE@ABU?$vec@$02N$01@1@H@Z 0055a2b0 f i glm.obj
 0002:00047350       ??$?0NH$0A@@?$vec@$02N$0A@@glm@@QAE@ABU?$vec@$01N$0A@@1@H@Z 0055a350 f i glm.obj
 0002:000473e0       ??$?0NH$0A@@?$vec@$03N$0A@@glm@@QAE@ABU?$vec@$02N$0A@@1@H@Z 0055a3e0 f i glm.obj
 0002:00047480       ??$?0NH@?$vec@$01N$00@glm@@QAE@NH@Z 0055a480 f i glm.obj
 0002:00047500       ??$?0NH@?$vec@$01N$01@glm@@QAE@NH@Z 0055a500 f i glm.obj
 0002:00047580       ??$?0NH@?$vec@$01N$0A@@glm@@QAE@NH@Z 0055a580 f i glm.obj
 0002:00047600       ??$?0NHH$00@?$vec@$03N$00@glm@@QAE@ABU?$vec@$01N$00@1@HH@Z 0055a600 f i glm.obj
 0002:000476a0       ??$?0NHH$01@?$vec@$03N$01@glm@@QAE@ABU?$vec@$01N$01@1@HH@Z 0055a6a0 f i glm.obj
 0002:00047740       ??$?0NHH$0A@@?$vec@$03N$0A@@glm@@QAE@ABU?$vec@$01N$0A@@1@HH@Z 0055a740 f i glm.obj
 0002:000477e0       ??$?0NHH@?$vec@$02N$00@glm@@QAE@NHH@Z 0055a7e0 f i glm.obj
 0002:00047870       ??$?0NHH@?$vec@$02N$01@glm@@QAE@NHH@Z 0055a870 f i glm.obj
 0002:00047900       ??$?0NHH@?$vec@$02N$0A@@glm@@QAE@NHH@Z 0055a900 f i glm.obj
 0002:00047990       ??$?0NHHH@?$vec@$03N$00@glm@@QAE@NHHH@Z 0055a990 f i glm.obj
 0002:00047a30       ??$?0NHHH@?$vec@$03N$01@glm@@QAE@NHHH@Z 0055aa30 f i glm.obj
 0002:00047ad0       ??$?0NHHH@?$vec@$03N$0A@@glm@@QAE@NHHH@Z 0055aad0 f i glm.obj
 0002:00047b70       ??$?DM$00@glm@@YA?AU?$vec@$02M$00@0@ABU10@0@Z 0055ab70 f i glm.obj
 0002:00047c10       ??$?DM$00@glm@@YA?AU?$vec@$02M$00@0@ABU10@M@Z 0055ac10 f i glm.obj
 0002:00047cb0       ??$?DM$01@glm@@YA?AU?$vec@$02M$01@0@ABU10@0@Z 0055acb0 f i glm.obj
 0002:00047d50       ??$?DM$01@glm@@YA?AU?$vec@$02M$01@0@ABU10@M@Z 0055ad50 f i glm.obj
 0002:00047df0       ??$?DM$0A@@glm@@YA?AU?$vec@$02M$0A@@0@ABU10@0@Z 0055adf0 f i glm.obj
 0002:00047e90       ??$?DM$0A@@glm@@YA?AU?$vec@$02M$0A@@0@ABU10@M@Z 0055ae90 f i glm.obj
 0002:00047f30       ??$?DN$00@glm@@YA?AU?$vec@$02N$00@0@ABU10@0@Z 0055af30 f i glm.obj
 0002:00047fe0       ??$?DN$00@glm@@YA?AU?$vec@$02N$00@0@ABU10@N@Z 0055afe0 f i glm.obj
 0002:00048080       ??$?DN$01@glm@@YA?AU?$vec@$02N$01@0@ABU10@0@Z 0055b080 f i glm.obj
 0002:00048130       ??$?DN$01@glm@@YA?AU?$vec@$02N$01@0@ABU10@N@Z 0055b130 f i glm.obj
 0002:000481d0       ??$?DN$0A@@glm@@YA?AU?$vec@$02N$0A@@0@ABU10@0@Z 0055b1d0 f i glm.obj
 0002:00048280       ??$?DN$0A@@glm@@YA?AU?$vec@$02N$0A@@0@ABU10@N@Z 0055b280 f i glm.obj
 0002:00048320       ??$abs@M@glm@@YAMM@Z       0055b320 f i glm.obj
 0002:00048380       ??$abs@N@glm@@YANN@Z       0055b380 f i glm.obj
 0002:000483e0       ??$cos@$02M$00@glm@@YA?AU?$vec@$02M$00@0@ABU10@@Z 0055b3e0 f i glm.obj
 0002:00048440       ??$cos@$02M$01@glm@@YA?AU?$vec@$02M$01@0@ABU10@@Z 0055b440 f i glm.obj
 0002:000484a0       ??$cos@$02M$0A@@glm@@YA?AU?$vec@$02M$0A@@0@ABU10@@Z 0055b4a0 f i glm.obj
 0002:00048500       ??$cos@$02N$00@glm@@YA?AU?$vec@$02N$00@0@ABU10@@Z 0055b500 f i glm.obj
 0002:00048560       ??$cos@$02N$01@glm@@YA?AU?$vec@$02N$01@0@ABU10@@Z 0055b560 f i glm.obj
 0002:000485c0       ??$cos@$02N$0A@@glm@@YA?AU?$vec@$02N$0A@@0@ABU10@@Z 0055b5c0 f i glm.obj
 0002:00048620       ??$cross@M$00@glm@@YA?AU?$vec@$02M$00@0@ABU10@0@Z 0055b620 f i glm.obj
 0002:00048680       ??$cross@M$01@glm@@YA?AU?$vec@$02M$01@0@ABU10@0@Z 0055b680 f i glm.obj
 0002:000486e0       ??$cross@M$0A@@glm@@YA?AU?$vec@$02M$0A@@0@ABU10@0@Z 0055b6e0 f i glm.obj
 0002:00048740       ??$cross@N$00@glm@@YA?AU?$vec@$02N$00@0@ABU10@0@Z 0055b740 f i glm.obj
 0002:000487a0       ??$cross@N$01@glm@@YA?AU?$vec@$02N$01@0@ABU10@0@Z 0055b7a0 f i glm.obj
 0002:00048800       ??$cross@N$0A@@glm@@YA?AU?$vec@$02N$0A@@0@ABU10@0@Z 0055b800 f i glm.obj
 0002:00048860       ??$dot@$02M$00@glm@@YAMABU?$vec@$02M$00@0@0@Z 0055b860 f i glm.obj
 0002:000488c0       ??$dot@$02M$01@glm@@YAMABU?$vec@$02M$01@0@0@Z 0055b8c0 f i glm.obj
 0002:00048920       ??$dot@$02M$0A@@glm@@YAMABU?$vec@$02M$0A@@0@0@Z 0055b920 f i glm.obj
 0002:00048980       ??$dot@$02N$00@glm@@YANABU?$vec@$02N$00@0@0@Z 0055b980 f i glm.obj
 0002:000489e0       ??$dot@$02N$01@glm@@YANABU?$vec@$02N$01@0@0@Z 0055b9e0 f i glm.obj
 0002:00048a40       ??$dot@$02N$0A@@glm@@YANABU?$vec@$02N$0A@@0@0@Z 0055ba40 f i glm.obj
 0002:00048aa0       ??$dot@M$00@glm@@YAMABU?$qua@M$00@0@0@Z 0055baa0 f i glm.obj
 0002:00048b00       ??$dot@M$01@glm@@YAMABU?$qua@M$01@0@0@Z 0055bb00 f i glm.obj
 0002:00048b60       ??$dot@M$0A@@glm@@YAMABU?$qua@M$0A@@0@0@Z 0055bb60 f i glm.obj
 0002:00048bc0       ??$dot@N$00@glm@@YANABU?$qua@N$00@0@0@Z 0055bbc0 f i glm.obj
 0002:00048c20       ??$dot@N$01@glm@@YANABU?$qua@N$01@0@0@Z 0055bc20 f i glm.obj
 0002:00048c80       ??$dot@N$0A@@glm@@YANABU?$qua@N$0A@@0@0@Z 0055bc80 f i glm.obj
 0002:00048ce0       ??$dualquat_cast@M$00@glm@@YA?AU?$tdualquat@M$00@0@ABU?$mat@$01$03M$00@0@@Z 0055bce0 f i glm.obj
 0002:00048e30       ??$dualquat_cast@M$00@glm@@YA?AU?$tdualquat@M$00@0@ABU?$mat@$02$03M$00@0@@Z 0055be30 f i glm.obj
 0002:00049720       ??$dualquat_cast@M$01@glm@@YA?AU?$tdualquat@M$01@0@ABU?$mat@$01$03M$01@0@@Z 0055c720 f i glm.obj
 0002:00049870       ??$dualquat_cast@M$01@glm@@YA?AU?$tdualquat@M$01@0@ABU?$mat@$02$03M$01@0@@Z 0055c870 f i glm.obj
 0002:0004a160       ??$dualquat_cast@M$0A@@glm@@YA?AU?$tdualquat@M$0A@@0@ABU?$mat@$01$03M$0A@@0@@Z 0055d160 f i glm.obj
 0002:0004a2b0       ??$dualquat_cast@M$0A@@glm@@YA?AU?$tdualquat@M$0A@@0@ABU?$mat@$02$03M$0A@@0@@Z 0055d2b0 f i glm.obj
 0002:0004aba0       ??$dualquat_cast@N$00@glm@@YA?AU?$tdualquat@N$00@0@ABU?$mat@$01$03N$00@0@@Z 0055dba0 f i glm.obj
 0002:0004ad00       ??$dualquat_cast@N$00@glm@@YA?AU?$tdualquat@N$00@0@ABU?$mat@$02$03N$00@0@@Z 0055dd00 f i glm.obj
 0002:0004b630       ??$dualquat_cast@N$01@glm@@YA?AU?$tdualquat@N$01@0@ABU?$mat@$01$03N$01@0@@Z 0055e630 f i glm.obj
 0002:0004b790       ??$dualquat_cast@N$01@glm@@YA?AU?$tdualquat@N$01@0@ABU?$mat@$02$03N$01@0@@Z 0055e790 f i glm.obj
 0002:0004c0c0       ??$dualquat_cast@N$0A@@glm@@YA?AU?$tdualquat@N$0A@@0@ABU?$mat@$01$03N$0A@@0@@Z 0055f0c0 f i glm.obj
 0002:0004c220       ??$dualquat_cast@N$0A@@glm@@YA?AU?$tdualquat@N$0A@@0@ABU?$mat@$02$03N$0A@@0@@Z 0055f220 f i glm.obj
 0002:0004cb50       ??$length@M$00@glm@@YAMABU?$qua@M$00@0@@Z 0055fb50 f i glm.obj
 0002:0004cbc0       ??$length@M$01@glm@@YAMABU?$qua@M$01@0@@Z 0055fbc0 f i glm.obj
 0002:0004cc30       ??$length@M$0A@@glm@@YAMABU?$qua@M$0A@@0@@Z 0055fc30 f i glm.obj
 0002:0004cca0       ??$length@N$00@glm@@YANABU?$qua@N$00@0@@Z 0055fca0 f i glm.obj
 0002:0004cd00       ??$length@N$01@glm@@YANABU?$qua@N$01@0@@Z 0055fd00 f i glm.obj
 0002:0004cd60       ??$length@N$0A@@glm@@YANABU?$qua@N$0A@@0@@Z 0055fd60 f i glm.obj
 0002:0004cdc0       ??$mat3_cast@M$00@glm@@YA?AU?$mat@$02$02M$00@0@ABU?$qua@M$00@0@@Z 0055fdc0 f i glm.obj
 0002:0004d230       ??$mat3_cast@M$01@glm@@YA?AU?$mat@$02$02M$01@0@ABU?$qua@M$01@0@@Z 00560230 f i glm.obj
 0002:0004d6a0       ??$mat3_cast@M$0A@@glm@@YA?AU?$mat@$02$02M$0A@@0@ABU?$qua@M$0A@@0@@Z 005606a0 f i glm.obj
 0002:0004db10       ??$mat3_cast@N$00@glm@@YA?AU?$mat@$02$02N$00@0@ABU?$qua@N$00@0@@Z 00560b10 f i glm.obj
 0002:0004dfb0       ??$mat3_cast@N$01@glm@@YA?AU?$mat@$02$02N$01@0@ABU?$qua@N$01@0@@Z 00560fb0 f i glm.obj
 0002:0004e450       ??$mat3_cast@N$0A@@glm@@YA?AU?$mat@$02$02N$0A@@0@ABU?$qua@N$0A@@0@@Z 00561450 f i glm.obj
 0002:0004e8f0       ??$mat4_cast@M$00@glm@@YA?AU?$mat@$03$03M$00@0@ABU?$qua@M$00@0@@Z 005618f0 f i glm.obj
 0002:0004e960       ??$mat4_cast@M$01@glm@@YA?AU?$mat@$03$03M$01@0@ABU?$qua@M$01@0@@Z 00561960 f i glm.obj
 0002:0004e9d0       ??$mat4_cast@M$0A@@glm@@YA?AU?$mat@$03$03M$0A@@0@ABU?$qua@M$0A@@0@@Z 005619d0 f i glm.obj
 0002:0004ea40       ??$mat4_cast@N$00@glm@@YA?AU?$mat@$03$03N$00@0@ABU?$qua@N$00@0@@Z 00561a40 f i glm.obj
 0002:0004eab0       ??$mat4_cast@N$01@glm@@YA?AU?$mat@$03$03N$01@0@ABU?$qua@N$01@0@@Z 00561ab0 f i glm.obj
 0002:0004eb20       ??$mat4_cast@N$0A@@glm@@YA?AU?$mat@$03$03N$0A@@0@ABU?$qua@N$0A@@0@@Z 00561b20 f i glm.obj
 0002:0004eb90       ??$normalize@M$00@glm@@YA?AU?$qua@M$00@0@ABU10@@Z 00561b90 f i glm.obj
 0002:0004ecc0       ??$normalize@M$01@glm@@YA?AU?$qua@M$01@0@ABU10@@Z 00561cc0 f i glm.obj
 0002:0004edf0       ??$normalize@M$0A@@glm@@YA?AU?$qua@M$0A@@0@ABU10@@Z 00561df0 f i glm.obj
 0002:0004ef20       ??$normalize@N$00@glm@@YA?AU?$qua@N$00@0@ABU10@@Z 00561f20 f i glm.obj
 0002:0004f060       ??$normalize@N$01@glm@@YA?AU?$qua@N$01@0@ABU10@@Z 00562060 f i glm.obj
 0002:0004f1a0       ??$normalize@N$0A@@glm@@YA?AU?$qua@N$0A@@0@ABU10@@Z 005621a0 f i glm.obj
 0002:0004f2e0       ??$quat_cast@M$00@glm@@YA?AU?$qua@M$00@0@ABU?$mat@$02$02M$00@0@@Z 005622e0 f i glm.obj
 0002:0004fa70       ??$quat_cast@M$00@glm@@YA?AU?$qua@M$00@0@ABU?$mat@$03$03M$00@0@@Z 00562a70 f i glm.obj
 0002:0004fae0       ??$quat_cast@M$01@glm@@YA?AU?$qua@M$01@0@ABU?$mat@$02$02M$01@0@@Z 00562ae0 f i glm.obj
 0002:00050270       ??$quat_cast@M$01@glm@@YA?AU?$qua@M$01@0@ABU?$mat@$03$03M$01@0@@Z 00563270 f i glm.obj
 0002:000502e0       ??$quat_cast@M$0A@@glm@@YA?AU?$qua@M$0A@@0@ABU?$mat@$02$02M$0A@@0@@Z 005632e0 f i glm.obj
 0002:00050a70       ??$quat_cast@M$0A@@glm@@YA?AU?$qua@M$0A@@0@ABU?$mat@$03$03M$0A@@0@@Z 00563a70 f i glm.obj
 0002:00050ae0       ??$quat_cast@N$00@glm@@YA?AU?$qua@N$00@0@ABU?$mat@$02$02N$00@0@@Z 00563ae0 f i glm.obj
 0002:000512b0       ??$quat_cast@N$00@glm@@YA?AU?$qua@N$00@0@ABU?$mat@$03$03N$00@0@@Z 005642b0 f i glm.obj
 0002:00051320       ??$quat_cast@N$01@glm@@YA?AU?$qua@N$01@0@ABU?$mat@$02$02N$01@0@@Z 00564320 f i glm.obj
 0002:00051af0       ??$quat_cast@N$01@glm@@YA?AU?$qua@N$01@0@ABU?$mat@$03$03N$01@0@@Z 00564af0 f i glm.obj
 0002:00051b60       ??$quat_cast@N$0A@@glm@@YA?AU?$qua@N$0A@@0@ABU?$mat@$02$02N$0A@@0@@Z 00564b60 f i glm.obj
 0002:00052330       ??$quat_cast@N$0A@@glm@@YA?AU?$qua@N$0A@@0@ABU?$mat@$03$03N$0A@@0@@Z 00565330 f i glm.obj
 0002:000523a0       ??$sin@$02M$00@glm@@YA?AU?$vec@$02M$00@0@ABU10@@Z 005653a0 f i glm.obj
 0002:00052400       ??$sin@$02M$01@glm@@YA?AU?$vec@$02M$01@0@ABU10@@Z 00565400 f i glm.obj
 0002:00052460       ??$sin@$02M$0A@@glm@@YA?AU?$vec@$02M$0A@@0@ABU10@@Z 00565460 f i glm.obj
 0002:000524c0       ??$sin@$02N$00@glm@@YA?AU?$vec@$02N$00@0@ABU10@@Z 005654c0 f i glm.obj
 0002:00052520       ??$sin@$02N$01@glm@@YA?AU?$vec@$02N$01@0@ABU10@@Z 00565520 f i glm.obj
 0002:00052580       ??$sin@$02N$0A@@glm@@YA?AU?$vec@$02N$0A@@0@ABU10@@Z 00565580 f i glm.obj
 0002:000525e0       ??0?$mat@$01$01M$00@glm@@QAE@ABM000@Z 005655e0 f i glm.obj
 0002:00052690       ??0?$mat@$01$01M$00@glm@@QAE@ABU?$mat@$01$02M$00@1@@Z 00565690 f i glm.obj
 0002:00052720       ??0?$mat@$01$01M$00@glm@@QAE@ABU?$mat@$01$03M$00@1@@Z 00565720 f i glm.obj
 0002:000527b0       ??0?$mat@$01$01M$00@glm@@QAE@ABU?$mat@$02$01M$00@1@@Z 005657b0 f i glm.obj
 0002:00052880       ??0?$mat@$01$01M$00@glm@@QAE@ABU?$mat@$02$02M$00@1@@Z 00565880 f i glm.obj
 0002:00052910       ??0?$mat@$01$01M$00@glm@@QAE@ABU?$mat@$02$03M$00@1@@Z 00565910 f i glm.obj
 0002:000529a0       ??0?$mat@$01$01M$00@glm@@QAE@ABU?$mat@$03$01M$00@1@@Z 005659a0 f i glm.obj
 0002:00052a70       ??0?$mat@$01$01M$00@glm@@QAE@ABU?$mat@$03$02M$00@1@@Z 00565a70 f i glm.obj
 0002:00052b00       ??0?$mat@$01$01M$00@glm@@QAE@ABU?$mat@$03$03M$00@1@@Z 00565b00 f i glm.obj
 0002:00052b90       ??0?$mat@$01$01M$00@glm@@QAE@ABU?$vec@$01M$00@1@0@Z 00565b90 f i glm.obj
 0002:00052c10       ??0?$mat@$01$01M$00@glm@@QAE@M@Z 00565c10 f i glm.obj
 0002:00052ca0       ??0?$mat@$01$01M$01@glm@@QAE@ABM000@Z 00565ca0 f i glm.obj
 0002:00052d50       ??0?$mat@$01$01M$01@glm@@QAE@ABU?$mat@$01$02M$01@1@@Z 00565d50 f i glm.obj
 0002:00052de0       ??0?$mat@$01$01M$01@glm@@QAE@ABU?$mat@$01$03M$01@1@@Z 00565de0 f i glm.obj
 0002:00052e70       ??0?$mat@$01$01M$01@glm@@QAE@ABU?$mat@$02$01M$01@1@@Z 00565e70 f i glm.obj
 0002:00052f40       ??0?$mat@$01$01M$01@glm@@QAE@ABU?$mat@$02$02M$01@1@@Z 00565f40 f i glm.obj
 0002:00052fd0       ??0?$mat@$01$01M$01@glm@@QAE@ABU?$mat@$02$03M$01@1@@Z 00565fd0 f i glm.obj
 0002:00053060       ??0?$mat@$01$01M$01@glm@@QAE@ABU?$mat@$03$01M$01@1@@Z 00566060 f i glm.obj
 0002:00053130       ??0?$mat@$01$01M$01@glm@@QAE@ABU?$mat@$03$02M$01@1@@Z 00566130 f i glm.obj
 0002:000531c0       ??0?$mat@$01$01M$01@glm@@QAE@ABU?$mat@$03$03M$01@1@@Z 005661c0 f i glm.obj
 0002:00053250       ??0?$mat@$01$01M$01@glm@@QAE@ABU?$vec@$01M$01@1@0@Z 00566250 f i glm.obj
 0002:000532d0       ??0?$mat@$01$01M$01@glm@@QAE@M@Z 005662d0 f i glm.obj
 0002:00053360       ??0?$mat@$01$01M$0A@@glm@@QAE@ABM000@Z 00566360 f i glm.obj
 0002:00053410       ??0?$mat@$01$01M$0A@@glm@@QAE@ABU?$mat@$01$02M$0A@@1@@Z 00566410 f i glm.obj
 0002:000534a0       ??0?$mat@$01$01M$0A@@glm@@QAE@ABU?$mat@$01$03M$0A@@1@@Z 005664a0 f i glm.obj
 0002:00053530       ??0?$mat@$01$01M$0A@@glm@@QAE@ABU?$mat@$02$01M$0A@@1@@Z 00566530 f i glm.obj
 0002:00053600       ??0?$mat@$01$01M$0A@@glm@@QAE@ABU?$mat@$02$02M$0A@@1@@Z 00566600 f i glm.obj
 0002:00053690       ??0?$mat@$01$01M$0A@@glm@@QAE@ABU?$mat@$02$03M$0A@@1@@Z 00566690 f i glm.obj
 0002:00053720       ??0?$mat@$01$01M$0A@@glm@@QAE@ABU?$mat@$03$01M$0A@@1@@Z 00566720 f i glm.obj
 0002:000537f0       ??0?$mat@$01$01M$0A@@glm@@QAE@ABU?$mat@$03$02M$0A@@1@@Z 005667f0 f i glm.obj
 0002:00053880       ??0?$mat@$01$01M$0A@@glm@@QAE@ABU?$mat@$03$03M$0A@@1@@Z 00566880 f i glm.obj
 0002:00053910       ??0?$mat@$01$01M$0A@@glm@@QAE@ABU?$vec@$01M$0A@@1@0@Z 00566910 f i glm.obj
 0002:00053990       ??0?$mat@$01$01M$0A@@glm@@QAE@M@Z 00566990 f i glm.obj
 0002:00053a20       ??0?$mat@$01$01N$00@glm@@QAE@ABN000@Z 00566a20 f i glm.obj
 0002:00053ae0       ??0?$mat@$01$01N$00@glm@@QAE@ABU?$mat@$01$02N$00@1@@Z 00566ae0 f i glm.obj
 0002:00053b70       ??0?$mat@$01$01N$00@glm@@QAE@ABU?$mat@$01$03N$00@1@@Z 00566b70 f i glm.obj
 0002:00053c00       ??0?$mat@$01$01N$00@glm@@QAE@ABU?$mat@$02$01N$00@1@@Z 00566c00 f i glm.obj
 0002:00053d30       ??0?$mat@$01$01N$00@glm@@QAE@ABU?$mat@$02$02N$00@1@@Z 00566d30 f i glm.obj
 0002:00053dc0       ??0?$mat@$01$01N$00@glm@@QAE@ABU?$mat@$02$03N$00@1@@Z 00566dc0 f i glm.obj
 0002:00053e50       ??0?$mat@$01$01N$00@glm@@QAE@ABU?$mat@$03$01N$00@1@@Z 00566e50 f i glm.obj
 0002:00053f80       ??0?$mat@$01$01N$00@glm@@QAE@ABU?$mat@$03$02N$00@1@@Z 00566f80 f i glm.obj
 0002:00054010       ??0?$mat@$01$01N$00@glm@@QAE@ABU?$mat@$03$03N$00@1@@Z 00567010 f i glm.obj
 0002:000540a0       ??0?$mat@$01$01N$00@glm@@QAE@ABU?$vec@$01N$00@1@0@Z 005670a0 f i glm.obj
 0002:00054140       ??0?$mat@$01$01N$00@glm@@QAE@N@Z 00567140 f i glm.obj
 0002:000541e0       ??0?$mat@$01$01N$01@glm@@QAE@ABN000@Z 005671e0 f i glm.obj
 0002:000542a0       ??0?$mat@$01$01N$01@glm@@QAE@ABU?$mat@$01$02N$01@1@@Z 005672a0 f i glm.obj
 0002:00054330       ??0?$mat@$01$01N$01@glm@@QAE@ABU?$mat@$01$03N$01@1@@Z 00567330 f i glm.obj
 0002:000543c0       ??0?$mat@$01$01N$01@glm@@QAE@ABU?$mat@$02$01N$01@1@@Z 005673c0 f i glm.obj
 0002:000544f0       ??0?$mat@$01$01N$01@glm@@QAE@ABU?$mat@$02$02N$01@1@@Z 005674f0 f i glm.obj
 0002:00054580       ??0?$mat@$01$01N$01@glm@@QAE@ABU?$mat@$02$03N$01@1@@Z 00567580 f i glm.obj
 0002:00054610       ??0?$mat@$01$01N$01@glm@@QAE@ABU?$mat@$03$01N$01@1@@Z 00567610 f i glm.obj
 0002:00054740       ??0?$mat@$01$01N$01@glm@@QAE@ABU?$mat@$03$02N$01@1@@Z 00567740 f i glm.obj
 0002:000547d0       ??0?$mat@$01$01N$01@glm@@QAE@ABU?$mat@$03$03N$01@1@@Z 005677d0 f i glm.obj
 0002:00054860       ??0?$mat@$01$01N$01@glm@@QAE@ABU?$vec@$01N$01@1@0@Z 00567860 f i glm.obj
 0002:00054900       ??0?$mat@$01$01N$01@glm@@QAE@N@Z 00567900 f i glm.obj
 0002:000549a0       ??0?$mat@$01$01N$0A@@glm@@QAE@ABN000@Z 005679a0 f i glm.obj
 0002:00054a60       ??0?$mat@$01$01N$0A@@glm@@QAE@ABU?$mat@$01$02N$0A@@1@@Z 00567a60 f i glm.obj
 0002:00054af0       ??0?$mat@$01$01N$0A@@glm@@QAE@ABU?$mat@$01$03N$0A@@1@@Z 00567af0 f i glm.obj
 0002:00054b80       ??0?$mat@$01$01N$0A@@glm@@QAE@ABU?$mat@$02$01N$0A@@1@@Z 00567b80 f i glm.obj
 0002:00054cb0       ??0?$mat@$01$01N$0A@@glm@@QAE@ABU?$mat@$02$02N$0A@@1@@Z 00567cb0 f i glm.obj
 0002:00054d40       ??0?$mat@$01$01N$0A@@glm@@QAE@ABU?$mat@$02$03N$0A@@1@@Z 00567d40 f i glm.obj
 0002:00054dd0       ??0?$mat@$01$01N$0A@@glm@@QAE@ABU?$mat@$03$01N$0A@@1@@Z 00567dd0 f i glm.obj
 0002:00054f00       ??0?$mat@$01$01N$0A@@glm@@QAE@ABU?$mat@$03$02N$0A@@1@@Z 00567f00 f i glm.obj
 0002:00054f90       ??0?$mat@$01$01N$0A@@glm@@QAE@ABU?$mat@$03$03N$0A@@1@@Z 00567f90 f i glm.obj
 0002:00055020       ??0?$mat@$01$01N$0A@@glm@@QAE@ABU?$vec@$01N$0A@@1@0@Z 00568020 f i glm.obj
 0002:000550c0       ??0?$mat@$01$01N$0A@@glm@@QAE@N@Z 005680c0 f i glm.obj
 0002:00055160       ??0?$mat@$01$02M$00@glm@@QAE@ABU?$mat@$01$01M$00@1@@Z 00568160 f i glm.obj
 0002:000551f0       ??0?$mat@$01$02M$00@glm@@QAE@ABU?$mat@$01$03M$00@1@@Z 005681f0 f i glm.obj
 0002:00055280       ??0?$mat@$01$02M$00@glm@@QAE@ABU?$mat@$02$01M$00@1@@Z 00568280 f i glm.obj
 0002:00055310       ??0?$mat@$01$02M$00@glm@@QAE@ABU?$mat@$02$02M$00@1@@Z 00568310 f i glm.obj
 0002:00055410       ??0?$mat@$01$02M$00@glm@@QAE@ABU?$mat@$02$03M$00@1@@Z 00568410 f i glm.obj
 0002:000554a0       ??0?$mat@$01$02M$00@glm@@QAE@ABU?$mat@$03$01M$00@1@@Z 005684a0 f i glm.obj
 0002:00055530       ??0?$mat@$01$02M$00@glm@@QAE@ABU?$mat@$03$02M$00@1@@Z 00568530 f i glm.obj
 0002:00055630       ??0?$mat@$01$02M$00@glm@@QAE@ABU?$mat@$03$03M$00@1@@Z 00568630 f i glm.obj
 0002:000556c0       ??0?$mat@$01$02M$00@glm@@QAE@ABU?$vec@$02M$00@1@0@Z 005686c0 f i glm.obj
 0002:000557b0       ??0?$mat@$01$02M$00@glm@@QAE@M@Z 005687b0 f i glm.obj
 0002:00055850       ??0?$mat@$01$02M$00@glm@@QAE@MMMMMM@Z 00568850 f i glm.obj
 0002:00055910       ??0?$mat@$01$02M$01@glm@@QAE@ABU?$mat@$01$01M$01@1@@Z 00568910 f i glm.obj
 0002:000559a0       ??0?$mat@$01$02M$01@glm@@QAE@ABU?$mat@$01$03M$01@1@@Z 005689a0 f i glm.obj
 0002:00055a30       ??0?$mat@$01$02M$01@glm@@QAE@ABU?$mat@$02$01M$01@1@@Z 00568a30 f i glm.obj
 0002:00055ac0       ??0?$mat@$01$02M$01@glm@@QAE@ABU?$mat@$02$02M$01@1@@Z 00568ac0 f i glm.obj
 0002:00055bc0       ??0?$mat@$01$02M$01@glm@@QAE@ABU?$mat@$02$03M$01@1@@Z 00568bc0 f i glm.obj
 0002:00055c50       ??0?$mat@$01$02M$01@glm@@QAE@ABU?$mat@$03$01M$01@1@@Z 00568c50 f i glm.obj
 0002:00055ce0       ??0?$mat@$01$02M$01@glm@@QAE@ABU?$mat@$03$02M$01@1@@Z 00568ce0 f i glm.obj
 0002:00055de0       ??0?$mat@$01$02M$01@glm@@QAE@ABU?$mat@$03$03M$01@1@@Z 00568de0 f i glm.obj
 0002:00055e70       ??0?$mat@$01$02M$01@glm@@QAE@ABU?$vec@$02M$01@1@0@Z 00568e70 f i glm.obj
 0002:00055f60       ??0?$mat@$01$02M$01@glm@@QAE@M@Z 00568f60 f i glm.obj
 0002:00056000       ??0?$mat@$01$02M$01@glm@@QAE@MMMMMM@Z 00569000 f i glm.obj
 0002:000560c0       ??0?$mat@$01$02M$0A@@glm@@QAE@ABU?$mat@$01$01M$0A@@1@@Z 005690c0 f i glm.obj
 0002:00056150       ??0?$mat@$01$02M$0A@@glm@@QAE@ABU?$mat@$01$03M$0A@@1@@Z 00569150 f i glm.obj
 0002:000561e0       ??0?$mat@$01$02M$0A@@glm@@QAE@ABU?$mat@$02$01M$0A@@1@@Z 005691e0 f i glm.obj
 0002:00056270       ??0?$mat@$01$02M$0A@@glm@@QAE@ABU?$mat@$02$02M$0A@@1@@Z 00569270 f i glm.obj
 0002:00056370       ??0?$mat@$01$02M$0A@@glm@@QAE@ABU?$mat@$02$03M$0A@@1@@Z 00569370 f i glm.obj
 0002:00056400       ??0?$mat@$01$02M$0A@@glm@@QAE@ABU?$mat@$03$01M$0A@@1@@Z 00569400 f i glm.obj
 0002:00056490       ??0?$mat@$01$02M$0A@@glm@@QAE@ABU?$mat@$03$02M$0A@@1@@Z 00569490 f i glm.obj
 0002:00056590       ??0?$mat@$01$02M$0A@@glm@@QAE@ABU?$mat@$03$03M$0A@@1@@Z 00569590 f i glm.obj
 0002:00056620       ??0?$mat@$01$02M$0A@@glm@@QAE@ABU?$vec@$02M$0A@@1@0@Z 00569620 f i glm.obj
 0002:00056710       ??0?$mat@$01$02M$0A@@glm@@QAE@M@Z 00569710 f i glm.obj
 0002:000567b0       ??0?$mat@$01$02M$0A@@glm@@QAE@MMMMMM@Z 005697b0 f i glm.obj
 0002:00056870       ??0?$mat@$01$02N$00@glm@@QAE@ABU?$mat@$01$01N$00@1@@Z 00569870 f i glm.obj
 0002:00056900       ??0?$mat@$01$02N$00@glm@@QAE@ABU?$mat@$01$03N$00@1@@Z 00569900 f i glm.obj
 0002:00056990       ??0?$mat@$01$02N$00@glm@@QAE@ABU?$mat@$02$01N$00@1@@Z 00569990 f i glm.obj
 0002:00056a20       ??0?$mat@$01$02N$00@glm@@QAE@ABU?$mat@$02$02N$00@1@@Z 00569a20 f i glm.obj
 0002:00056bb0       ??0?$mat@$01$02N$00@glm@@QAE@ABU?$mat@$02$03N$00@1@@Z 00569bb0 f i glm.obj
 0002:00056c40       ??0?$mat@$01$02N$00@glm@@QAE@ABU?$mat@$03$01N$00@1@@Z 00569c40 f i glm.obj
 0002:00056cd0       ??0?$mat@$01$02N$00@glm@@QAE@ABU?$mat@$03$02N$00@1@@Z 00569cd0 f i glm.obj
 0002:00056e60       ??0?$mat@$01$02N$00@glm@@QAE@ABU?$mat@$03$03N$00@1@@Z 00569e60 f i glm.obj
 0002:00056ef0       ??0?$mat@$01$02N$00@glm@@QAE@ABU?$vec@$02N$00@1@0@Z 00569ef0 f i glm.obj
 0002:00057060       ??0?$mat@$01$02N$00@glm@@QAE@N@Z 0056a060 f i glm.obj
 0002:00057100       ??0?$mat@$01$02N$00@glm@@QAE@NNNNNN@Z 0056a100 f i glm.obj
 0002:000571d0       ??0?$mat@$01$02N$01@glm@@QAE@ABU?$mat@$01$01N$01@1@@Z 0056a1d0 f i glm.obj
 0002:00057260       ??0?$mat@$01$02N$01@glm@@QAE@ABU?$mat@$01$03N$01@1@@Z 0056a260 f i glm.obj
 0002:000572f0       ??0?$mat@$01$02N$01@glm@@QAE@ABU?$mat@$02$01N$01@1@@Z 0056a2f0 f i glm.obj
 0002:00057380       ??0?$mat@$01$02N$01@glm@@QAE@ABU?$mat@$02$02N$01@1@@Z 0056a380 f i glm.obj
 0002:00057510       ??0?$mat@$01$02N$01@glm@@QAE@ABU?$mat@$02$03N$01@1@@Z 0056a510 f i glm.obj
 0002:000575a0       ??0?$mat@$01$02N$01@glm@@QAE@ABU?$mat@$03$01N$01@1@@Z 0056a5a0 f i glm.obj
 0002:00057630       ??0?$mat@$01$02N$01@glm@@QAE@ABU?$mat@$03$02N$01@1@@Z 0056a630 f i glm.obj
 0002:000577c0       ??0?$mat@$01$02N$01@glm@@QAE@ABU?$mat@$03$03N$01@1@@Z 0056a7c0 f i glm.obj
 0002:00057850       ??0?$mat@$01$02N$01@glm@@QAE@ABU?$vec@$02N$01@1@0@Z 0056a850 f i glm.obj
 0002:000579c0       ??0?$mat@$01$02N$01@glm@@QAE@N@Z 0056a9c0 f i glm.obj
 0002:00057a60       ??0?$mat@$01$02N$01@glm@@QAE@NNNNNN@Z 0056aa60 f i glm.obj
 0002:00057b30       ??0?$mat@$01$02N$0A@@glm@@QAE@ABU?$mat@$01$01N$0A@@1@@Z 0056ab30 f i glm.obj
 0002:00057bc0       ??0?$mat@$01$02N$0A@@glm@@QAE@ABU?$mat@$01$03N$0A@@1@@Z 0056abc0 f i glm.obj
 0002:00057c50       ??0?$mat@$01$02N$0A@@glm@@QAE@ABU?$mat@$02$01N$0A@@1@@Z 0056ac50 f i glm.obj
 0002:00057ce0       ??0?$mat@$01$02N$0A@@glm@@QAE@ABU?$mat@$02$02N$0A@@1@@Z 0056ace0 f i glm.obj
 0002:00057e70       ??0?$mat@$01$02N$0A@@glm@@QAE@ABU?$mat@$02$03N$0A@@1@@Z 0056ae70 f i glm.obj
 0002:00057f00       ??0?$mat@$01$02N$0A@@glm@@QAE@ABU?$mat@$03$01N$0A@@1@@Z 0056af00 f i glm.obj
 0002:00057f90       ??0?$mat@$01$02N$0A@@glm@@QAE@ABU?$mat@$03$02N$0A@@1@@Z 0056af90 f i glm.obj
 0002:00058120       ??0?$mat@$01$02N$0A@@glm@@QAE@ABU?$mat@$03$03N$0A@@1@@Z 0056b120 f i glm.obj
 0002:000581b0       ??0?$mat@$01$02N$0A@@glm@@QAE@ABU?$vec@$02N$0A@@1@0@Z 0056b1b0 f i glm.obj
 0002:00058320       ??0?$mat@$01$02N$0A@@glm@@QAE@N@Z 0056b320 f i glm.obj
 0002:000583c0       ??0?$mat@$01$02N$0A@@glm@@QAE@NNNNNN@Z 0056b3c0 f i glm.obj
 0002:00058490       ??0?$mat@$01$03M$00@glm@@QAE@ABU?$mat@$01$01M$00@1@@Z 0056b490 f i glm.obj
 0002:00058530       ??0?$mat@$01$03M$00@glm@@QAE@ABU?$mat@$01$02M$00@1@@Z 0056b530 f i glm.obj
 0002:000585c0       ??0?$mat@$01$03M$00@glm@@QAE@ABU?$mat@$02$01M$00@1@@Z 0056b5c0 f i glm.obj
 0002:00058660       ??0?$mat@$01$03M$00@glm@@QAE@ABU?$mat@$02$02M$00@1@@Z 0056b660 f i glm.obj
 0002:000586f0       ??0?$mat@$01$03M$00@glm@@QAE@ABU?$mat@$02$03M$00@1@@Z 0056b6f0 f i glm.obj
 0002:00058820       ??0?$mat@$01$03M$00@glm@@QAE@ABU?$mat@$03$01M$00@1@@Z 0056b820 f i glm.obj
 0002:000588c0       ??0?$mat@$01$03M$00@glm@@QAE@ABU?$mat@$03$02M$00@1@@Z 0056b8c0 f i glm.obj
 0002:00058950       ??0?$mat@$01$03M$00@glm@@QAE@ABU?$mat@$03$03M$00@1@@Z 0056b950 f i glm.obj
 0002:00058a80       ??0?$mat@$01$03M$00@glm@@QAE@ABU?$vec@$03M$00@1@0@Z 0056ba80 f i glm.obj
 0002:00058ba0       ??0?$mat@$01$03M$00@glm@@QAE@M@Z 0056bba0 f i glm.obj
 0002:00058c40       ??0?$mat@$01$03M$00@glm@@QAE@MMMMMMMM@Z 0056bc40 f i glm.obj
 0002:00058d20       ??0?$mat@$01$03M$01@glm@@QAE@ABU?$mat@$01$01M$01@1@@Z 0056bd20 f i glm.obj
 0002:00058dc0       ??0?$mat@$01$03M$01@glm@@QAE@ABU?$mat@$01$02M$01@1@@Z 0056bdc0 f i glm.obj
 0002:00058e50       ??0?$mat@$01$03M$01@glm@@QAE@ABU?$mat@$02$01M$01@1@@Z 0056be50 f i glm.obj
 0002:00058ef0       ??0?$mat@$01$03M$01@glm@@QAE@ABU?$mat@$02$02M$01@1@@Z 0056bef0 f i glm.obj
 0002:00058f80       ??0?$mat@$01$03M$01@glm@@QAE@ABU?$mat@$02$03M$01@1@@Z 0056bf80 f i glm.obj
 0002:000590b0       ??0?$mat@$01$03M$01@glm@@QAE@ABU?$mat@$03$01M$01@1@@Z 0056c0b0 f i glm.obj
 0002:00059150       ??0?$mat@$01$03M$01@glm@@QAE@ABU?$mat@$03$02M$01@1@@Z 0056c150 f i glm.obj
 0002:000591e0       ??0?$mat@$01$03M$01@glm@@QAE@ABU?$mat@$03$03M$01@1@@Z 0056c1e0 f i glm.obj
 0002:00059310       ??0?$mat@$01$03M$01@glm@@QAE@ABU?$vec@$03M$01@1@0@Z 0056c310 f i glm.obj
 0002:00059430       ??0?$mat@$01$03M$01@glm@@QAE@M@Z 0056c430 f i glm.obj
 0002:000594d0       ??0?$mat@$01$03M$01@glm@@QAE@MMMMMMMM@Z 0056c4d0 f i glm.obj
 0002:000595b0       ??0?$mat@$01$03M$0A@@glm@@QAE@ABU?$mat@$01$01M$0A@@1@@Z 0056c5b0 f i glm.obj
 0002:00059650       ??0?$mat@$01$03M$0A@@glm@@QAE@ABU?$mat@$01$02M$0A@@1@@Z 0056c650 f i glm.obj
 0002:000596e0       ??0?$mat@$01$03M$0A@@glm@@QAE@ABU?$mat@$02$01M$0A@@1@@Z 0056c6e0 f i glm.obj
 0002:00059780       ??0?$mat@$01$03M$0A@@glm@@QAE@ABU?$mat@$02$02M$0A@@1@@Z 0056c780 f i glm.obj
 0002:00059810       ??0?$mat@$01$03M$0A@@glm@@QAE@ABU?$mat@$02$03M$0A@@1@@Z 0056c810 f i glm.obj
 0002:00059940       ??0?$mat@$01$03M$0A@@glm@@QAE@ABU?$mat@$03$01M$0A@@1@@Z 0056c940 f i glm.obj
 0002:000599e0       ??0?$mat@$01$03M$0A@@glm@@QAE@ABU?$mat@$03$02M$0A@@1@@Z 0056c9e0 f i glm.obj
 0002:00059a70       ??0?$mat@$01$03M$0A@@glm@@QAE@ABU?$mat@$03$03M$0A@@1@@Z 0056ca70 f i glm.obj
 0002:00059ba0       ??0?$mat@$01$03M$0A@@glm@@QAE@ABU?$vec@$03M$0A@@1@0@Z 0056cba0 f i glm.obj
 0002:00059cc0       ??0?$mat@$01$03M$0A@@glm@@QAE@M@Z 0056ccc0 f i glm.obj
 0002:00059d60       ??0?$mat@$01$03M$0A@@glm@@QAE@MMMMMMMM@Z 0056cd60 f i glm.obj
 0002:00059e40       ??0?$mat@$01$03N$00@glm@@QAE@ABU?$mat@$01$01N$00@1@@Z 0056ce40 f i glm.obj
 0002:00059ee0       ??0?$mat@$01$03N$00@glm@@QAE@ABU?$mat@$01$02N$00@1@@Z 0056cee0 f i glm.obj
 0002:00059f70       ??0?$mat@$01$03N$00@glm@@QAE@ABU?$mat@$02$01N$00@1@@Z 0056cf70 f i glm.obj
 0002:0005a010       ??0?$mat@$01$03N$00@glm@@QAE@ABU?$mat@$02$02N$00@1@@Z 0056d010 f i glm.obj
 0002:0005a0a0       ??0?$mat@$01$03N$00@glm@@QAE@ABU?$mat@$02$03N$00@1@@Z 0056d0a0 f i glm.obj
 0002:0005a160       ??0?$mat@$01$03N$00@glm@@QAE@ABU?$mat@$03$01N$00@1@@Z 0056d160 f i glm.obj
 0002:0005a200       ??0?$mat@$01$03N$00@glm@@QAE@ABU?$mat@$03$02N$00@1@@Z 0056d200 f i glm.obj
 0002:0005a290       ??0?$mat@$01$03N$00@glm@@QAE@ABU?$mat@$03$03N$00@1@@Z 0056d290 f i glm.obj
 0002:0005a350       ??0?$mat@$01$03N$00@glm@@QAE@ABU?$vec@$03N$00@1@0@Z 0056d350 f i glm.obj
 0002:0005a400       ??0?$mat@$01$03N$00@glm@@QAE@N@Z 0056d400 f i glm.obj
 0002:0005a4a0       ??0?$mat@$01$03N$00@glm@@QAE@NNNNNNNN@Z 0056d4a0 f i glm.obj
 0002:0005a590       ??0?$mat@$01$03N$01@glm@@QAE@ABU?$mat@$01$01N$01@1@@Z 0056d590 f i glm.obj
 0002:0005a630       ??0?$mat@$01$03N$01@glm@@QAE@ABU?$mat@$01$02N$01@1@@Z 0056d630 f i glm.obj
 0002:0005a6c0       ??0?$mat@$01$03N$01@glm@@QAE@ABU?$mat@$02$01N$01@1@@Z 0056d6c0 f i glm.obj
 0002:0005a760       ??0?$mat@$01$03N$01@glm@@QAE@ABU?$mat@$02$02N$01@1@@Z 0056d760 f i glm.obj
 0002:0005a7f0       ??0?$mat@$01$03N$01@glm@@QAE@ABU?$mat@$02$03N$01@1@@Z 0056d7f0 f i glm.obj
 0002:0005a8b0       ??0?$mat@$01$03N$01@glm@@QAE@ABU?$mat@$03$01N$01@1@@Z 0056d8b0 f i glm.obj
 0002:0005a950       ??0?$mat@$01$03N$01@glm@@QAE@ABU?$mat@$03$02N$01@1@@Z 0056d950 f i glm.obj
 0002:0005a9e0       ??0?$mat@$01$03N$01@glm@@QAE@ABU?$mat@$03$03N$01@1@@Z 0056d9e0 f i glm.obj
 0002:0005aaa0       ??0?$mat@$01$03N$01@glm@@QAE@ABU?$vec@$03N$01@1@0@Z 0056daa0 f i glm.obj
 0002:0005ab50       ??0?$mat@$01$03N$01@glm@@QAE@N@Z 0056db50 f i glm.obj
 0002:0005abf0       ??0?$mat@$01$03N$01@glm@@QAE@NNNNNNNN@Z 0056dbf0 f i glm.obj
 0002:0005ace0       ??0?$mat@$01$03N$0A@@glm@@QAE@ABU?$mat@$01$01N$0A@@1@@Z 0056dce0 f i glm.obj
 0002:0005ad80       ??0?$mat@$01$03N$0A@@glm@@QAE@ABU?$mat@$01$02N$0A@@1@@Z 0056dd80 f i glm.obj
 0002:0005ae10       ??0?$mat@$01$03N$0A@@glm@@QAE@ABU?$mat@$02$01N$0A@@1@@Z 0056de10 f i glm.obj
 0002:0005aeb0       ??0?$mat@$01$03N$0A@@glm@@QAE@ABU?$mat@$02$02N$0A@@1@@Z 0056deb0 f i glm.obj
 0002:0005af40       ??0?$mat@$01$03N$0A@@glm@@QAE@ABU?$mat@$02$03N$0A@@1@@Z 0056df40 f i glm.obj
 0002:0005b000       ??0?$mat@$01$03N$0A@@glm@@QAE@ABU?$mat@$03$01N$0A@@1@@Z 0056e000 f i glm.obj
 0002:0005b0a0       ??0?$mat@$01$03N$0A@@glm@@QAE@ABU?$mat@$03$02N$0A@@1@@Z 0056e0a0 f i glm.obj
 0002:0005b130       ??0?$mat@$01$03N$0A@@glm@@QAE@ABU?$mat@$03$03N$0A@@1@@Z 0056e130 f i glm.obj
 0002:0005b1f0       ??0?$mat@$01$03N$0A@@glm@@QAE@ABU?$vec@$03N$0A@@1@0@Z 0056e1f0 f i glm.obj
 0002:0005b2a0       ??0?$mat@$01$03N$0A@@glm@@QAE@N@Z 0056e2a0 f i glm.obj
 0002:0005b340       ??0?$mat@$01$03N$0A@@glm@@QAE@NNNNNNNN@Z 0056e340 f i glm.obj
 0002:0005b430       ??0?$mat@$02$01M$00@glm@@QAE@ABU?$mat@$01$01M$00@1@@Z 0056e430 f i glm.obj
 0002:0005b520       ??0?$mat@$02$01M$00@glm@@QAE@ABU?$mat@$01$02M$00@1@@Z 0056e520 f i glm.obj
 0002:0005b5c0       ??0?$mat@$02$01M$00@glm@@QAE@ABU?$mat@$01$03M$00@1@@Z 0056e5c0 f i glm.obj
 0002:0005b660       ??0?$mat@$02$01M$00@glm@@QAE@ABU?$mat@$02$02M$00@1@@Z 0056e660 f i glm.obj
 0002:0005b710       ??0?$mat@$02$01M$00@glm@@QAE@ABU?$mat@$02$03M$00@1@@Z 0056e710 f i glm.obj
 0002:0005b7c0       ??0?$mat@$02$01M$00@glm@@QAE@ABU?$mat@$03$01M$00@1@@Z 0056e7c0 f i glm.obj
 0002:0005b8d0       ??0?$mat@$02$01M$00@glm@@QAE@ABU?$mat@$03$02M$00@1@@Z 0056e8d0 f i glm.obj
 0002:0005b980       ??0?$mat@$02$01M$00@glm@@QAE@ABU?$mat@$03$03M$00@1@@Z 0056e980 f i glm.obj
 0002:0005ba30       ??0?$mat@$02$01M$00@glm@@QAE@ABU?$vec@$01M$00@1@00@Z 0056ea30 f i glm.obj
 0002:0005bb20       ??0?$mat@$02$01M$00@glm@@QAE@M@Z 0056eb20 f i glm.obj
 0002:0005bbc0       ??0?$mat@$02$01M$00@glm@@QAE@MMMMMM@Z 0056ebc0 f i glm.obj
 0002:0005bc90       ??0?$mat@$02$01M$01@glm@@QAE@ABU?$mat@$01$01M$01@1@@Z 0056ec90 f i glm.obj
 0002:0005bd80       ??0?$mat@$02$01M$01@glm@@QAE@ABU?$mat@$01$02M$01@1@@Z 0056ed80 f i glm.obj
 0002:0005be20       ??0?$mat@$02$01M$01@glm@@QAE@ABU?$mat@$01$03M$01@1@@Z 0056ee20 f i glm.obj
 0002:0005bec0       ??0?$mat@$02$01M$01@glm@@QAE@ABU?$mat@$02$02M$01@1@@Z 0056eec0 f i glm.obj
 0002:0005bf70       ??0?$mat@$02$01M$01@glm@@QAE@ABU?$mat@$02$03M$01@1@@Z 0056ef70 f i glm.obj
 0002:0005c020       ??0?$mat@$02$01M$01@glm@@QAE@ABU?$mat@$03$01M$01@1@@Z 0056f020 f i glm.obj
 0002:0005c130       ??0?$mat@$02$01M$01@glm@@QAE@ABU?$mat@$03$02M$01@1@@Z 0056f130 f i glm.obj
 0002:0005c1e0       ??0?$mat@$02$01M$01@glm@@QAE@ABU?$mat@$03$03M$01@1@@Z 0056f1e0 f i glm.obj
 0002:0005c290       ??0?$mat@$02$01M$01@glm@@QAE@ABU?$vec@$01M$01@1@00@Z 0056f290 f i glm.obj
 0002:0005c380       ??0?$mat@$02$01M$01@glm@@QAE@M@Z 0056f380 f i glm.obj
 0002:0005c420       ??0?$mat@$02$01M$01@glm@@QAE@MMMMMM@Z 0056f420 f i glm.obj
 0002:0005c4f0       ??0?$mat@$02$01M$0A@@glm@@QAE@ABU?$mat@$01$01M$0A@@1@@Z 0056f4f0 f i glm.obj
 0002:0005c5e0       ??0?$mat@$02$01M$0A@@glm@@QAE@ABU?$mat@$01$02M$0A@@1@@Z 0056f5e0 f i glm.obj
 0002:0005c680       ??0?$mat@$02$01M$0A@@glm@@QAE@ABU?$mat@$01$03M$0A@@1@@Z 0056f680 f i glm.obj
 0002:0005c720       ??0?$mat@$02$01M$0A@@glm@@QAE@ABU?$mat@$02$02M$0A@@1@@Z 0056f720 f i glm.obj
 0002:0005c7d0       ??0?$mat@$02$01M$0A@@glm@@QAE@ABU?$mat@$02$03M$0A@@1@@Z 0056f7d0 f i glm.obj
 0002:0005c880       ??0?$mat@$02$01M$0A@@glm@@QAE@ABU?$mat@$03$01M$0A@@1@@Z 0056f880 f i glm.obj
 0002:0005c990       ??0?$mat@$02$01M$0A@@glm@@QAE@ABU?$mat@$03$02M$0A@@1@@Z 0056f990 f i glm.obj
 0002:0005ca40       ??0?$mat@$02$01M$0A@@glm@@QAE@ABU?$mat@$03$03M$0A@@1@@Z 0056fa40 f i glm.obj
 0002:0005caf0       ??0?$mat@$02$01M$0A@@glm@@QAE@ABU?$vec@$01M$0A@@1@00@Z 0056faf0 f i glm.obj
 0002:0005cbe0       ??0?$mat@$02$01M$0A@@glm@@QAE@M@Z 0056fbe0 f i glm.obj
 0002:0005cc80       ??0?$mat@$02$01M$0A@@glm@@QAE@MMMMMM@Z 0056fc80 f i glm.obj
 0002:0005cd50       ??0?$mat@$02$01N$00@glm@@QAE@ABU?$mat@$01$01N$00@1@@Z 0056fd50 f i glm.obj
 0002:0005cea0       ??0?$mat@$02$01N$00@glm@@QAE@ABU?$mat@$01$02N$00@1@@Z 0056fea0 f i glm.obj
 0002:0005cf50       ??0?$mat@$02$01N$00@glm@@QAE@ABU?$mat@$01$03N$00@1@@Z 0056ff50 f i glm.obj
 0002:0005d000       ??0?$mat@$02$01N$00@glm@@QAE@ABU?$mat@$02$02N$00@1@@Z 00570000 f i glm.obj
 0002:0005d0b0       ??0?$mat@$02$01N$00@glm@@QAE@ABU?$mat@$02$03N$00@1@@Z 005700b0 f i glm.obj
 0002:0005d160       ??0?$mat@$02$01N$00@glm@@QAE@ABU?$mat@$03$01N$00@1@@Z 00570160 f i glm.obj
 0002:0005d300       ??0?$mat@$02$01N$00@glm@@QAE@ABU?$mat@$03$02N$00@1@@Z 00570300 f i glm.obj
 0002:0005d3b0       ??0?$mat@$02$01N$00@glm@@QAE@ABU?$mat@$03$03N$00@1@@Z 005703b0 f i glm.obj
 0002:0005d460       ??0?$mat@$02$01N$00@glm@@QAE@ABU?$vec@$01N$00@1@00@Z 00570460 f i glm.obj
 0002:0005d5e0       ??0?$mat@$02$01N$00@glm@@QAE@N@Z 005705e0 f i glm.obj
 0002:0005d690       ??0?$mat@$02$01N$00@glm@@QAE@NNNNNN@Z 00570690 f i glm.obj
 0002:0005d770       ??0?$mat@$02$01N$01@glm@@QAE@ABU?$mat@$01$01N$01@1@@Z 00570770 f i glm.obj
 0002:0005d8c0       ??0?$mat@$02$01N$01@glm@@QAE@ABU?$mat@$01$02N$01@1@@Z 005708c0 f i glm.obj
 0002:0005d970       ??0?$mat@$02$01N$01@glm@@QAE@ABU?$mat@$01$03N$01@1@@Z 00570970 f i glm.obj
 0002:0005da20       ??0?$mat@$02$01N$01@glm@@QAE@ABU?$mat@$02$02N$01@1@@Z 00570a20 f i glm.obj
 0002:0005dad0       ??0?$mat@$02$01N$01@glm@@QAE@ABU?$mat@$02$03N$01@1@@Z 00570ad0 f i glm.obj
 0002:0005db80       ??0?$mat@$02$01N$01@glm@@QAE@ABU?$mat@$03$01N$01@1@@Z 00570b80 f i glm.obj
 0002:0005dd20       ??0?$mat@$02$01N$01@glm@@QAE@ABU?$mat@$03$02N$01@1@@Z 00570d20 f i glm.obj
 0002:0005ddd0       ??0?$mat@$02$01N$01@glm@@QAE@ABU?$mat@$03$03N$01@1@@Z 00570dd0 f i glm.obj
 0002:0005de80       ??0?$mat@$02$01N$01@glm@@QAE@ABU?$vec@$01N$01@1@00@Z 00570e80 f i glm.obj
 0002:0005e000       ??0?$mat@$02$01N$01@glm@@QAE@N@Z 00571000 f i glm.obj
 0002:0005e0b0       ??0?$mat@$02$01N$01@glm@@QAE@NNNNNN@Z 005710b0 f i glm.obj
 0002:0005e190       ??0?$mat@$02$01N$0A@@glm@@QAE@ABU?$mat@$01$01N$0A@@1@@Z 00571190 f i glm.obj
 0002:0005e2e0       ??0?$mat@$02$01N$0A@@glm@@QAE@ABU?$mat@$01$02N$0A@@1@@Z 005712e0 f i glm.obj
 0002:0005e390       ??0?$mat@$02$01N$0A@@glm@@QAE@ABU?$mat@$01$03N$0A@@1@@Z 00571390 f i glm.obj
 0002:0005e440       ??0?$mat@$02$01N$0A@@glm@@QAE@ABU?$mat@$02$02N$0A@@1@@Z 00571440 f i glm.obj
 0002:0005e4f0       ??0?$mat@$02$01N$0A@@glm@@QAE@ABU?$mat@$02$03N$0A@@1@@Z 005714f0 f i glm.obj
 0002:0005e5a0       ??0?$mat@$02$01N$0A@@glm@@QAE@ABU?$mat@$03$01N$0A@@1@@Z 005715a0 f i glm.obj
 0002:0005e740       ??0?$mat@$02$01N$0A@@glm@@QAE@ABU?$mat@$03$02N$0A@@1@@Z 00571740 f i glm.obj
 0002:0005e7f0       ??0?$mat@$02$01N$0A@@glm@@QAE@ABU?$mat@$03$03N$0A@@1@@Z 005717f0 f i glm.obj
 0002:0005e8a0       ??0?$mat@$02$01N$0A@@glm@@QAE@ABU?$vec@$01N$0A@@1@00@Z 005718a0 f i glm.obj
 0002:0005ea20       ??0?$mat@$02$01N$0A@@glm@@QAE@N@Z 00571a20 f i glm.obj
 0002:0005ead0       ??0?$mat@$02$01N$0A@@glm@@QAE@NNNNNN@Z 00571ad0 f i glm.obj
 0002:0005ebb0       ??0?$mat@$02$02M$00@glm@@QAE@ABU?$mat@$01$01M$00@1@@Z 00571bb0 f i glm.obj
 0002:0005ec60       ??0?$mat@$02$02M$00@glm@@QAE@ABU?$mat@$01$02M$00@1@@Z 00571c60 f i glm.obj
 0002:0005ed70       ??0?$mat@$02$02M$00@glm@@QAE@ABU?$mat@$01$03M$00@1@@Z 00571d70 f i glm.obj
 0002:0005ee10       ??0?$mat@$02$02M$00@glm@@QAE@ABU?$mat@$02$01M$00@1@@Z 00571e10 f i glm.obj
 0002:0005eec0       ??0?$mat@$02$02M$00@glm@@QAE@ABU?$mat@$02$03M$00@1@@Z 00571ec0 f i glm.obj
 0002:0005ef70       ??0?$mat@$02$02M$00@glm@@QAE@ABU?$mat@$03$01M$00@1@@Z 00571f70 f i glm.obj
 0002:0005f020       ??0?$mat@$02$02M$00@glm@@QAE@ABU?$mat@$03$02M$00@1@@Z 00572020 f i glm.obj
 0002:0005f170       ??0?$mat@$02$02M$00@glm@@QAE@ABU?$mat@$03$03M$00@1@@Z 00572170 f i glm.obj
 0002:0005f220       ??0?$mat@$02$02M$00@glm@@QAE@ABU?$vec@$02M$00@1@00@Z 00572220 f i glm.obj
 0002:0005f360       ??0?$mat@$02$02M$00@glm@@QAE@M@Z 00572360 f i glm.obj
 0002:0005f420       ??0?$mat@$02$02M$00@glm@@QAE@MMMMMMMMM@Z 00572420 f i glm.obj
 0002:0005f520       ??0?$mat@$02$02M$01@glm@@QAE@ABU?$mat@$01$01M$01@1@@Z 00572520 f i glm.obj
 0002:0005f5d0       ??0?$mat@$02$02M$01@glm@@QAE@ABU?$mat@$01$02M$01@1@@Z 005725d0 f i glm.obj
 0002:0005f6e0       ??0?$mat@$02$02M$01@glm@@QAE@ABU?$mat@$01$03M$01@1@@Z 005726e0 f i glm.obj
 0002:0005f780       ??0?$mat@$02$02M$01@glm@@QAE@ABU?$mat@$02$01M$01@1@@Z 00572780 f i glm.obj
 0002:0005f830       ??0?$mat@$02$02M$01@glm@@QAE@ABU?$mat@$02$03M$01@1@@Z 00572830 f i glm.obj
 0002:0005f8e0       ??0?$mat@$02$02M$01@glm@@QAE@ABU?$mat@$03$01M$01@1@@Z 005728e0 f i glm.obj
 0002:0005f990       ??0?$mat@$02$02M$01@glm@@QAE@ABU?$mat@$03$02M$01@1@@Z 00572990 f i glm.obj
 0002:0005fae0       ??0?$mat@$02$02M$01@glm@@QAE@ABU?$mat@$03$03M$01@1@@Z 00572ae0 f i glm.obj
 0002:0005fb90       ??0?$mat@$02$02M$01@glm@@QAE@ABU?$vec@$02M$01@1@00@Z 00572b90 f i glm.obj
 0002:0005fcd0       ??0?$mat@$02$02M$01@glm@@QAE@M@Z 00572cd0 f i glm.obj
 0002:0005fd90       ??0?$mat@$02$02M$01@glm@@QAE@MMMMMMMMM@Z 00572d90 f i glm.obj
 0002:0005fe90       ??0?$mat@$02$02M$0A@@glm@@QAE@ABU?$mat@$01$01M$0A@@1@@Z 00572e90 f i glm.obj
 0002:0005ff40       ??0?$mat@$02$02M$0A@@glm@@QAE@ABU?$mat@$01$02M$0A@@1@@Z 00572f40 f i glm.obj
 0002:00060050       ??0?$mat@$02$02M$0A@@glm@@QAE@ABU?$mat@$01$03M$0A@@1@@Z 00573050 f i glm.obj
 0002:000600f0       ??0?$mat@$02$02M$0A@@glm@@QAE@ABU?$mat@$02$01M$0A@@1@@Z 005730f0 f i glm.obj
 0002:000601a0       ??0?$mat@$02$02M$0A@@glm@@QAE@ABU?$mat@$02$03M$0A@@1@@Z 005731a0 f i glm.obj
 0002:00060250       ??0?$mat@$02$02M$0A@@glm@@QAE@ABU?$mat@$03$01M$0A@@1@@Z 00573250 f i glm.obj
 0002:00060300       ??0?$mat@$02$02M$0A@@glm@@QAE@ABU?$mat@$03$02M$0A@@1@@Z 00573300 f i glm.obj
 0002:00060450       ??0?$mat@$02$02M$0A@@glm@@QAE@ABU?$mat@$03$03M$0A@@1@@Z 00573450 f i glm.obj
 0002:00060500       ??0?$mat@$02$02M$0A@@glm@@QAE@ABU?$vec@$02M$0A@@1@00@Z 00573500 f i glm.obj
 0002:00060640       ??0?$mat@$02$02M$0A@@glm@@QAE@M@Z 00573640 f i glm.obj
 0002:00060700       ??0?$mat@$02$02M$0A@@glm@@QAE@MMMMMMMMM@Z 00573700 f i glm.obj
 0002:00060800       ??0?$mat@$02$02N$00@glm@@QAE@ABU?$mat@$01$01N$00@1@@Z 00573800 f i glm.obj
 0002:000608b0       ??0?$mat@$02$02N$00@glm@@QAE@ABU?$mat@$01$02N$00@1@@Z 005738b0 f i glm.obj
 0002:00060a50       ??0?$mat@$02$02N$00@glm@@QAE@ABU?$mat@$01$03N$00@1@@Z 00573a50 f i glm.obj
 0002:00060af0       ??0?$mat@$02$02N$00@glm@@QAE@ABU?$mat@$02$01N$00@1@@Z 00573af0 f i glm.obj
 0002:00060ba0       ??0?$mat@$02$02N$00@glm@@QAE@ABU?$mat@$02$03N$00@1@@Z 00573ba0 f i glm.obj
 0002:00060c50       ??0?$mat@$02$02N$00@glm@@QAE@ABU?$mat@$03$01N$00@1@@Z 00573c50 f i glm.obj
 0002:00060d00       ??0?$mat@$02$02N$00@glm@@QAE@ABU?$mat@$03$02N$00@1@@Z 00573d00 f i glm.obj
 0002:00060f20       ??0?$mat@$02$02N$00@glm@@QAE@ABU?$mat@$03$03N$00@1@@Z 00573f20 f i glm.obj
 0002:00060fd0       ??0?$mat@$02$02N$00@glm@@QAE@ABU?$vec@$02N$00@1@00@Z 00573fd0 f i glm.obj
 0002:000611d0       ??0?$mat@$02$02N$00@glm@@QAE@N@Z 005741d0 f i glm.obj
 0002:00061290       ??0?$mat@$02$02N$00@glm@@QAE@NNNNNNNNN@Z 00574290 f i glm.obj
 0002:000613a0       ??0?$mat@$02$02N$01@glm@@QAE@ABU?$mat@$01$01N$01@1@@Z 005743a0 f i glm.obj
 0002:00061450       ??0?$mat@$02$02N$01@glm@@QAE@ABU?$mat@$01$02N$01@1@@Z 00574450 f i glm.obj
 0002:000615f0       ??0?$mat@$02$02N$01@glm@@QAE@ABU?$mat@$01$03N$01@1@@Z 005745f0 f i glm.obj
 0002:00061690       ??0?$mat@$02$02N$01@glm@@QAE@ABU?$mat@$02$01N$01@1@@Z 00574690 f i glm.obj
 0002:00061740       ??0?$mat@$02$02N$01@glm@@QAE@ABU?$mat@$02$03N$01@1@@Z 00574740 f i glm.obj
 0002:000617f0       ??0?$mat@$02$02N$01@glm@@QAE@ABU?$mat@$03$01N$01@1@@Z 005747f0 f i glm.obj
 0002:000618a0       ??0?$mat@$02$02N$01@glm@@QAE@ABU?$mat@$03$02N$01@1@@Z 005748a0 f i glm.obj
 0002:00061ac0       ??0?$mat@$02$02N$01@glm@@QAE@ABU?$mat@$03$03N$01@1@@Z 00574ac0 f i glm.obj
 0002:00061b70       ??0?$mat@$02$02N$01@glm@@QAE@ABU?$vec@$02N$01@1@00@Z 00574b70 f i glm.obj
 0002:00061d70       ??0?$mat@$02$02N$01@glm@@QAE@N@Z 00574d70 f i glm.obj
 0002:00061e30       ??0?$mat@$02$02N$01@glm@@QAE@NNNNNNNNN@Z 00574e30 f i glm.obj
 0002:00061f40       ??0?$mat@$02$02N$0A@@glm@@QAE@ABU?$mat@$01$01N$0A@@1@@Z 00574f40 f i glm.obj
 0002:00061ff0       ??0?$mat@$02$02N$0A@@glm@@QAE@ABU?$mat@$01$02N$0A@@1@@Z 00574ff0 f i glm.obj
 0002:00062190       ??0?$mat@$02$02N$0A@@glm@@QAE@ABU?$mat@$01$03N$0A@@1@@Z 00575190 f i glm.obj
 0002:00062230       ??0?$mat@$02$02N$0A@@glm@@QAE@ABU?$mat@$02$01N$0A@@1@@Z 00575230 f i glm.obj
 0002:000622e0       ??0?$mat@$02$02N$0A@@glm@@QAE@ABU?$mat@$02$03N$0A@@1@@Z 005752e0 f i glm.obj
 0002:00062390       ??0?$mat@$02$02N$0A@@glm@@QAE@ABU?$mat@$03$01N$0A@@1@@Z 00575390 f i glm.obj
 0002:00062440       ??0?$mat@$02$02N$0A@@glm@@QAE@ABU?$mat@$03$02N$0A@@1@@Z 00575440 f i glm.obj
 0002:00062660       ??0?$mat@$02$02N$0A@@glm@@QAE@ABU?$mat@$03$03N$0A@@1@@Z 00575660 f i glm.obj
 0002:00062710       ??0?$mat@$02$02N$0A@@glm@@QAE@ABU?$vec@$02N$0A@@1@00@Z 00575710 f i glm.obj
 0002:00062910       ??0?$mat@$02$02N$0A@@glm@@QAE@N@Z 00575910 f i glm.obj
 0002:000629d0       ??0?$mat@$02$02N$0A@@glm@@QAE@NNNNNNNNN@Z 005759d0 f i glm.obj
 0002:00062ae0       ??0?$mat@$02$03M$00@glm@@QAE@ABU?$mat@$01$01M$00@1@@Z 00575ae0 f i glm.obj
 0002:00062b90       ??0?$mat@$02$03M$00@glm@@QAE@ABU?$mat@$01$02M$00@1@@Z 00575b90 f i glm.obj
 0002:00062c40       ??0?$mat@$02$03M$00@glm@@QAE@ABU?$mat@$01$03M$00@1@@Z 00575c40 f i glm.obj
 0002:00062d80       ??0?$mat@$02$03M$00@glm@@QAE@ABU?$mat@$02$01M$00@1@@Z 00575d80 f i glm.obj
 0002:00062e40       ??0?$mat@$02$03M$00@glm@@QAE@ABU?$mat@$02$02M$00@1@@Z 00575e40 f i glm.obj
 0002:00062ef0       ??0?$mat@$02$03M$00@glm@@QAE@ABU?$mat@$03$01M$00@1@@Z 00575ef0 f i glm.obj
 0002:00062fb0       ??0?$mat@$02$03M$00@glm@@QAE@ABU?$mat@$03$02M$00@1@@Z 00575fb0 f i glm.obj
 0002:00063060       ??0?$mat@$02$03M$00@glm@@QAE@ABU?$mat@$03$03M$00@1@@Z 00576060 f i glm.obj
 0002:00063200       ??0?$mat@$02$03M$00@glm@@QAE@ABU?$vec@$03M$00@1@00@Z 00576200 f i glm.obj
 0002:00063380       ??0?$mat@$02$03M$00@glm@@QAE@M@Z 00576380 f i glm.obj
 0002:00063440       ??0?$mat@$02$03M$00@glm@@QAE@MMMMMMMMMMMM@Z 00576440 f i glm.obj
 0002:00063560       ??0?$mat@$02$03M$01@glm@@QAE@ABU?$mat@$01$01M$01@1@@Z 00576560 f i glm.obj
 0002:00063610       ??0?$mat@$02$03M$01@glm@@QAE@ABU?$mat@$01$02M$01@1@@Z 00576610 f i glm.obj
 0002:000636c0       ??0?$mat@$02$03M$01@glm@@QAE@ABU?$mat@$01$03M$01@1@@Z 005766c0 f i glm.obj
 0002:00063800       ??0?$mat@$02$03M$01@glm@@QAE@ABU?$mat@$02$01M$01@1@@Z 00576800 f i glm.obj
 0002:000638c0       ??0?$mat@$02$03M$01@glm@@QAE@ABU?$mat@$02$02M$01@1@@Z 005768c0 f i glm.obj
 0002:00063970       ??0?$mat@$02$03M$01@glm@@QAE@ABU?$mat@$03$01M$01@1@@Z 00576970 f i glm.obj
 0002:00063a30       ??0?$mat@$02$03M$01@glm@@QAE@ABU?$mat@$03$02M$01@1@@Z 00576a30 f i glm.obj
 0002:00063ae0       ??0?$mat@$02$03M$01@glm@@QAE@ABU?$mat@$03$03M$01@1@@Z 00576ae0 f i glm.obj
 0002:00063c80       ??0?$mat@$02$03M$01@glm@@QAE@ABU?$vec@$03M$01@1@00@Z 00576c80 f i glm.obj
 0002:00063e00       ??0?$mat@$02$03M$01@glm@@QAE@M@Z 00576e00 f i glm.obj
 0002:00063ec0       ??0?$mat@$02$03M$01@glm@@QAE@MMMMMMMMMMMM@Z 00576ec0 f i glm.obj
 0002:00063fe0       ??0?$mat@$02$03M$0A@@glm@@QAE@ABU?$mat@$01$01M$0A@@1@@Z 00576fe0 f i glm.obj
 0002:00064090       ??0?$mat@$02$03M$0A@@glm@@QAE@ABU?$mat@$01$02M$0A@@1@@Z 00577090 f i glm.obj
 0002:00064140       ??0?$mat@$02$03M$0A@@glm@@QAE@ABU?$mat@$01$03M$0A@@1@@Z 00577140 f i glm.obj
 0002:00064280       ??0?$mat@$02$03M$0A@@glm@@QAE@ABU?$mat@$02$01M$0A@@1@@Z 00577280 f i glm.obj
 0002:00064340       ??0?$mat@$02$03M$0A@@glm@@QAE@ABU?$mat@$02$02M$0A@@1@@Z 00577340 f i glm.obj
 0002:000643f0       ??0?$mat@$02$03M$0A@@glm@@QAE@ABU?$mat@$03$01M$0A@@1@@Z 005773f0 f i glm.obj
 0002:000644b0       ??0?$mat@$02$03M$0A@@glm@@QAE@ABU?$mat@$03$02M$0A@@1@@Z 005774b0 f i glm.obj
 0002:00064560       ??0?$mat@$02$03M$0A@@glm@@QAE@ABU?$mat@$03$03M$0A@@1@@Z 00577560 f i glm.obj
 0002:00064700       ??0?$mat@$02$03M$0A@@glm@@QAE@ABU?$vec@$03M$0A@@1@00@Z 00577700 f i glm.obj
 0002:00064880       ??0?$mat@$02$03M$0A@@glm@@QAE@M@Z 00577880 f i glm.obj
 0002:00064940       ??0?$mat@$02$03M$0A@@glm@@QAE@MMMMMMMMMMMM@Z 00577940 f i glm.obj
 0002:00064a60       ??0?$mat@$02$03N$00@glm@@QAE@ABU?$mat@$01$01N$00@1@@Z 00577a60 f i glm.obj
 0002:00064b10       ??0?$mat@$02$03N$00@glm@@QAE@ABU?$mat@$01$02N$00@1@@Z 00577b10 f i glm.obj
 0002:00064bc0       ??0?$mat@$02$03N$00@glm@@QAE@ABU?$mat@$01$03N$00@1@@Z 00577bc0 f i glm.obj
 0002:00064ca0       ??0?$mat@$02$03N$00@glm@@QAE@ABU?$mat@$02$01N$00@1@@Z 00577ca0 f i glm.obj
 0002:00064d60       ??0?$mat@$02$03N$00@glm@@QAE@ABU?$mat@$02$02N$00@1@@Z 00577d60 f i glm.obj
 0002:00064e10       ??0?$mat@$02$03N$00@glm@@QAE@ABU?$mat@$03$01N$00@1@@Z 00577e10 f i glm.obj
 0002:00064ed0       ??0?$mat@$02$03N$00@glm@@QAE@ABU?$mat@$03$02N$00@1@@Z 00577ed0 f i glm.obj
 0002:00064f80       ??0?$mat@$02$03N$00@glm@@QAE@ABU?$mat@$03$03N$00@1@@Z 00577f80 f i glm.obj
 0002:00065080       ??0?$mat@$02$03N$00@glm@@QAE@ABU?$vec@$03N$00@1@00@Z 00578080 f i glm.obj
 0002:00065160       ??0?$mat@$02$03N$00@glm@@QAE@N@Z 00578160 f i glm.obj
 0002:00065220       ??0?$mat@$02$03N$00@glm@@QAE@NNNNNNNNNNNN@Z 00578220 f i glm.obj
 0002:00065360       ??0?$mat@$02$03N$01@glm@@QAE@ABU?$mat@$01$01N$01@1@@Z 00578360 f i glm.obj
 0002:00065410       ??0?$mat@$02$03N$01@glm@@QAE@ABU?$mat@$01$02N$01@1@@Z 00578410 f i glm.obj
 0002:000654c0       ??0?$mat@$02$03N$01@glm@@QAE@ABU?$mat@$01$03N$01@1@@Z 005784c0 f i glm.obj
 0002:000655a0       ??0?$mat@$02$03N$01@glm@@QAE@ABU?$mat@$02$01N$01@1@@Z 005785a0 f i glm.obj
 0002:00065660       ??0?$mat@$02$03N$01@glm@@QAE@ABU?$mat@$02$02N$01@1@@Z 00578660 f i glm.obj
 0002:00065710       ??0?$mat@$02$03N$01@glm@@QAE@ABU?$mat@$03$01N$01@1@@Z 00578710 f i glm.obj
 0002:000657d0       ??0?$mat@$02$03N$01@glm@@QAE@ABU?$mat@$03$02N$01@1@@Z 005787d0 f i glm.obj
 0002:00065880       ??0?$mat@$02$03N$01@glm@@QAE@ABU?$mat@$03$03N$01@1@@Z 00578880 f i glm.obj
 0002:00065980       ??0?$mat@$02$03N$01@glm@@QAE@ABU?$vec@$03N$01@1@00@Z 00578980 f i glm.obj
 0002:00065a60       ??0?$mat@$02$03N$01@glm@@QAE@N@Z 00578a60 f i glm.obj
 0002:00065b20       ??0?$mat@$02$03N$01@glm@@QAE@NNNNNNNNNNNN@Z 00578b20 f i glm.obj
 0002:00065c60       ??0?$mat@$02$03N$0A@@glm@@QAE@ABU?$mat@$01$01N$0A@@1@@Z 00578c60 f i glm.obj
 0002:00065d10       ??0?$mat@$02$03N$0A@@glm@@QAE@ABU?$mat@$01$02N$0A@@1@@Z 00578d10 f i glm.obj
 0002:00065dc0       ??0?$mat@$02$03N$0A@@glm@@QAE@ABU?$mat@$01$03N$0A@@1@@Z 00578dc0 f i glm.obj
 0002:00065ea0       ??0?$mat@$02$03N$0A@@glm@@QAE@ABU?$mat@$02$01N$0A@@1@@Z 00578ea0 f i glm.obj
 0002:00065f60       ??0?$mat@$02$03N$0A@@glm@@QAE@ABU?$mat@$02$02N$0A@@1@@Z 00578f60 f i glm.obj
 0002:00066010       ??0?$mat@$02$03N$0A@@glm@@QAE@ABU?$mat@$03$01N$0A@@1@@Z 00579010 f i glm.obj
 0002:000660d0       ??0?$mat@$02$03N$0A@@glm@@QAE@ABU?$mat@$03$02N$0A@@1@@Z 005790d0 f i glm.obj
 0002:00066180       ??0?$mat@$02$03N$0A@@glm@@QAE@ABU?$mat@$03$03N$0A@@1@@Z 00579180 f i glm.obj
 0002:00066280       ??0?$mat@$02$03N$0A@@glm@@QAE@ABU?$vec@$03N$0A@@1@00@Z 00579280 f i glm.obj
 0002:00066360       ??0?$mat@$02$03N$0A@@glm@@QAE@N@Z 00579360 f i glm.obj
 0002:00066420       ??0?$mat@$02$03N$0A@@glm@@QAE@NNNNNNNNNNNN@Z 00579420 f i glm.obj
 0002:00066560       ??0?$mat@$03$01M$00@glm@@QAE@ABU?$mat@$01$01M$00@1@@Z 00579560 f i glm.obj
 0002:00066660       ??0?$mat@$03$01M$00@glm@@QAE@ABU?$mat@$01$02M$00@1@@Z 00579660 f i glm.obj
 0002:00066720       ??0?$mat@$03$01M$00@glm@@QAE@ABU?$mat@$01$03M$00@1@@Z 00579720 f i glm.obj
 0002:000667e0       ??0?$mat@$03$01M$00@glm@@QAE@ABU?$mat@$02$01M$00@1@@Z 005797e0 f i glm.obj
 0002:00066900       ??0?$mat@$03$01M$00@glm@@QAE@ABU?$mat@$02$02M$00@1@@Z 00579900 f i glm.obj
 0002:000669c0       ??0?$mat@$03$01M$00@glm@@QAE@ABU?$mat@$02$03M$00@1@@Z 005799c0 f i glm.obj
 0002:00066a80       ??0?$mat@$03$01M$00@glm@@QAE@ABU?$mat@$03$02M$00@1@@Z 00579a80 f i glm.obj
 0002:00066b40       ??0?$mat@$03$01M$00@glm@@QAE@ABU?$mat@$03$03M$00@1@@Z 00579b40 f i glm.obj
 0002:00066c00       ??0?$mat@$03$01M$00@glm@@QAE@ABU?$vec@$01M$00@1@000@Z 00579c00 f i glm.obj
 0002:00066d20       ??0?$mat@$03$01M$00@glm@@QAE@M@Z 00579d20 f i glm.obj
 0002:00066de0       ??0?$mat@$03$01M$00@glm@@QAE@MMMMMMMM@Z 00579de0 f i glm.obj
 0002:00066ee0       ??0?$mat@$03$01M$01@glm@@QAE@ABU?$mat@$01$01M$01@1@@Z 00579ee0 f i glm.obj
 0002:00066fe0       ??0?$mat@$03$01M$01@glm@@QAE@ABU?$mat@$01$02M$01@1@@Z 00579fe0 f i glm.obj
 0002:000670a0       ??0?$mat@$03$01M$01@glm@@QAE@ABU?$mat@$01$03M$01@1@@Z 0057a0a0 f i glm.obj
 0002:00067160       ??0?$mat@$03$01M$01@glm@@QAE@ABU?$mat@$02$01M$01@1@@Z 0057a160 f i glm.obj
 0002:00067280       ??0?$mat@$03$01M$01@glm@@QAE@ABU?$mat@$02$02M$01@1@@Z 0057a280 f i glm.obj
 0002:00067340       ??0?$mat@$03$01M$01@glm@@QAE@ABU?$mat@$02$03M$01@1@@Z 0057a340 f i glm.obj
 0002:00067400       ??0?$mat@$03$01M$01@glm@@QAE@ABU?$mat@$03$02M$01@1@@Z 0057a400 f i glm.obj
 0002:000674c0       ??0?$mat@$03$01M$01@glm@@QAE@ABU?$mat@$03$03M$01@1@@Z 0057a4c0 f i glm.obj
 0002:00067580       ??0?$mat@$03$01M$01@glm@@QAE@ABU?$vec@$01M$01@1@000@Z 0057a580 f i glm.obj
 0002:000676a0       ??0?$mat@$03$01M$01@glm@@QAE@M@Z 0057a6a0 f i glm.obj
 0002:00067760       ??0?$mat@$03$01M$01@glm@@QAE@MMMMMMMM@Z 0057a760 f i glm.obj
 0002:00067860       ??0?$mat@$03$01M$0A@@glm@@QAE@ABU?$mat@$01$01M$0A@@1@@Z 0057a860 f i glm.obj
 0002:00067960       ??0?$mat@$03$01M$0A@@glm@@QAE@ABU?$mat@$01$02M$0A@@1@@Z 0057a960 f i glm.obj
 0002:00067a20       ??0?$mat@$03$01M$0A@@glm@@QAE@ABU?$mat@$01$03M$0A@@1@@Z 0057aa20 f i glm.obj
 0002:00067ae0       ??0?$mat@$03$01M$0A@@glm@@QAE@ABU?$mat@$02$01M$0A@@1@@Z 0057aae0 f i glm.obj
 0002:00067c00       ??0?$mat@$03$01M$0A@@glm@@QAE@ABU?$mat@$02$02M$0A@@1@@Z 0057ac00 f i glm.obj
 0002:00067cc0       ??0?$mat@$03$01M$0A@@glm@@QAE@ABU?$mat@$02$03M$0A@@1@@Z 0057acc0 f i glm.obj
 0002:00067d80       ??0?$mat@$03$01M$0A@@glm@@QAE@ABU?$mat@$03$02M$0A@@1@@Z 0057ad80 f i glm.obj
 0002:00067e40       ??0?$mat@$03$01M$0A@@glm@@QAE@ABU?$mat@$03$03M$0A@@1@@Z 0057ae40 f i glm.obj
 0002:00067f00       ??0?$mat@$03$01M$0A@@glm@@QAE@ABU?$vec@$01M$0A@@1@000@Z 0057af00 f i glm.obj
 0002:00068020       ??0?$mat@$03$01M$0A@@glm@@QAE@M@Z 0057b020 f i glm.obj
 0002:000680e0       ??0?$mat@$03$01M$0A@@glm@@QAE@MMMMMMMM@Z 0057b0e0 f i glm.obj
 0002:000681e0       ??0?$mat@$03$01N$00@glm@@QAE@ABU?$mat@$01$01N$00@1@@Z 0057b1e0 f i glm.obj
 0002:00068340       ??0?$mat@$03$01N$00@glm@@QAE@ABU?$mat@$01$02N$00@1@@Z 0057b340 f i glm.obj
 0002:00068400       ??0?$mat@$03$01N$00@glm@@QAE@ABU?$mat@$01$03N$00@1@@Z 0057b400 f i glm.obj
 0002:000684c0       ??0?$mat@$03$01N$00@glm@@QAE@ABU?$mat@$02$01N$00@1@@Z 0057b4c0 f i glm.obj
 0002:00068670       ??0?$mat@$03$01N$00@glm@@QAE@ABU?$mat@$02$02N$00@1@@Z 0057b670 f i glm.obj
 0002:00068730       ??0?$mat@$03$01N$00@glm@@QAE@ABU?$mat@$02$03N$00@1@@Z 0057b730 f i glm.obj
 0002:000687f0       ??0?$mat@$03$01N$00@glm@@QAE@ABU?$mat@$03$02N$00@1@@Z 0057b7f0 f i glm.obj
 0002:000688b0       ??0?$mat@$03$01N$00@glm@@QAE@ABU?$mat@$03$03N$00@1@@Z 0057b8b0 f i glm.obj
 0002:00068970       ??0?$mat@$03$01N$00@glm@@QAE@ABU?$vec@$01N$00@1@000@Z 0057b970 f i glm.obj
 0002:00068b50       ??0?$mat@$03$01N$00@glm@@QAE@N@Z 0057bb50 f i glm.obj
 0002:00068c10       ??0?$mat@$03$01N$00@glm@@QAE@NNNNNNNN@Z 0057bc10 f i glm.obj
 0002:00068d20       ??0?$mat@$03$01N$01@glm@@QAE@ABU?$mat@$01$01N$01@1@@Z 0057bd20 f i glm.obj
 0002:00068e80       ??0?$mat@$03$01N$01@glm@@QAE@ABU?$mat@$01$02N$01@1@@Z 0057be80 f i glm.obj
 0002:00068f40       ??0?$mat@$03$01N$01@glm@@QAE@ABU?$mat@$01$03N$01@1@@Z 0057bf40 f i glm.obj
 0002:00069000       ??0?$mat@$03$01N$01@glm@@QAE@ABU?$mat@$02$01N$01@1@@Z 0057c000 f i glm.obj
 0002:000691b0       ??0?$mat@$03$01N$01@glm@@QAE@ABU?$mat@$02$02N$01@1@@Z 0057c1b0 f i glm.obj
 0002:00069270       ??0?$mat@$03$01N$01@glm@@QAE@ABU?$mat@$02$03N$01@1@@Z 0057c270 f i glm.obj
 0002:00069330       ??0?$mat@$03$01N$01@glm@@QAE@ABU?$mat@$03$02N$01@1@@Z 0057c330 f i glm.obj
 0002:000693f0       ??0?$mat@$03$01N$01@glm@@QAE@ABU?$mat@$03$03N$01@1@@Z 0057c3f0 f i glm.obj
 0002:000694b0       ??0?$mat@$03$01N$01@glm@@QAE@ABU?$vec@$01N$01@1@000@Z 0057c4b0 f i glm.obj
 0002:00069690       ??0?$mat@$03$01N$01@glm@@QAE@N@Z 0057c690 f i glm.obj
 0002:00069750       ??0?$mat@$03$01N$01@glm@@QAE@NNNNNNNN@Z 0057c750 f i glm.obj
 0002:00069860       ??0?$mat@$03$01N$0A@@glm@@QAE@ABU?$mat@$01$01N$0A@@1@@Z 0057c860 f i glm.obj
 0002:000699c0       ??0?$mat@$03$01N$0A@@glm@@QAE@ABU?$mat@$01$02N$0A@@1@@Z 0057c9c0 f i glm.obj
 0002:00069a80       ??0?$mat@$03$01N$0A@@glm@@QAE@ABU?$mat@$01$03N$0A@@1@@Z 0057ca80 f i glm.obj
 0002:00069b40       ??0?$mat@$03$01N$0A@@glm@@QAE@ABU?$mat@$02$01N$0A@@1@@Z 0057cb40 f i glm.obj
 0002:00069cf0       ??0?$mat@$03$01N$0A@@glm@@QAE@ABU?$mat@$02$02N$0A@@1@@Z 0057ccf0 f i glm.obj
 0002:00069db0       ??0?$mat@$03$01N$0A@@glm@@QAE@ABU?$mat@$02$03N$0A@@1@@Z 0057cdb0 f i glm.obj
 0002:00069e70       ??0?$mat@$03$01N$0A@@glm@@QAE@ABU?$mat@$03$02N$0A@@1@@Z 0057ce70 f i glm.obj
 0002:00069f30       ??0?$mat@$03$01N$0A@@glm@@QAE@ABU?$mat@$03$03N$0A@@1@@Z 0057cf30 f i glm.obj
 0002:00069ff0       ??0?$mat@$03$01N$0A@@glm@@QAE@ABU?$vec@$01N$0A@@1@000@Z 0057cff0 f i glm.obj
 0002:0006a1d0       ??0?$mat@$03$01N$0A@@glm@@QAE@N@Z 0057d1d0 f i glm.obj
 0002:0006a290       ??0?$mat@$03$01N$0A@@glm@@QAE@NNNNNNNN@Z 0057d290 f i glm.obj
 0002:0006a3a0       ??0?$mat@$03$02M$00@glm@@QAE@ABM00000000000@Z 0057d3a0 f i glm.obj
 0002:0006a4f0       ??0?$mat@$03$02M$00@glm@@QAE@ABM@Z 0057d4f0 f i glm.obj
 0002:0006a5c0       ??0?$mat@$03$02M$00@glm@@QAE@ABU?$mat@$01$01M$00@1@@Z 0057d5c0 f i glm.obj
 0002:0006a680       ??0?$mat@$03$02M$00@glm@@QAE@ABU?$mat@$01$02M$00@1@@Z 0057d680 f i glm.obj
 0002:0006a7b0       ??0?$mat@$03$02M$00@glm@@QAE@ABU?$mat@$01$03M$00@1@@Z 0057d7b0 f i glm.obj
 0002:0006a870       ??0?$mat@$03$02M$00@glm@@QAE@ABU?$mat@$02$01M$00@1@@Z 0057d870 f i glm.obj
 0002:0006a940       ??0?$mat@$03$02M$00@glm@@QAE@ABU?$mat@$02$02M$00@1@@Z 0057d940 f i glm.obj
 0002:0006aab0       ??0?$mat@$03$02M$00@glm@@QAE@ABU?$mat@$02$03M$00@1@@Z 0057dab0 f i glm.obj
 0002:0006ab70       ??0?$mat@$03$02M$00@glm@@QAE@ABU?$mat@$03$01M$00@1@@Z 0057db70 f i glm.obj
 0002:0006ac40       ??0?$mat@$03$02M$00@glm@@QAE@ABU?$mat@$03$03M$00@1@@Z 0057dc40 f i glm.obj
 0002:0006ad00       ??0?$mat@$03$02M$00@glm@@QAE@ABU?$vec@$02M$00@1@000@Z 0057dd00 f i glm.obj
 0002:0006ae90       ??0?$mat@$03$02M$01@glm@@QAE@ABM00000000000@Z 0057de90 f i glm.obj
 0002:0006afe0       ??0?$mat@$03$02M$01@glm@@QAE@ABM@Z 0057dfe0 f i glm.obj
 0002:0006b0b0       ??0?$mat@$03$02M$01@glm@@QAE@ABU?$mat@$01$01M$01@1@@Z 0057e0b0 f i glm.obj
 0002:0006b170       ??0?$mat@$03$02M$01@glm@@QAE@ABU?$mat@$01$02M$01@1@@Z 0057e170 f i glm.obj
 0002:0006b2a0       ??0?$mat@$03$02M$01@glm@@QAE@ABU?$mat@$01$03M$01@1@@Z 0057e2a0 f i glm.obj
 0002:0006b360       ??0?$mat@$03$02M$01@glm@@QAE@ABU?$mat@$02$01M$01@1@@Z 0057e360 f i glm.obj
 0002:0006b430       ??0?$mat@$03$02M$01@glm@@QAE@ABU?$mat@$02$02M$01@1@@Z 0057e430 f i glm.obj
 0002:0006b5a0       ??0?$mat@$03$02M$01@glm@@QAE@ABU?$mat@$02$03M$01@1@@Z 0057e5a0 f i glm.obj
 0002:0006b660       ??0?$mat@$03$02M$01@glm@@QAE@ABU?$mat@$03$01M$01@1@@Z 0057e660 f i glm.obj
 0002:0006b730       ??0?$mat@$03$02M$01@glm@@QAE@ABU?$mat@$03$03M$01@1@@Z 0057e730 f i glm.obj
 0002:0006b7f0       ??0?$mat@$03$02M$01@glm@@QAE@ABU?$vec@$02M$01@1@000@Z 0057e7f0 f i glm.obj
 0002:0006b980       ??0?$mat@$03$02M$0A@@glm@@QAE@ABM00000000000@Z 0057e980 f i glm.obj
 0002:0006bad0       ??0?$mat@$03$02M$0A@@glm@@QAE@ABM@Z 0057ead0 f i glm.obj
 0002:0006bba0       ??0?$mat@$03$02M$0A@@glm@@QAE@ABU?$mat@$01$01M$0A@@1@@Z 0057eba0 f i glm.obj
 0002:0006bc60       ??0?$mat@$03$02M$0A@@glm@@QAE@ABU?$mat@$01$02M$0A@@1@@Z 0057ec60 f i glm.obj
 0002:0006bd90       ??0?$mat@$03$02M$0A@@glm@@QAE@ABU?$mat@$01$03M$0A@@1@@Z 0057ed90 f i glm.obj
 0002:0006be50       ??0?$mat@$03$02M$0A@@glm@@QAE@ABU?$mat@$02$01M$0A@@1@@Z 0057ee50 f i glm.obj
 0002:0006bf20       ??0?$mat@$03$02M$0A@@glm@@QAE@ABU?$mat@$02$02M$0A@@1@@Z 0057ef20 f i glm.obj
 0002:0006c090       ??0?$mat@$03$02M$0A@@glm@@QAE@ABU?$mat@$02$03M$0A@@1@@Z 0057f090 f i glm.obj
 0002:0006c150       ??0?$mat@$03$02M$0A@@glm@@QAE@ABU?$mat@$03$01M$0A@@1@@Z 0057f150 f i glm.obj
 0002:0006c220       ??0?$mat@$03$02M$0A@@glm@@QAE@ABU?$mat@$03$03M$0A@@1@@Z 0057f220 f i glm.obj
 0002:0006c2e0       ??0?$mat@$03$02M$0A@@glm@@QAE@ABU?$vec@$02M$0A@@1@000@Z 0057f2e0 f i glm.obj
 0002:0006c470       ??0?$mat@$03$02N$00@glm@@QAE@ABN00000000000@Z 0057f470 f i glm.obj
 0002:0006c5e0       ??0?$mat@$03$02N$00@glm@@QAE@ABN@Z 0057f5e0 f i glm.obj
 0002:0006c6c0       ??0?$mat@$03$02N$00@glm@@QAE@ABU?$mat@$01$01N$00@1@@Z 0057f6c0 f i glm.obj
 0002:0006c780       ??0?$mat@$03$02N$00@glm@@QAE@ABU?$mat@$01$02N$00@1@@Z 0057f780 f i glm.obj
 0002:0006c940       ??0?$mat@$03$02N$00@glm@@QAE@ABU?$mat@$01$03N$00@1@@Z 0057f940 f i glm.obj
 0002:0006ca00       ??0?$mat@$03$02N$00@glm@@QAE@ABU?$mat@$02$01N$00@1@@Z 0057fa00 f i glm.obj
 0002:0006cad0       ??0?$mat@$03$02N$00@glm@@QAE@ABU?$mat@$02$02N$00@1@@Z 0057fad0 f i glm.obj
 0002:0006cd10       ??0?$mat@$03$02N$00@glm@@QAE@ABU?$mat@$02$03N$00@1@@Z 0057fd10 f i glm.obj
 0002:0006cdd0       ??0?$mat@$03$02N$00@glm@@QAE@ABU?$mat@$03$01N$00@1@@Z 0057fdd0 f i glm.obj
 0002:0006cea0       ??0?$mat@$03$02N$00@glm@@QAE@ABU?$mat@$03$03N$00@1@@Z 0057fea0 f i glm.obj
 0002:0006cf60       ??0?$mat@$03$02N$00@glm@@QAE@ABU?$vec@$02N$00@1@000@Z 0057ff60 f i glm.obj
 0002:0006d200       ??0?$mat@$03$02N$01@glm@@QAE@ABN00000000000@Z 00580200 f i glm.obj
 0002:0006d370       ??0?$mat@$03$02N$01@glm@@QAE@ABN@Z 00580370 f i glm.obj
 0002:0006d450       ??0?$mat@$03$02N$01@glm@@QAE@ABU?$mat@$01$01N$01@1@@Z 00580450 f i glm.obj
 0002:0006d510       ??0?$mat@$03$02N$01@glm@@QAE@ABU?$mat@$01$02N$01@1@@Z 00580510 f i glm.obj
 0002:0006d6d0       ??0?$mat@$03$02N$01@glm@@QAE@ABU?$mat@$01$03N$01@1@@Z 005806d0 f i glm.obj
 0002:0006d790       ??0?$mat@$03$02N$01@glm@@QAE@ABU?$mat@$02$01N$01@1@@Z 00580790 f i glm.obj
 0002:0006d860       ??0?$mat@$03$02N$01@glm@@QAE@ABU?$mat@$02$02N$01@1@@Z 00580860 f i glm.obj
 0002:0006daa0       ??0?$mat@$03$02N$01@glm@@QAE@ABU?$mat@$02$03N$01@1@@Z 00580aa0 f i glm.obj
 0002:0006db60       ??0?$mat@$03$02N$01@glm@@QAE@ABU?$mat@$03$01N$01@1@@Z 00580b60 f i glm.obj
 0002:0006dc30       ??0?$mat@$03$02N$01@glm@@QAE@ABU?$mat@$03$03N$01@1@@Z 00580c30 f i glm.obj
 0002:0006dcf0       ??0?$mat@$03$02N$01@glm@@QAE@ABU?$vec@$02N$01@1@000@Z 00580cf0 f i glm.obj
 0002:0006df90       ??0?$mat@$03$02N$0A@@glm@@QAE@ABN00000000000@Z 00580f90 f i glm.obj
 0002:0006e100       ??0?$mat@$03$02N$0A@@glm@@QAE@ABN@Z 00581100 f i glm.obj
 0002:0006e1e0       ??0?$mat@$03$02N$0A@@glm@@QAE@ABU?$mat@$01$01N$0A@@1@@Z 005811e0 f i glm.obj
 0002:0006e2a0       ??0?$mat@$03$02N$0A@@glm@@QAE@ABU?$mat@$01$02N$0A@@1@@Z 005812a0 f i glm.obj
 0002:0006e460       ??0?$mat@$03$02N$0A@@glm@@QAE@ABU?$mat@$01$03N$0A@@1@@Z 00581460 f i glm.obj
 0002:0006e520       ??0?$mat@$03$02N$0A@@glm@@QAE@ABU?$mat@$02$01N$0A@@1@@Z 00581520 f i glm.obj
 0002:0006e5f0       ??0?$mat@$03$02N$0A@@glm@@QAE@ABU?$mat@$02$02N$0A@@1@@Z 005815f0 f i glm.obj
 0002:0006e830       ??0?$mat@$03$02N$0A@@glm@@QAE@ABU?$mat@$02$03N$0A@@1@@Z 00581830 f i glm.obj
 0002:0006e8f0       ??0?$mat@$03$02N$0A@@glm@@QAE@ABU?$mat@$03$01N$0A@@1@@Z 005818f0 f i glm.obj
 0002:0006e9c0       ??0?$mat@$03$02N$0A@@glm@@QAE@ABU?$mat@$03$03N$0A@@1@@Z 005819c0 f i glm.obj
 0002:0006ea80       ??0?$mat@$03$02N$0A@@glm@@QAE@ABU?$vec@$02N$0A@@1@000@Z 00581a80 f i glm.obj
 0002:0006ed20       ??0?$mat@$03$03M$00@glm@@QAE@ABM000000000000000@Z 00581d20 f i glm.obj
 0002:0006eeb0       ??0?$mat@$03$03M$00@glm@@QAE@ABM@Z 00581eb0 f i glm.obj
 0002:0006efa0       ??0?$mat@$03$03M$00@glm@@QAE@ABU?$mat@$01$01M$00@1@@Z 00581fa0 f i glm.obj
 0002:0006f060       ??0?$mat@$03$03M$00@glm@@QAE@ABU?$mat@$01$02M$00@1@@Z 00582060 f i glm.obj
 0002:0006f120       ??0?$mat@$03$03M$00@glm@@QAE@ABU?$mat@$01$03M$00@1@@Z 00582120 f i glm.obj
 0002:0006f280       ??0?$mat@$03$03M$00@glm@@QAE@ABU?$mat@$02$01M$00@1@@Z 00582280 f i glm.obj
 0002:0006f350       ??0?$mat@$03$03M$00@glm@@QAE@ABU?$mat@$02$02M$00@1@@Z 00582350 f i glm.obj
 0002:0006f420       ??0?$mat@$03$03M$00@glm@@QAE@ABU?$mat@$02$03M$00@1@@Z 00582420 f i glm.obj
 0002:0006f5d0       ??0?$mat@$03$03M$00@glm@@QAE@ABU?$mat@$03$01M$00@1@@Z 005825d0 f i glm.obj
 0002:0006f690       ??0?$mat@$03$03M$00@glm@@QAE@ABU?$mat@$03$02M$00@1@@Z 00582690 f i glm.obj
 0002:0006f760       ??0?$mat@$03$03M$00@glm@@QAE@ABU?$vec@$03M$00@1@000@Z 00582760 f i glm.obj
 0002:0006f940       ??0?$mat@$03$03M$01@glm@@QAE@ABM000000000000000@Z 00582940 f i glm.obj
 0002:0006fad0       ??0?$mat@$03$03M$01@glm@@QAE@ABM@Z 00582ad0 f i glm.obj
 0002:0006fbc0       ??0?$mat@$03$03M$01@glm@@QAE@ABU?$mat@$01$01M$01@1@@Z 00582bc0 f i glm.obj
 0002:0006fc80       ??0?$mat@$03$03M$01@glm@@QAE@ABU?$mat@$01$02M$01@1@@Z 00582c80 f i glm.obj
 0002:0006fd40       ??0?$mat@$03$03M$01@glm@@QAE@ABU?$mat@$01$03M$01@1@@Z 00582d40 f i glm.obj
 0002:0006fea0       ??0?$mat@$03$03M$01@glm@@QAE@ABU?$mat@$02$01M$01@1@@Z 00582ea0 f i glm.obj
 0002:0006ff70       ??0?$mat@$03$03M$01@glm@@QAE@ABU?$mat@$02$02M$01@1@@Z 00582f70 f i glm.obj
 0002:00070040       ??0?$mat@$03$03M$01@glm@@QAE@ABU?$mat@$02$03M$01@1@@Z 00583040 f i glm.obj
 0002:000701f0       ??0?$mat@$03$03M$01@glm@@QAE@ABU?$mat@$03$01M$01@1@@Z 005831f0 f i glm.obj
 0002:000702b0       ??0?$mat@$03$03M$01@glm@@QAE@ABU?$mat@$03$02M$01@1@@Z 005832b0 f i glm.obj
 0002:00070380       ??0?$mat@$03$03M$01@glm@@QAE@ABU?$vec@$03M$01@1@000@Z 00583380 f i glm.obj
 0002:00070560       ??0?$mat@$03$03M$0A@@glm@@QAE@ABM000000000000000@Z 00583560 f i glm.obj
 0002:000706f0       ??0?$mat@$03$03M$0A@@glm@@QAE@ABU?$mat@$01$01M$0A@@1@@Z 005836f0 f i glm.obj
 0002:000707b0       ??0?$mat@$03$03M$0A@@glm@@QAE@ABU?$mat@$01$02M$0A@@1@@Z 005837b0 f i glm.obj
 0002:00070870       ??0?$mat@$03$03M$0A@@glm@@QAE@ABU?$mat@$01$03M$0A@@1@@Z 00583870 f i glm.obj
 0002:000709d0       ??0?$mat@$03$03M$0A@@glm@@QAE@ABU?$mat@$02$01M$0A@@1@@Z 005839d0 f i glm.obj
 0002:00070aa0       ??0?$mat@$03$03M$0A@@glm@@QAE@ABU?$mat@$02$02M$0A@@1@@Z 00583aa0 f i glm.obj
 0002:00070b70       ??0?$mat@$03$03M$0A@@glm@@QAE@ABU?$mat@$02$03M$0A@@1@@Z 00583b70 f i glm.obj
 0002:00070d20       ??0?$mat@$03$03M$0A@@glm@@QAE@ABU?$mat@$03$01M$0A@@1@@Z 00583d20 f i glm.obj
 0002:00070de0       ??0?$mat@$03$03M$0A@@glm@@QAE@ABU?$mat@$03$02M$0A@@1@@Z 00583de0 f i glm.obj
 0002:00070eb0       ??0?$mat@$03$03M$0A@@glm@@QAE@ABU?$vec@$03M$0A@@1@000@Z 00583eb0 f i glm.obj
 0002:00071090       ??0?$mat@$03$03N$00@glm@@QAE@ABN000000000000000@Z 00584090 f i glm.obj
 0002:00071250       ??0?$mat@$03$03N$00@glm@@QAE@ABN@Z 00584250 f i glm.obj
 0002:00071340       ??0?$mat@$03$03N$00@glm@@QAE@ABU?$mat@$01$01N$00@1@@Z 00584340 f i glm.obj
 0002:00071400       ??0?$mat@$03$03N$00@glm@@QAE@ABU?$mat@$01$02N$00@1@@Z 00584400 f i glm.obj
 0002:000714c0       ??0?$mat@$03$03N$00@glm@@QAE@ABU?$mat@$01$03N$00@1@@Z 005844c0 f i glm.obj
 0002:000715b0       ??0?$mat@$03$03N$00@glm@@QAE@ABU?$mat@$02$01N$00@1@@Z 005845b0 f i glm.obj
 0002:00071680       ??0?$mat@$03$03N$00@glm@@QAE@ABU?$mat@$02$02N$00@1@@Z 00584680 f i glm.obj
 0002:00071750       ??0?$mat@$03$03N$00@glm@@QAE@ABU?$mat@$02$03N$00@1@@Z 00584750 f i glm.obj
 0002:00071860       ??0?$mat@$03$03N$00@glm@@QAE@ABU?$mat@$03$01N$00@1@@Z 00584860 f i glm.obj
 0002:00071920       ??0?$mat@$03$03N$00@glm@@QAE@ABU?$mat@$03$02N$00@1@@Z 00584920 f i glm.obj
 0002:000719f0       ??0?$mat@$03$03N$00@glm@@QAE@ABU?$vec@$03N$00@1@000@Z 005849f0 f i glm.obj
 0002:00071b00       ??0?$mat@$03$03N$01@glm@@QAE@ABN000000000000000@Z 00584b00 f i glm.obj
 0002:00071cc0       ??0?$mat@$03$03N$01@glm@@QAE@ABN@Z 00584cc0 f i glm.obj
 0002:00071db0       ??0?$mat@$03$03N$01@glm@@QAE@ABU?$mat@$01$01N$01@1@@Z 00584db0 f i glm.obj
 0002:00071e70       ??0?$mat@$03$03N$01@glm@@QAE@ABU?$mat@$01$02N$01@1@@Z 00584e70 f i glm.obj
 0002:00071f30       ??0?$mat@$03$03N$01@glm@@QAE@ABU?$mat@$01$03N$01@1@@Z 00584f30 f i glm.obj
 0002:00072020       ??0?$mat@$03$03N$01@glm@@QAE@ABU?$mat@$02$01N$01@1@@Z 00585020 f i glm.obj
 0002:000720f0       ??0?$mat@$03$03N$01@glm@@QAE@ABU?$mat@$02$02N$01@1@@Z 005850f0 f i glm.obj
 0002:000721c0       ??0?$mat@$03$03N$01@glm@@QAE@ABU?$mat@$02$03N$01@1@@Z 005851c0 f i glm.obj
 0002:000722d0       ??0?$mat@$03$03N$01@glm@@QAE@ABU?$mat@$03$01N$01@1@@Z 005852d0 f i glm.obj
 0002:00072390       ??0?$mat@$03$03N$01@glm@@QAE@ABU?$mat@$03$02N$01@1@@Z 00585390 f i glm.obj
 0002:00072460       ??0?$mat@$03$03N$01@glm@@QAE@ABU?$vec@$03N$01@1@000@Z 00585460 f i glm.obj
 0002:00072570       ??0?$mat@$03$03N$0A@@glm@@QAE@ABN000000000000000@Z 00585570 f i glm.obj
 0002:00072730       ??0?$mat@$03$03N$0A@@glm@@QAE@ABN@Z 00585730 f i glm.obj
 0002:00072820       ??0?$mat@$03$03N$0A@@glm@@QAE@ABU?$mat@$01$01N$0A@@1@@Z 00585820 f i glm.obj
 0002:000728e0       ??0?$mat@$03$03N$0A@@glm@@QAE@ABU?$mat@$01$02N$0A@@1@@Z 005858e0 f i glm.obj
 0002:000729a0       ??0?$mat@$03$03N$0A@@glm@@QAE@ABU?$mat@$01$03N$0A@@1@@Z 005859a0 f i glm.obj
 0002:00072a90       ??0?$mat@$03$03N$0A@@glm@@QAE@ABU?$mat@$02$01N$0A@@1@@Z 00585a90 f i glm.obj
 0002:00072b60       ??0?$mat@$03$03N$0A@@glm@@QAE@ABU?$mat@$02$02N$0A@@1@@Z 00585b60 f i glm.obj
 0002:00072c30       ??0?$mat@$03$03N$0A@@glm@@QAE@ABU?$mat@$02$03N$0A@@1@@Z 00585c30 f i glm.obj
 0002:00072d40       ??0?$mat@$03$03N$0A@@glm@@QAE@ABU?$mat@$03$01N$0A@@1@@Z 00585d40 f i glm.obj
 0002:00072e00       ??0?$mat@$03$03N$0A@@glm@@QAE@ABU?$mat@$03$02N$0A@@1@@Z 00585e00 f i glm.obj
 0002:00072ed0       ??0?$mat@$03$03N$0A@@glm@@QAE@ABU?$vec@$03N$0A@@1@000@Z 00585ed0 f i glm.obj
 0002:00072fe0       ??0?$qua@M$00@glm@@QAE@ABU01@@Z 00585fe0 f i glm.obj
 0002:00073090       ??0?$qua@M$00@glm@@QAE@ABU?$mat@$02$02M$00@1@@Z 00586090 f i glm.obj
 0002:00073120       ??0?$qua@M$00@glm@@QAE@ABU?$mat@$03$03M$00@1@@Z 00586120 f i glm.obj
 0002:000731b0       ??0?$qua@M$00@glm@@QAE@ABU?$vec@$02M$00@1@0@Z 005861b0 f i glm.obj
 0002:000734f0       ??0?$qua@M$00@glm@@QAE@ABU?$vec@$02M$00@1@@Z 005864f0 f i glm.obj
 0002:000736f0       ??0?$qua@M$00@glm@@QAE@MABU?$vec@$02M$00@1@@Z 005866f0 f i glm.obj
 0002:00073780       ??0?$qua@M$00@glm@@QAE@MMMM@Z 00586780 f i glm.obj
 0002:00073820       ??0?$qua@M$01@glm@@QAE@ABU01@@Z 00586820 f i glm.obj
 0002:000738d0       ??0?$qua@M$01@glm@@QAE@ABU?$mat@$02$02M$01@1@@Z 005868d0 f i glm.obj
 0002:00073960       ??0?$qua@M$01@glm@@QAE@ABU?$mat@$03$03M$01@1@@Z 00586960 f i glm.obj
 0002:000739f0       ??0?$qua@M$01@glm@@QAE@ABU?$vec@$02M$01@1@0@Z 005869f0 f i glm.obj
 0002:00073d30       ??0?$qua@M$01@glm@@QAE@ABU?$vec@$02M$01@1@@Z 00586d30 f i glm.obj
 0002:00073f30       ??0?$qua@M$01@glm@@QAE@MABU?$vec@$02M$01@1@@Z 00586f30 f i glm.obj
 0002:00073fc0       ??0?$qua@M$01@glm@@QAE@MMMM@Z 00586fc0 f i glm.obj
 0002:00074060       ??0?$qua@M$0A@@glm@@QAE@ABU01@@Z 00587060 f i glm.obj
 0002:00074110       ??0?$qua@M$0A@@glm@@QAE@ABU?$mat@$02$02M$0A@@1@@Z 00587110 f i glm.obj
 0002:000741a0       ??0?$qua@M$0A@@glm@@QAE@ABU?$mat@$03$03M$0A@@1@@Z 005871a0 f i glm.obj
 0002:00074230       ??0?$qua@M$0A@@glm@@QAE@ABU?$vec@$02M$0A@@1@0@Z 00587230 f i glm.obj
 0002:00074570       ??0?$qua@M$0A@@glm@@QAE@ABU?$vec@$02M$0A@@1@@Z 00587570 f i glm.obj
 0002:00074770       ??0?$qua@M$0A@@glm@@QAE@MABU?$vec@$02M$0A@@1@@Z 00587770 f i glm.obj
 0002:00074800       ??0?$qua@M$0A@@glm@@QAE@MMMM@Z 00587800 f i glm.obj
 0002:000748a0       ??0?$qua@N$00@glm@@QAE@ABU01@@Z 005878a0 f i glm.obj
 0002:00074960       ??0?$qua@N$00@glm@@QAE@ABU?$mat@$02$02N$00@1@@Z 00587960 f i glm.obj
 0002:000749e0       ??0?$qua@N$00@glm@@QAE@ABU?$mat@$03$03N$00@1@@Z 005879e0 f i glm.obj
 0002:00074a60       ??0?$qua@N$00@glm@@QAE@ABU?$vec@$02N$00@1@0@Z 00587a60 f i glm.obj
 0002:00074de0       ??0?$qua@N$00@glm@@QAE@ABU?$vec@$02N$00@1@@Z 00587de0 f i glm.obj
 0002:00074fe0       ??0?$qua@N$00@glm@@QAE@NABU?$vec@$02N$00@1@@Z 00587fe0 f i glm.obj
 0002:00075080       ??0?$qua@N$00@glm@@QAE@NNNN@Z 00588080 f i glm.obj
 0002:00075120       ??0?$qua@N$01@glm@@QAE@ABU01@@Z 00588120 f i glm.obj
 0002:000751e0       ??0?$qua@N$01@glm@@QAE@ABU?$mat@$02$02N$01@1@@Z 005881e0 f i glm.obj
 0002:00075260       ??0?$qua@N$01@glm@@QAE@ABU?$mat@$03$03N$01@1@@Z 00588260 f i glm.obj
 0002:000752e0       ??0?$qua@N$01@glm@@QAE@ABU?$vec@$02N$01@1@0@Z 005882e0 f i glm.obj
 0002:00075660       ??0?$qua@N$01@glm@@QAE@ABU?$vec@$02N$01@1@@Z 00588660 f i glm.obj
 0002:00075860       ??0?$qua@N$01@glm@@QAE@NABU?$vec@$02N$01@1@@Z 00588860 f i glm.obj
 0002:00075900       ??0?$qua@N$01@glm@@QAE@NNNN@Z 00588900 f i glm.obj
 0002:000759a0       ??0?$qua@N$0A@@glm@@QAE@ABU01@@Z 005889a0 f i glm.obj
 0002:00075a60       ??0?$qua@N$0A@@glm@@QAE@ABU?$mat@$02$02N$0A@@1@@Z 00588a60 f i glm.obj
 0002:00075ae0       ??0?$qua@N$0A@@glm@@QAE@ABU?$mat@$03$03N$0A@@1@@Z 00588ae0 f i glm.obj
 0002:00075b60       ??0?$qua@N$0A@@glm@@QAE@ABU?$vec@$02N$0A@@1@0@Z 00588b60 f i glm.obj
 0002:00075ee0       ??0?$qua@N$0A@@glm@@QAE@ABU?$vec@$02N$0A@@1@@Z 00588ee0 f i glm.obj
 0002:000760e0       ??0?$qua@N$0A@@glm@@QAE@NABU?$vec@$02N$0A@@1@@Z 005890e0 f i glm.obj
 0002:00076180       ??0?$qua@N$0A@@glm@@QAE@NNNN@Z 00589180 f i glm.obj
 0002:00076220       ??0?$tdualquat@M$00@glm@@QAE@ABU01@@Z 00589220 f i glm.obj
 0002:000762d0       ??0?$tdualquat@M$00@glm@@QAE@ABU?$mat@$01$03M$00@1@@Z 005892d0 f i glm.obj
 0002:00076350       ??0?$tdualquat@M$00@glm@@QAE@ABU?$mat@$02$03M$00@1@@Z 00589350 f i glm.obj
 0002:000763d0       ??0?$tdualquat@M$00@glm@@QAE@ABU?$qua@M$00@1@0@Z 005893d0 f i glm.obj
 0002:00076470       ??0?$tdualquat@M$00@glm@@QAE@ABU?$qua@M$00@1@@Z 00589470 f i glm.obj
 0002:00076530       ??0?$tdualquat@M$00@glm@@QAE@ABU?$qua@M$00@1@ABU?$vec@$02M$00@1@@Z 00589530 f i glm.obj
 0002:00076720       ??0?$tdualquat@M$01@glm@@QAE@ABU01@@Z 00589720 f i glm.obj
 0002:000767d0       ??0?$tdualquat@M$01@glm@@QAE@ABU?$mat@$01$03M$01@1@@Z 005897d0 f i glm.obj
 0002:00076850       ??0?$tdualquat@M$01@glm@@QAE@ABU?$mat@$02$03M$01@1@@Z 00589850 f i glm.obj
 0002:000768d0       ??0?$tdualquat@M$01@glm@@QAE@ABU?$qua@M$01@1@0@Z 005898d0 f i glm.obj
 0002:00076970       ??0?$tdualquat@M$01@glm@@QAE@ABU?$qua@M$01@1@@Z 00589970 f i glm.obj
 0002:00076a30       ??0?$tdualquat@M$01@glm@@QAE@ABU?$qua@M$01@1@ABU?$vec@$02M$01@1@@Z 00589a30 f i glm.obj
 0002:00076c20       ??0?$tdualquat@M$0A@@glm@@QAE@ABU01@@Z 00589c20 f i glm.obj
 0002:00076cd0       ??0?$tdualquat@M$0A@@glm@@QAE@ABU?$mat@$01$03M$0A@@1@@Z 00589cd0 f i glm.obj
 0002:00076d50       ??0?$tdualquat@M$0A@@glm@@QAE@ABU?$mat@$02$03M$0A@@1@@Z 00589d50 f i glm.obj
 0002:00076dd0       ??0?$tdualquat@M$0A@@glm@@QAE@ABU?$qua@M$0A@@1@0@Z 00589dd0 f i glm.obj
 0002:00076e70       ??0?$tdualquat@M$0A@@glm@@QAE@ABU?$qua@M$0A@@1@@Z 00589e70 f i glm.obj
 0002:00076f30       ??0?$tdualquat@M$0A@@glm@@QAE@ABU?$qua@M$0A@@1@ABU?$vec@$02M$0A@@1@@Z 00589f30 f i glm.obj
 0002:00077120       ??0?$tdualquat@N$00@glm@@QAE@ABU01@@Z 0058a120 f i glm.obj
 0002:000771a0       ??0?$tdualquat@N$00@glm@@QAE@ABU?$mat@$01$03N$00@1@@Z 0058a1a0 f i glm.obj
 0002:00077220       ??0?$tdualquat@N$00@glm@@QAE@ABU?$mat@$02$03N$00@1@@Z 0058a220 f i glm.obj
 0002:000772a0       ??0?$tdualquat@N$00@glm@@QAE@ABU?$qua@N$00@1@0@Z 0058a2a0 f i glm.obj
 0002:00077320       ??0?$tdualquat@N$00@glm@@QAE@ABU?$qua@N$00@1@@Z 0058a320 f i glm.obj
 0002:000773d0       ??0?$tdualquat@N$00@glm@@QAE@ABU?$qua@N$00@1@ABU?$vec@$02N$00@1@@Z 0058a3d0 f i glm.obj
 0002:000775b0       ??0?$tdualquat@N$01@glm@@QAE@ABU01@@Z 0058a5b0 f i glm.obj
 0002:00077630       ??0?$tdualquat@N$01@glm@@QAE@ABU?$mat@$01$03N$01@1@@Z 0058a630 f i glm.obj
 0002:000776b0       ??0?$tdualquat@N$01@glm@@QAE@ABU?$mat@$02$03N$01@1@@Z 0058a6b0 f i glm.obj
 0002:00077730       ??0?$tdualquat@N$01@glm@@QAE@ABU?$qua@N$01@1@0@Z 0058a730 f i glm.obj
 0002:000777b0       ??0?$tdualquat@N$01@glm@@QAE@ABU?$qua@N$01@1@@Z 0058a7b0 f i glm.obj
 0002:00077860       ??0?$tdualquat@N$01@glm@@QAE@ABU?$qua@N$01@1@ABU?$vec@$02N$01@1@@Z 0058a860 f i glm.obj
 0002:00077a40       ??0?$tdualquat@N$0A@@glm@@QAE@ABU01@@Z 0058aa40 f i glm.obj
 0002:00077ac0       ??0?$tdualquat@N$0A@@glm@@QAE@ABU?$mat@$01$03N$0A@@1@@Z 0058aac0 f i glm.obj
 0002:00077b40       ??0?$tdualquat@N$0A@@glm@@QAE@ABU?$mat@$02$03N$0A@@1@@Z 0058ab40 f i glm.obj
 0002:00077bc0       ??0?$tdualquat@N$0A@@glm@@QAE@ABU?$qua@N$0A@@1@0@Z 0058abc0 f i glm.obj
 0002:00077c40       ??0?$tdualquat@N$0A@@glm@@QAE@ABU?$qua@N$0A@@1@@Z 0058ac40 f i glm.obj
 0002:00077cf0       ??0?$tdualquat@N$0A@@glm@@QAE@ABU?$qua@N$0A@@1@ABU?$vec@$02N$0A@@1@@Z 0058acf0 f i glm.obj
 0002:00077ed0       ??0?$vec@$00C$00@glm@@QAE@ABU01@@Z 0058aed0 f i glm.obj
 0002:00077f50       ??0?$vec@$00C$00@glm@@QAE@C@Z 0058af50 f i glm.obj
 0002:00077fb0       ??0?$vec@$00C$01@glm@@QAE@ABU01@@Z 0058afb0 f i glm.obj
 0002:00078030       ??0?$vec@$00C$01@glm@@QAE@C@Z 0058b030 f i glm.obj
 0002:00078090       ??0?$vec@$00C$0A@@glm@@QAE@ABU01@@Z 0058b090 f i glm.obj
 0002:00078110       ??0?$vec@$00C$0A@@glm@@QAE@C@Z 0058b110 f i glm.obj
 0002:00078170       ??0?$vec@$00E$00@glm@@QAE@ABU01@@Z 0058b170 f i glm.obj
 0002:000781f0       ??0?$vec@$00E$00@glm@@QAE@E@Z 0058b1f0 f i glm.obj
 0002:00078250       ??0?$vec@$00E$01@glm@@QAE@ABU01@@Z 0058b250 f i glm.obj
 0002:000782d0       ??0?$vec@$00E$01@glm@@QAE@E@Z 0058b2d0 f i glm.obj
 0002:00078330       ??0?$vec@$00E$0A@@glm@@QAE@ABU01@@Z 0058b330 f i glm.obj
 0002:000783b0       ??0?$vec@$00E$0A@@glm@@QAE@E@Z 0058b3b0 f i glm.obj
 0002:00078410       ??0?$vec@$00F$00@glm@@QAE@ABU01@@Z 0058b410 f i glm.obj
 0002:00078490       ??0?$vec@$00F$00@glm@@QAE@F@Z 0058b490 f i glm.obj
 0002:000784f0       ??0?$vec@$00F$01@glm@@QAE@ABU01@@Z 0058b4f0 f i glm.obj
 0002:00078570       ??0?$vec@$00F$01@glm@@QAE@F@Z 0058b570 f i glm.obj
 0002:000785d0       ??0?$vec@$00F$0A@@glm@@QAE@ABU01@@Z 0058b5d0 f i glm.obj
 0002:00078650       ??0?$vec@$00F$0A@@glm@@QAE@F@Z 0058b650 f i glm.obj
 0002:000786b0       ??0?$vec@$00G$00@glm@@QAE@ABU01@@Z 0058b6b0 f i glm.obj
 0002:00078730       ??0?$vec@$00G$00@glm@@QAE@G@Z 0058b730 f i glm.obj
 0002:00078790       ??0?$vec@$00G$01@glm@@QAE@ABU01@@Z 0058b790 f i glm.obj
 0002:00078810       ??0?$vec@$00G$01@glm@@QAE@G@Z 0058b810 f i glm.obj
 0002:00078870       ??0?$vec@$00G$0A@@glm@@QAE@ABU01@@Z 0058b870 f i glm.obj
 0002:000788f0       ??0?$vec@$00G$0A@@glm@@QAE@G@Z 0058b8f0 f i glm.obj
 0002:00078950       ??0?$vec@$00H$00@glm@@QAE@ABU01@@Z 0058b950 f i glm.obj
 0002:000789d0       ??0?$vec@$00H$00@glm@@QAE@H@Z 0058b9d0 f i glm.obj
 0002:00078a30       ??0?$vec@$00H$01@glm@@QAE@ABU01@@Z 0058ba30 f i glm.obj
 0002:00078ab0       ??0?$vec@$00H$01@glm@@QAE@H@Z 0058bab0 f i glm.obj
 0002:00078b10       ??0?$vec@$00H$0A@@glm@@QAE@ABU01@@Z 0058bb10 f i glm.obj
 0002:00078b90       ??0?$vec@$00H$0A@@glm@@QAE@H@Z 0058bb90 f i glm.obj
 0002:00078bf0       ??0?$vec@$00I$00@glm@@QAE@ABU01@@Z 0058bbf0 f i glm.obj
 0002:00078c70       ??0?$vec@$00I$00@glm@@QAE@I@Z 0058bc70 f i glm.obj
 0002:00078cd0       ??0?$vec@$00I$01@glm@@QAE@ABU01@@Z 0058bcd0 f i glm.obj
 0002:00078d50       ??0?$vec@$00I$01@glm@@QAE@I@Z 0058bd50 f i glm.obj
 0002:00078db0       ??0?$vec@$00I$0A@@glm@@QAE@ABU01@@Z 0058bdb0 f i glm.obj
 0002:00078e30       ??0?$vec@$00I$0A@@glm@@QAE@I@Z 0058be30 f i glm.obj
 0002:00078e90       ??0?$vec@$00M$00@glm@@QAE@ABU01@@Z 0058be90 f i glm.obj
 0002:00078f10       ??0?$vec@$00M$00@glm@@QAE@M@Z 0058bf10 f i glm.obj
 0002:00078f80       ??0?$vec@$00M$01@glm@@QAE@ABU01@@Z 0058bf80 f i glm.obj
 0002:00079000       ??0?$vec@$00M$01@glm@@QAE@M@Z 0058c000 f i glm.obj
 0002:00079070       ??0?$vec@$00M$0A@@glm@@QAE@ABU01@@Z 0058c070 f i glm.obj
 0002:000790f0       ??0?$vec@$00M$0A@@glm@@QAE@M@Z 0058c0f0 f i glm.obj
 0002:00079160       ??0?$vec@$00N$00@glm@@QAE@ABU01@@Z 0058c160 f i glm.obj
 0002:000791f0       ??0?$vec@$00N$00@glm@@QAE@N@Z 0058c1f0 f i glm.obj
 0002:00079260       ??0?$vec@$00N$01@glm@@QAE@ABU01@@Z 0058c260 f i glm.obj
 0002:000792f0       ??0?$vec@$00N$01@glm@@QAE@N@Z 0058c2f0 f i glm.obj
 0002:00079360       ??0?$vec@$00N$0A@@glm@@QAE@ABU01@@Z 0058c360 f i glm.obj
 0002:000793f0       ??0?$vec@$00N$0A@@glm@@QAE@N@Z 0058c3f0 f i glm.obj
 0002:00079460       ??0?$vec@$00_J$00@glm@@QAE@ABU01@@Z 0058c460 f i glm.obj
 0002:000794f0       ??0?$vec@$00_J$00@glm@@QAE@_J@Z 0058c4f0 f i glm.obj
 0002:00079560       ??0?$vec@$00_J$01@glm@@QAE@ABU01@@Z 0058c560 f i glm.obj
 0002:000795f0       ??0?$vec@$00_J$01@glm@@QAE@_J@Z 0058c5f0 f i glm.obj
 0002:00079660       ??0?$vec@$00_J$0A@@glm@@QAE@ABU01@@Z 0058c660 f i glm.obj
 0002:000796f0       ??0?$vec@$00_J$0A@@glm@@QAE@_J@Z 0058c6f0 f i glm.obj
 0002:00079760       ??0?$vec@$00_K$00@glm@@QAE@ABU01@@Z 0058c760 f i glm.obj
 0002:000797f0       ??0?$vec@$00_K$00@glm@@QAE@_K@Z 0058c7f0 f i glm.obj
 0002:00079860       ??0?$vec@$00_K$01@glm@@QAE@ABU01@@Z 0058c860 f i glm.obj
 0002:000798f0       ??0?$vec@$00_K$01@glm@@QAE@_K@Z 0058c8f0 f i glm.obj
 0002:00079960       ??0?$vec@$00_K$0A@@glm@@QAE@ABU01@@Z 0058c960 f i glm.obj
 0002:000799f0       ??0?$vec@$00_K$0A@@glm@@QAE@_K@Z 0058c9f0 f i glm.obj
 0002:00079a60       ??0?$vec@$01C$00@glm@@QAE@ABU01@@Z 0058ca60 f i glm.obj
 0002:00079b10       ??0?$vec@$01C$00@glm@@QAE@C@Z 0058cb10 f i glm.obj
 0002:00079b80       ??0?$vec@$01C$00@glm@@QAE@CC@Z 0058cb80 f i glm.obj
 0002:00079bf0       ??0?$vec@$01C$01@glm@@QAE@ABU01@@Z 0058cbf0 f i glm.obj
 0002:00079ca0       ??0?$vec@$01C$01@glm@@QAE@C@Z 0058cca0 f i glm.obj
 0002:00079d10       ??0?$vec@$01C$01@glm@@QAE@CC@Z 0058cd10 f i glm.obj
 0002:00079d80       ??0?$vec@$01C$0A@@glm@@QAE@ABU01@@Z 0058cd80 f i glm.obj
 0002:00079e30       ??0?$vec@$01C$0A@@glm@@QAE@C@Z 0058ce30 f i glm.obj
 0002:00079ea0       ??0?$vec@$01C$0A@@glm@@QAE@CC@Z 0058cea0 f i glm.obj
 0002:00079f10       ??0?$vec@$01E$00@glm@@QAE@ABU01@@Z 0058cf10 f i glm.obj
 0002:00079fc0       ??0?$vec@$01E$00@glm@@QAE@E@Z 0058cfc0 f i glm.obj
 0002:0007a030       ??0?$vec@$01E$00@glm@@QAE@EE@Z 0058d030 f i glm.obj
 0002:0007a0a0       ??0?$vec@$01E$01@glm@@QAE@ABU01@@Z 0058d0a0 f i glm.obj
 0002:0007a150       ??0?$vec@$01E$01@glm@@QAE@E@Z 0058d150 f i glm.obj
 0002:0007a1c0       ??0?$vec@$01E$01@glm@@QAE@EE@Z 0058d1c0 f i glm.obj
 0002:0007a230       ??0?$vec@$01E$0A@@glm@@QAE@ABU01@@Z 0058d230 f i glm.obj
 0002:0007a2e0       ??0?$vec@$01E$0A@@glm@@QAE@E@Z 0058d2e0 f i glm.obj
 0002:0007a350       ??0?$vec@$01E$0A@@glm@@QAE@EE@Z 0058d350 f i glm.obj
 0002:0007a3c0       ??0?$vec@$01F$00@glm@@QAE@ABU01@@Z 0058d3c0 f i glm.obj
 0002:0007a480       ??0?$vec@$01F$00@glm@@QAE@F@Z 0058d480 f i glm.obj
 0002:0007a4f0       ??0?$vec@$01F$00@glm@@QAE@FF@Z 0058d4f0 f i glm.obj
 0002:0007a560       ??0?$vec@$01F$01@glm@@QAE@ABU01@@Z 0058d560 f i glm.obj
 0002:0007a620       ??0?$vec@$01F$01@glm@@QAE@F@Z 0058d620 f i glm.obj
 0002:0007a690       ??0?$vec@$01F$01@glm@@QAE@FF@Z 0058d690 f i glm.obj
 0002:0007a700       ??0?$vec@$01F$0A@@glm@@QAE@ABU01@@Z 0058d700 f i glm.obj
 0002:0007a7c0       ??0?$vec@$01F$0A@@glm@@QAE@F@Z 0058d7c0 f i glm.obj
 0002:0007a830       ??0?$vec@$01F$0A@@glm@@QAE@FF@Z 0058d830 f i glm.obj
 0002:0007a8a0       ??0?$vec@$01G$00@glm@@QAE@ABU01@@Z 0058d8a0 f i glm.obj
 0002:0007a960       ??0?$vec@$01G$00@glm@@QAE@G@Z 0058d960 f i glm.obj
 0002:0007a9d0       ??0?$vec@$01G$00@glm@@QAE@GG@Z 0058d9d0 f i glm.obj
 0002:0007aa40       ??0?$vec@$01G$01@glm@@QAE@ABU01@@Z 0058da40 f i glm.obj
 0002:0007ab00       ??0?$vec@$01G$01@glm@@QAE@G@Z 0058db00 f i glm.obj
 0002:0007ab70       ??0?$vec@$01G$01@glm@@QAE@GG@Z 0058db70 f i glm.obj
 0002:0007abe0       ??0?$vec@$01G$0A@@glm@@QAE@ABU01@@Z 0058dbe0 f i glm.obj
 0002:0007aca0       ??0?$vec@$01G$0A@@glm@@QAE@G@Z 0058dca0 f i glm.obj
 0002:0007ad10       ??0?$vec@$01G$0A@@glm@@QAE@GG@Z 0058dd10 f i glm.obj
 0002:0007ad80       ??0?$vec@$01H$00@glm@@QAE@ABU01@@Z 0058dd80 f i glm.obj
 0002:0007ae30       ??0?$vec@$01H$00@glm@@QAE@H@Z 0058de30 f i glm.obj
 0002:0007aea0       ??0?$vec@$01H$00@glm@@QAE@HH@Z 0058dea0 f i glm.obj
 0002:0007af10       ??0?$vec@$01H$01@glm@@QAE@ABU01@@Z 0058df10 f i glm.obj
 0002:0007afc0       ??0?$vec@$01H$01@glm@@QAE@H@Z 0058dfc0 f i glm.obj
 0002:0007b030       ??0?$vec@$01H$01@glm@@QAE@HH@Z 0058e030 f i glm.obj
 0002:0007b0a0       ??0?$vec@$01H$0A@@glm@@QAE@ABU01@@Z 0058e0a0 f i glm.obj
 0002:0007b150       ??0?$vec@$01H$0A@@glm@@QAE@H@Z 0058e150 f i glm.obj
 0002:0007b1c0       ??0?$vec@$01H$0A@@glm@@QAE@HH@Z 0058e1c0 f i glm.obj
 0002:0007b230       ??0?$vec@$01I$00@glm@@QAE@ABU01@@Z 0058e230 f i glm.obj
 0002:0007b2e0       ??0?$vec@$01I$00@glm@@QAE@I@Z 0058e2e0 f i glm.obj
 0002:0007b350       ??0?$vec@$01I$00@glm@@QAE@II@Z 0058e350 f i glm.obj
 0002:0007b3c0       ??0?$vec@$01I$01@glm@@QAE@ABU01@@Z 0058e3c0 f i glm.obj
 0002:0007b470       ??0?$vec@$01I$01@glm@@QAE@I@Z 0058e470 f i glm.obj
 0002:0007b4e0       ??0?$vec@$01I$01@glm@@QAE@II@Z 0058e4e0 f i glm.obj
 0002:0007b550       ??0?$vec@$01I$0A@@glm@@QAE@ABU01@@Z 0058e550 f i glm.obj
 0002:0007b600       ??0?$vec@$01I$0A@@glm@@QAE@I@Z 0058e600 f i glm.obj
 0002:0007b670       ??0?$vec@$01I$0A@@glm@@QAE@II@Z 0058e670 f i glm.obj
 0002:0007b6e0       ??0?$vec@$01M$00@glm@@QAE@ABU01@@Z 0058e6e0 f i glm.obj
 0002:0007b790       ??0?$vec@$01M$00@glm@@QAE@M@Z 0058e790 f i glm.obj
 0002:0007b810       ??0?$vec@$01M$00@glm@@QAE@MM@Z 0058e810 f i glm.obj
 0002:0007b890       ??0?$vec@$01M$01@glm@@QAE@ABU01@@Z 0058e890 f i glm.obj
 0002:0007b940       ??0?$vec@$01M$01@glm@@QAE@M@Z 0058e940 f i glm.obj
 0002:0007b9c0       ??0?$vec@$01M$01@glm@@QAE@MM@Z 0058e9c0 f i glm.obj
 0002:0007ba40       ??0?$vec@$01M$0A@@glm@@QAE@ABU01@@Z 0058ea40 f i glm.obj
 0002:0007baf0       ??0?$vec@$01M$0A@@glm@@QAE@M@Z 0058eaf0 f i glm.obj
 0002:0007bb70       ??0?$vec@$01M$0A@@glm@@QAE@MM@Z 0058eb70 f i glm.obj
 0002:0007bbf0       ??0?$vec@$01N$00@glm@@QAE@ABU01@@Z 0058ebf0 f i glm.obj
 0002:0007bcc0       ??0?$vec@$01N$00@glm@@QAE@N@Z 0058ecc0 f i glm.obj
 0002:0007bd40       ??0?$vec@$01N$00@glm@@QAE@NN@Z 0058ed40 f i glm.obj
 0002:0007bdc0       ??0?$vec@$01N$01@glm@@QAE@ABU01@@Z 0058edc0 f i glm.obj
 0002:0007be90       ??0?$vec@$01N$01@glm@@QAE@N@Z 0058ee90 f i glm.obj
 0002:0007bf10       ??0?$vec@$01N$01@glm@@QAE@NN@Z 0058ef10 f i glm.obj
 0002:0007bf90       ??0?$vec@$01N$0A@@glm@@QAE@ABU01@@Z 0058ef90 f i glm.obj
 0002:0007c060       ??0?$vec@$01N$0A@@glm@@QAE@N@Z 0058f060 f i glm.obj
 0002:0007c0e0       ??0?$vec@$01N$0A@@glm@@QAE@NN@Z 0058f0e0 f i glm.obj
 0002:0007c160       ??0?$vec@$01_J$00@glm@@QAE@ABU01@@Z 0058f160 f i glm.obj
 0002:0007c240       ??0?$vec@$01_J$00@glm@@QAE@_J0@Z 0058f240 f i glm.obj
 0002:0007c2c0       ??0?$vec@$01_J$00@glm@@QAE@_J@Z 0058f2c0 f i glm.obj
 0002:0007c340       ??0?$vec@$01_J$01@glm@@QAE@ABU01@@Z 0058f340 f i glm.obj
 0002:0007c420       ??0?$vec@$01_J$01@glm@@QAE@_J0@Z 0058f420 f i glm.obj
 0002:0007c4a0       ??0?$vec@$01_J$01@glm@@QAE@_J@Z 0058f4a0 f i glm.obj
 0002:0007c520       ??0?$vec@$01_J$0A@@glm@@QAE@ABU01@@Z 0058f520 f i glm.obj
 0002:0007c600       ??0?$vec@$01_J$0A@@glm@@QAE@_J0@Z 0058f600 f i glm.obj
 0002:0007c680       ??0?$vec@$01_J$0A@@glm@@QAE@_J@Z 0058f680 f i glm.obj
 0002:0007c700       ??0?$vec@$01_K$00@glm@@QAE@ABU01@@Z 0058f700 f i glm.obj
 0002:0007c7e0       ??0?$vec@$01_K$00@glm@@QAE@_K0@Z 0058f7e0 f i glm.obj
 0002:0007c860       ??0?$vec@$01_K$00@glm@@QAE@_K@Z 0058f860 f i glm.obj
 0002:0007c8e0       ??0?$vec@$01_K$01@glm@@QAE@ABU01@@Z 0058f8e0 f i glm.obj
 0002:0007c9c0       ??0?$vec@$01_K$01@glm@@QAE@_K0@Z 0058f9c0 f i glm.obj
 0002:0007ca40       ??0?$vec@$01_K$01@glm@@QAE@_K@Z 0058fa40 f i glm.obj
 0002:0007cac0       ??0?$vec@$01_K$0A@@glm@@QAE@ABU01@@Z 0058fac0 f i glm.obj
 0002:0007cba0       ??0?$vec@$01_K$0A@@glm@@QAE@_K0@Z 0058fba0 f i glm.obj
 0002:0007cc20       ??0?$vec@$01_K$0A@@glm@@QAE@_K@Z 0058fc20 f i glm.obj
 0002:0007cca0       ??0?$vec@$02C$00@glm@@QAE@ABU01@@Z 0058fca0 f i glm.obj
 0002:0007cd80       ??0?$vec@$02C$00@glm@@QAE@C@Z 0058fd80 f i glm.obj
 0002:0007ce00       ??0?$vec@$02C$00@glm@@QAE@CCC@Z 0058fe00 f i glm.obj
 0002:0007ce80       ??0?$vec@$02C$01@glm@@QAE@ABU01@@Z 0058fe80 f i glm.obj
 0002:0007cf60       ??0?$vec@$02C$01@glm@@QAE@C@Z 0058ff60 f i glm.obj
 0002:0007cfe0       ??0?$vec@$02C$01@glm@@QAE@CCC@Z 0058ffe0 f i glm.obj
 0002:0007d060       ??0?$vec@$02C$0A@@glm@@QAE@ABU01@@Z 00590060 f i glm.obj
 0002:0007d140       ??0?$vec@$02C$0A@@glm@@QAE@C@Z 00590140 f i glm.obj
 0002:0007d1c0       ??0?$vec@$02C$0A@@glm@@QAE@CCC@Z 005901c0 f i glm.obj
 0002:0007d240       ??0?$vec@$02E$00@glm@@QAE@ABU01@@Z 00590240 f i glm.obj
 0002:0007d320       ??0?$vec@$02E$00@glm@@QAE@E@Z 00590320 f i glm.obj
 0002:0007d3a0       ??0?$vec@$02E$00@glm@@QAE@EEE@Z 005903a0 f i glm.obj
 0002:0007d420       ??0?$vec@$02E$01@glm@@QAE@ABU01@@Z 00590420 f i glm.obj
 0002:0007d500       ??0?$vec@$02E$01@glm@@QAE@E@Z 00590500 f i glm.obj
 0002:0007d580       ??0?$vec@$02E$01@glm@@QAE@EEE@Z 00590580 f i glm.obj
 0002:0007d600       ??0?$vec@$02E$0A@@glm@@QAE@ABU01@@Z 00590600 f i glm.obj
 0002:0007d6e0       ??0?$vec@$02E$0A@@glm@@QAE@E@Z 005906e0 f i glm.obj
 0002:0007d760       ??0?$vec@$02E$0A@@glm@@QAE@EEE@Z 00590760 f i glm.obj
 0002:0007d7e0       ??0?$vec@$02F$00@glm@@QAE@ABU01@@Z 005907e0 f i glm.obj
 0002:0007d8d0       ??0?$vec@$02F$00@glm@@QAE@F@Z 005908d0 f i glm.obj
 0002:0007d950       ??0?$vec@$02F$00@glm@@QAE@FFF@Z 00590950 f i glm.obj
 0002:0007d9d0       ??0?$vec@$02F$01@glm@@QAE@ABU01@@Z 005909d0 f i glm.obj
 0002:0007dac0       ??0?$vec@$02F$01@glm@@QAE@F@Z 00590ac0 f i glm.obj
 0002:0007db40       ??0?$vec@$02F$01@glm@@QAE@FFF@Z 00590b40 f i glm.obj
 0002:0007dbc0       ??0?$vec@$02F$0A@@glm@@QAE@ABU01@@Z 00590bc0 f i glm.obj
 0002:0007dcb0       ??0?$vec@$02F$0A@@glm@@QAE@F@Z 00590cb0 f i glm.obj
 0002:0007dd30       ??0?$vec@$02F$0A@@glm@@QAE@FFF@Z 00590d30 f i glm.obj
 0002:0007ddb0       ??0?$vec@$02G$00@glm@@QAE@ABU01@@Z 00590db0 f i glm.obj
 0002:0007dea0       ??0?$vec@$02G$00@glm@@QAE@G@Z 00590ea0 f i glm.obj
 0002:0007df20       ??0?$vec@$02G$00@glm@@QAE@GGG@Z 00590f20 f i glm.obj
 0002:0007dfa0       ??0?$vec@$02G$01@glm@@QAE@ABU01@@Z 00590fa0 f i glm.obj
 0002:0007e090       ??0?$vec@$02G$01@glm@@QAE@G@Z 00591090 f i glm.obj
 0002:0007e110       ??0?$vec@$02G$01@glm@@QAE@GGG@Z 00591110 f i glm.obj
 0002:0007e190       ??0?$vec@$02G$0A@@glm@@QAE@ABU01@@Z 00591190 f i glm.obj
 0002:0007e280       ??0?$vec@$02G$0A@@glm@@QAE@G@Z 00591280 f i glm.obj
 0002:0007e300       ??0?$vec@$02G$0A@@glm@@QAE@GGG@Z 00591300 f i glm.obj
 0002:0007e380       ??0?$vec@$02H$00@glm@@QAE@ABU01@@Z 00591380 f i glm.obj
 0002:0007e460       ??0?$vec@$02H$00@glm@@QAE@H@Z 00591460 f i glm.obj
 0002:0007e4e0       ??0?$vec@$02H$00@glm@@QAE@HHH@Z 005914e0 f i glm.obj
 0002:0007e560       ??0?$vec@$02H$01@glm@@QAE@ABU01@@Z 00591560 f i glm.obj
 0002:0007e640       ??0?$vec@$02H$01@glm@@QAE@H@Z 00591640 f i glm.obj
 0002:0007e6c0       ??0?$vec@$02H$01@glm@@QAE@HHH@Z 005916c0 f i glm.obj
 0002:0007e740       ??0?$vec@$02H$0A@@glm@@QAE@ABU01@@Z 00591740 f i glm.obj
 0002:0007e820       ??0?$vec@$02H$0A@@glm@@QAE@H@Z 00591820 f i glm.obj
 0002:0007e8a0       ??0?$vec@$02H$0A@@glm@@QAE@HHH@Z 005918a0 f i glm.obj
 0002:0007e920       ??0?$vec@$02I$00@glm@@QAE@ABU01@@Z 00591920 f i glm.obj
 0002:0007ea00       ??0?$vec@$02I$00@glm@@QAE@I@Z 00591a00 f i glm.obj
 0002:0007ea80       ??0?$vec@$02I$00@glm@@QAE@III@Z 00591a80 f i glm.obj
 0002:0007eb00       ??0?$vec@$02I$01@glm@@QAE@ABU01@@Z 00591b00 f i glm.obj
 0002:0007ebe0       ??0?$vec@$02I$01@glm@@QAE@I@Z 00591be0 f i glm.obj
 0002:0007ec60       ??0?$vec@$02I$01@glm@@QAE@III@Z 00591c60 f i glm.obj
 0002:0007ece0       ??0?$vec@$02I$0A@@glm@@QAE@ABU01@@Z 00591ce0 f i glm.obj
 0002:0007edc0       ??0?$vec@$02I$0A@@glm@@QAE@I@Z 00591dc0 f i glm.obj
 0002:0007ee40       ??0?$vec@$02I$0A@@glm@@QAE@III@Z 00591e40 f i glm.obj
 0002:0007eec0       ??0?$vec@$02M$00@glm@@QAE@ABU01@@Z 00591ec0 f i glm.obj
 0002:0007efa0       ??0?$vec@$02M$00@glm@@QAE@M@Z 00591fa0 f i glm.obj
 0002:0007f030       ??0?$vec@$02M$00@glm@@QAE@MMM@Z 00592030 f i glm.obj
 0002:0007f0c0       ??0?$vec@$02M$01@glm@@QAE@ABU01@@Z 005920c0 f i glm.obj
 0002:0007f1a0       ??0?$vec@$02M$01@glm@@QAE@M@Z 005921a0 f i glm.obj
 0002:0007f230       ??0?$vec@$02M$01@glm@@QAE@MMM@Z 00592230 f i glm.obj
 0002:0007f2c0       ??0?$vec@$02M$0A@@glm@@QAE@ABU01@@Z 005922c0 f i glm.obj
 0002:0007f3a0       ??0?$vec@$02M$0A@@glm@@QAE@M@Z 005923a0 f i glm.obj
 0002:0007f430       ??0?$vec@$02N$00@glm@@QAE@ABU01@@Z 00592430 f i glm.obj
 0002:0007f530       ??0?$vec@$02N$00@glm@@QAE@N@Z 00592530 f i glm.obj
 0002:0007f5c0       ??0?$vec@$02N$00@glm@@QAE@NNN@Z 005925c0 f i glm.obj
 0002:0007f650       ??0?$vec@$02N$01@glm@@QAE@ABU01@@Z 00592650 f i glm.obj
 0002:0007f750       ??0?$vec@$02N$01@glm@@QAE@N@Z 00592750 f i glm.obj
 0002:0007f7e0       ??0?$vec@$02N$01@glm@@QAE@NNN@Z 005927e0 f i glm.obj
 0002:0007f870       ??0?$vec@$02N$0A@@glm@@QAE@ABU01@@Z 00592870 f i glm.obj
 0002:0007f970       ??0?$vec@$02N$0A@@glm@@QAE@N@Z 00592970 f i glm.obj
 0002:0007fa00       ??0?$vec@$02N$0A@@glm@@QAE@NNN@Z 00592a00 f i glm.obj
 0002:0007fa90       ??0?$vec@$02_J$00@glm@@QAE@ABU01@@Z 00592a90 f i glm.obj
 0002:0007fbb0       ??0?$vec@$02_J$00@glm@@QAE@_J00@Z 00592bb0 f i glm.obj
 0002:0007fc40       ??0?$vec@$02_J$00@glm@@QAE@_J@Z 00592c40 f i glm.obj
 0002:0007fcd0       ??0?$vec@$02_J$01@glm@@QAE@ABU01@@Z 00592cd0 f i glm.obj
 0002:0007fdf0       ??0?$vec@$02_J$01@glm@@QAE@_J00@Z 00592df0 f i glm.obj
 0002:0007fe80       ??0?$vec@$02_J$01@glm@@QAE@_J@Z 00592e80 f i glm.obj
 0002:0007ff10       ??0?$vec@$02_J$0A@@glm@@QAE@ABU01@@Z 00592f10 f i glm.obj
 0002:00080030       ??0?$vec@$02_J$0A@@glm@@QAE@_J00@Z 00593030 f i glm.obj
 0002:000800c0       ??0?$vec@$02_J$0A@@glm@@QAE@_J@Z 005930c0 f i glm.obj
 0002:00080150       ??0?$vec@$02_K$00@glm@@QAE@ABU01@@Z 00593150 f i glm.obj
 0002:00080270       ??0?$vec@$02_K$00@glm@@QAE@_K00@Z 00593270 f i glm.obj
 0002:00080300       ??0?$vec@$02_K$00@glm@@QAE@_K@Z 00593300 f i glm.obj
 0002:00080390       ??0?$vec@$02_K$01@glm@@QAE@ABU01@@Z 00593390 f i glm.obj
 0002:000804b0       ??0?$vec@$02_K$01@glm@@QAE@_K00@Z 005934b0 f i glm.obj
 0002:00080540       ??0?$vec@$02_K$01@glm@@QAE@_K@Z 00593540 f i glm.obj
 0002:000805d0       ??0?$vec@$02_K$0A@@glm@@QAE@ABU01@@Z 005935d0 f i glm.obj
 0002:000806f0       ??0?$vec@$02_K$0A@@glm@@QAE@_K00@Z 005936f0 f i glm.obj
 0002:00080780       ??0?$vec@$02_K$0A@@glm@@QAE@_K@Z 00593780 f i glm.obj
 0002:00080810       ??0?$vec@$03C$00@glm@@QAE@ABU01@@Z 00593810 f i glm.obj
 0002:00080910       ??0?$vec@$03C$00@glm@@QAE@C@Z 00593910 f i glm.obj
 0002:00080990       ??0?$vec@$03C$00@glm@@QAE@CCCC@Z 00593990 f i glm.obj
 0002:00080a10       ??0?$vec@$03C$01@glm@@QAE@ABU01@@Z 00593a10 f i glm.obj
 0002:00080b10       ??0?$vec@$03C$01@glm@@QAE@C@Z 00593b10 f i glm.obj
 0002:00080b90       ??0?$vec@$03C$01@glm@@QAE@CCCC@Z 00593b90 f i glm.obj
 0002:00080c10       ??0?$vec@$03C$0A@@glm@@QAE@ABU01@@Z 00593c10 f i glm.obj
 0002:00080d10       ??0?$vec@$03C$0A@@glm@@QAE@C@Z 00593d10 f i glm.obj
 0002:00080d90       ??0?$vec@$03C$0A@@glm@@QAE@CCCC@Z 00593d90 f i glm.obj
 0002:00080e10       ??0?$vec@$03E$00@glm@@QAE@ABU01@@Z 00593e10 f i glm.obj
 0002:00080f10       ??0?$vec@$03E$00@glm@@QAE@E@Z 00593f10 f i glm.obj
 0002:00080f90       ??0?$vec@$03E$00@glm@@QAE@EEEE@Z 00593f90 f i glm.obj
 0002:00081010       ??0?$vec@$03E$01@glm@@QAE@ABU01@@Z 00594010 f i glm.obj
 0002:00081110       ??0?$vec@$03E$01@glm@@QAE@E@Z 00594110 f i glm.obj
 0002:00081190       ??0?$vec@$03E$01@glm@@QAE@EEEE@Z 00594190 f i glm.obj
 0002:00081210       ??0?$vec@$03E$0A@@glm@@QAE@ABU01@@Z 00594210 f i glm.obj
 0002:00081310       ??0?$vec@$03E$0A@@glm@@QAE@E@Z 00594310 f i glm.obj
 0002:00081390       ??0?$vec@$03E$0A@@glm@@QAE@EEEE@Z 00594390 f i glm.obj
 0002:00081410       ??0?$vec@$03F$00@glm@@QAE@ABU01@@Z 00594410 f i glm.obj
 0002:00081530       ??0?$vec@$03F$00@glm@@QAE@F@Z 00594530 f i glm.obj
 0002:000815c0       ??0?$vec@$03F$00@glm@@QAE@FFFF@Z 005945c0 f i glm.obj
 0002:00081650       ??0?$vec@$03F$01@glm@@QAE@ABU01@@Z 00594650 f i glm.obj
 0002:00081770       ??0?$vec@$03F$01@glm@@QAE@F@Z 00594770 f i glm.obj
 0002:00081800       ??0?$vec@$03F$01@glm@@QAE@FFFF@Z 00594800 f i glm.obj
 0002:00081890       ??0?$vec@$03F$0A@@glm@@QAE@ABU01@@Z 00594890 f i glm.obj
 0002:000819b0       ??0?$vec@$03F$0A@@glm@@QAE@F@Z 005949b0 f i glm.obj
 0002:00081a40       ??0?$vec@$03F$0A@@glm@@QAE@FFFF@Z 00594a40 f i glm.obj
 0002:00081ad0       ??0?$vec@$03G$00@glm@@QAE@ABU01@@Z 00594ad0 f i glm.obj
 0002:00081bf0       ??0?$vec@$03G$00@glm@@QAE@G@Z 00594bf0 f i glm.obj
 0002:00081c80       ??0?$vec@$03G$00@glm@@QAE@GGGG@Z 00594c80 f i glm.obj
 0002:00081d10       ??0?$vec@$03G$01@glm@@QAE@ABU01@@Z 00594d10 f i glm.obj
 0002:00081e30       ??0?$vec@$03G$01@glm@@QAE@G@Z 00594e30 f i glm.obj
 0002:00081ec0       ??0?$vec@$03G$01@glm@@QAE@GGGG@Z 00594ec0 f i glm.obj
 0002:00081f50       ??0?$vec@$03G$0A@@glm@@QAE@ABU01@@Z 00594f50 f i glm.obj
 0002:00082070       ??0?$vec@$03G$0A@@glm@@QAE@G@Z 00595070 f i glm.obj
 0002:00082100       ??0?$vec@$03G$0A@@glm@@QAE@GGGG@Z 00595100 f i glm.obj
 0002:00082190       ??0?$vec@$03H$00@glm@@QAE@ABU01@@Z 00595190 f i glm.obj
 0002:00082290       ??0?$vec@$03H$00@glm@@QAE@H@Z 00595290 f i glm.obj
 0002:00082310       ??0?$vec@$03H$00@glm@@QAE@HHHH@Z 00595310 f i glm.obj
 0002:00082390       ??0?$vec@$03H$01@glm@@QAE@ABU01@@Z 00595390 f i glm.obj
 0002:00082490       ??0?$vec@$03H$01@glm@@QAE@H@Z 00595490 f i glm.obj
 0002:00082510       ??0?$vec@$03H$01@glm@@QAE@HHHH@Z 00595510 f i glm.obj
 0002:00082590       ??0?$vec@$03H$0A@@glm@@QAE@ABU01@@Z 00595590 f i glm.obj
 0002:00082690       ??0?$vec@$03H$0A@@glm@@QAE@H@Z 00595690 f i glm.obj
 0002:00082710       ??0?$vec@$03H$0A@@glm@@QAE@HHHH@Z 00595710 f i glm.obj
 0002:00082790       ??0?$vec@$03I$00@glm@@QAE@ABU01@@Z 00595790 f i glm.obj
 0002:00082890       ??0?$vec@$03I$00@glm@@QAE@I@Z 00595890 f i glm.obj
 0002:00082910       ??0?$vec@$03I$00@glm@@QAE@IIII@Z 00595910 f i glm.obj
 0002:00082990       ??0?$vec@$03I$01@glm@@QAE@ABU01@@Z 00595990 f i glm.obj
 0002:00082a90       ??0?$vec@$03I$01@glm@@QAE@I@Z 00595a90 f i glm.obj
 0002:00082b10       ??0?$vec@$03I$01@glm@@QAE@IIII@Z 00595b10 f i glm.obj
 0002:00082b90       ??0?$vec@$03I$0A@@glm@@QAE@ABU01@@Z 00595b90 f i glm.obj
 0002:00082c90       ??0?$vec@$03I$0A@@glm@@QAE@I@Z 00595c90 f i glm.obj
 0002:00082d10       ??0?$vec@$03I$0A@@glm@@QAE@IIII@Z 00595d10 f i glm.obj
 0002:00082d90       ??0?$vec@$03M$00@glm@@QAE@ABU01@@Z 00595d90 f i glm.obj
 0002:00082e90       ??0?$vec@$03M$00@glm@@QAE@M@Z 00595e90 f i glm.obj
 0002:00082f30       ??0?$vec@$03M$00@glm@@QAE@MMMM@Z 00595f30 f i glm.obj
 0002:00082fd0       ??0?$vec@$03M$01@glm@@QAE@ABU01@@Z 00595fd0 f i glm.obj
 0002:000830d0       ??0?$vec@$03M$01@glm@@QAE@M@Z 005960d0 f i glm.obj
 0002:00083170       ??0?$vec@$03M$01@glm@@QAE@MMMM@Z 00596170 f i glm.obj
 0002:00083210       ??0?$vec@$03M$0A@@glm@@QAE@ABU01@@Z 00596210 f i glm.obj
 0002:00083310       ??0?$vec@$03N$00@glm@@QAE@ABU01@@Z 00596310 f i glm.obj
 0002:00083450       ??0?$vec@$03N$00@glm@@QAE@N@Z 00596450 f i glm.obj
 0002:000834f0       ??0?$vec@$03N$00@glm@@QAE@NNNN@Z 005964f0 f i glm.obj
 0002:00083590       ??0?$vec@$03N$01@glm@@QAE@ABU01@@Z 00596590 f i glm.obj
 0002:000836d0       ??0?$vec@$03N$01@glm@@QAE@N@Z 005966d0 f i glm.obj
 0002:00083770       ??0?$vec@$03N$01@glm@@QAE@NNNN@Z 00596770 f i glm.obj
 0002:00083810       ??0?$vec@$03N$0A@@glm@@QAE@ABU01@@Z 00596810 f i glm.obj
 0002:00083950       ??0?$vec@$03N$0A@@glm@@QAE@N@Z 00596950 f i glm.obj
 0002:000839f0       ??0?$vec@$03N$0A@@glm@@QAE@NNNN@Z 005969f0 f i glm.obj
 0002:00083a90       ??0?$vec@$03_J$00@glm@@QAE@ABU01@@Z 00596a90 f i glm.obj
 0002:00083bf0       ??0?$vec@$03_J$00@glm@@QAE@_J000@Z 00596bf0 f i glm.obj
 0002:00083c90       ??0?$vec@$03_J$00@glm@@QAE@_J@Z 00596c90 f i glm.obj
 0002:00083d30       ??0?$vec@$03_J$01@glm@@QAE@ABU01@@Z 00596d30 f i glm.obj
 0002:00083e90       ??0?$vec@$03_J$01@glm@@QAE@_J000@Z 00596e90 f i glm.obj
 0002:00083f30       ??0?$vec@$03_J$01@glm@@QAE@_J@Z 00596f30 f i glm.obj
 0002:00083fd0       ??0?$vec@$03_J$0A@@glm@@QAE@ABU01@@Z 00596fd0 f i glm.obj
 0002:00084130       ??0?$vec@$03_J$0A@@glm@@QAE@_J000@Z 00597130 f i glm.obj
 0002:000841d0       ??0?$vec@$03_J$0A@@glm@@QAE@_J@Z 005971d0 f i glm.obj
 0002:00084270       ??0?$vec@$03_K$00@glm@@QAE@ABU01@@Z 00597270 f i glm.obj
 0002:000843d0       ??0?$vec@$03_K$00@glm@@QAE@_K000@Z 005973d0 f i glm.obj
 0002:00084470       ??0?$vec@$03_K$00@glm@@QAE@_K@Z 00597470 f i glm.obj
 0002:00084510       ??0?$vec@$03_K$01@glm@@QAE@ABU01@@Z 00597510 f i glm.obj
 0002:00084670       ??0?$vec@$03_K$01@glm@@QAE@_K000@Z 00597670 f i glm.obj
 0002:00084710       ??0?$vec@$03_K$01@glm@@QAE@_K@Z 00597710 f i glm.obj
 0002:000847b0       ??0?$vec@$03_K$0A@@glm@@QAE@ABU01@@Z 005977b0 f i glm.obj
 0002:00084910       ??0?$vec@$03_K$0A@@glm@@QAE@_K000@Z 00597910 f i glm.obj
 0002:000849b0       ??0?$vec@$03_K$0A@@glm@@QAE@_K@Z 005979b0 f i glm.obj
 0002:00084a50       ??A?$mat@$01$01M$00@glm@@QAEAAU?$vec@$01M$00@1@H@Z 00597a50 f i glm.obj
 0002:00084af0       ??A?$mat@$01$01M$00@glm@@QBEABU?$vec@$01M$00@1@H@Z 00597af0 f i glm.obj
 0002:00084b90       ??A?$mat@$01$01M$01@glm@@QAEAAU?$vec@$01M$01@1@H@Z 00597b90 f i glm.obj
 0002:00084c30       ??A?$mat@$01$01M$01@glm@@QBEABU?$vec@$01M$01@1@H@Z 00597c30 f i glm.obj
 0002:00084cd0       ??A?$mat@$01$01M$0A@@glm@@QAEAAU?$vec@$01M$0A@@1@H@Z 00597cd0 f i glm.obj
 0002:00084d70       ??A?$mat@$01$01M$0A@@glm@@QBEABU?$vec@$01M$0A@@1@H@Z 00597d70 f i glm.obj
 0002:00084e10       ??A?$mat@$01$01N$00@glm@@QAEAAU?$vec@$01N$00@1@H@Z 00597e10 f i glm.obj
 0002:00084eb0       ??A?$mat@$01$01N$00@glm@@QBEABU?$vec@$01N$00@1@H@Z 00597eb0 f i glm.obj
 0002:00084f50       ??A?$mat@$01$01N$01@glm@@QAEAAU?$vec@$01N$01@1@H@Z 00597f50 f i glm.obj
 0002:00084ff0       ??A?$mat@$01$01N$01@glm@@QBEABU?$vec@$01N$01@1@H@Z 00597ff0 f i glm.obj
 0002:00085090       ??A?$mat@$01$01N$0A@@glm@@QAEAAU?$vec@$01N$0A@@1@H@Z 00598090 f i glm.obj
 0002:00085130       ??A?$mat@$01$01N$0A@@glm@@QBEABU?$vec@$01N$0A@@1@H@Z 00598130 f i glm.obj
 0002:000851d0       ??A?$mat@$01$02M$00@glm@@QAEAAU?$vec@$02M$00@1@H@Z 005981d0 f i glm.obj
 0002:00085260       ??A?$mat@$01$02M$00@glm@@QBEABU?$vec@$02M$00@1@H@Z 00598260 f i glm.obj
 0002:000852f0       ??A?$mat@$01$02M$01@glm@@QAEAAU?$vec@$02M$01@1@H@Z 005982f0 f i glm.obj
 0002:00085380       ??A?$mat@$01$02M$01@glm@@QBEABU?$vec@$02M$01@1@H@Z 00598380 f i glm.obj
 0002:00085410       ??A?$mat@$01$02M$0A@@glm@@QAEAAU?$vec@$02M$0A@@1@H@Z 00598410 f i glm.obj
 0002:000854a0       ??A?$mat@$01$02M$0A@@glm@@QBEABU?$vec@$02M$0A@@1@H@Z 005984a0 f i glm.obj
 0002:00085530       ??A?$mat@$01$02N$00@glm@@QAEAAU?$vec@$02N$00@1@H@Z 00598530 f i glm.obj
 0002:000855c0       ??A?$mat@$01$02N$00@glm@@QBEABU?$vec@$02N$00@1@H@Z 005985c0 f i glm.obj
 0002:00085650       ??A?$mat@$01$02N$01@glm@@QAEAAU?$vec@$02N$01@1@H@Z 00598650 f i glm.obj
 0002:000856e0       ??A?$mat@$01$02N$01@glm@@QBEABU?$vec@$02N$01@1@H@Z 005986e0 f i glm.obj
 0002:00085770       ??A?$mat@$01$02N$0A@@glm@@QAEAAU?$vec@$02N$0A@@1@H@Z 00598770 f i glm.obj
 0002:00085800       ??A?$mat@$01$02N$0A@@glm@@QBEABU?$vec@$02N$0A@@1@H@Z 00598800 f i glm.obj
 0002:00085890       ??A?$mat@$01$03M$00@glm@@QAEAAU?$vec@$03M$00@1@H@Z 00598890 f i glm.obj
 0002:00085930       ??A?$mat@$01$03M$00@glm@@QBEABU?$vec@$03M$00@1@H@Z 00598930 f i glm.obj
 0002:000859d0       ??A?$mat@$01$03M$01@glm@@QAEAAU?$vec@$03M$01@1@H@Z 005989d0 f i glm.obj
 0002:00085a70       ??A?$mat@$01$03M$01@glm@@QBEABU?$vec@$03M$01@1@H@Z 00598a70 f i glm.obj
 0002:00085b10       ??A?$mat@$01$03M$0A@@glm@@QAEAAU?$vec@$03M$0A@@1@H@Z 00598b10 f i glm.obj
 0002:00085bb0       ??A?$mat@$01$03M$0A@@glm@@QBEABU?$vec@$03M$0A@@1@H@Z 00598bb0 f i glm.obj
 0002:00085c50       ??A?$mat@$01$03N$00@glm@@QAEAAU?$vec@$03N$00@1@H@Z 00598c50 f i glm.obj
 0002:00085cf0       ??A?$mat@$01$03N$00@glm@@QBEABU?$vec@$03N$00@1@H@Z 00598cf0 f i glm.obj
 0002:00085d90       ??A?$mat@$01$03N$01@glm@@QAEAAU?$vec@$03N$01@1@H@Z 00598d90 f i glm.obj
 0002:00085e30       ??A?$mat@$01$03N$01@glm@@QBEABU?$vec@$03N$01@1@H@Z 00598e30 f i glm.obj
 0002:00085ed0       ??A?$mat@$01$03N$0A@@glm@@QAEAAU?$vec@$03N$0A@@1@H@Z 00598ed0 f i glm.obj
 0002:00085f70       ??A?$mat@$01$03N$0A@@glm@@QBEABU?$vec@$03N$0A@@1@H@Z 00598f70 f i glm.obj
 0002:00086010       ??A?$mat@$02$01M$00@glm@@QAEAAU?$vec@$01M$00@1@H@Z 00599010 f i glm.obj
 0002:000860b0       ??A?$mat@$02$01M$00@glm@@QBEABU?$vec@$01M$00@1@H@Z 005990b0 f i glm.obj
 0002:00086150       ??A?$mat@$02$01M$01@glm@@QAEAAU?$vec@$01M$01@1@H@Z 00599150 f i glm.obj
 0002:000861f0       ??A?$mat@$02$01M$01@glm@@QBEABU?$vec@$01M$01@1@H@Z 005991f0 f i glm.obj
 0002:00086290       ??A?$mat@$02$01M$0A@@glm@@QAEAAU?$vec@$01M$0A@@1@H@Z 00599290 f i glm.obj
 0002:00086330       ??A?$mat@$02$01M$0A@@glm@@QBEABU?$vec@$01M$0A@@1@H@Z 00599330 f i glm.obj
 0002:000863d0       ??A?$mat@$02$01N$00@glm@@QAEAAU?$vec@$01N$00@1@H@Z 005993d0 f i glm.obj
 0002:00086470       ??A?$mat@$02$01N$00@glm@@QBEABU?$vec@$01N$00@1@H@Z 00599470 f i glm.obj
 0002:00086510       ??A?$mat@$02$01N$01@glm@@QAEAAU?$vec@$01N$01@1@H@Z 00599510 f i glm.obj
 0002:000865b0       ??A?$mat@$02$01N$01@glm@@QBEABU?$vec@$01N$01@1@H@Z 005995b0 f i glm.obj
 0002:00086650       ??A?$mat@$02$01N$0A@@glm@@QAEAAU?$vec@$01N$0A@@1@H@Z 00599650 f i glm.obj
 0002:000866f0       ??A?$mat@$02$01N$0A@@glm@@QBEABU?$vec@$01N$0A@@1@H@Z 005996f0 f i glm.obj
 0002:00086790       ??A?$mat@$02$02M$00@glm@@QAEAAU?$vec@$02M$00@1@H@Z 00599790 f i glm.obj
 0002:00086820       ??A?$mat@$02$02M$00@glm@@QBEABU?$vec@$02M$00@1@H@Z 00599820 f i glm.obj
 0002:000868b0       ??A?$mat@$02$02M$01@glm@@QAEAAU?$vec@$02M$01@1@H@Z 005998b0 f i glm.obj
 0002:00086940       ??A?$mat@$02$02M$01@glm@@QBEABU?$vec@$02M$01@1@H@Z 00599940 f i glm.obj
 0002:000869d0       ??A?$mat@$02$02M$0A@@glm@@QAEAAU?$vec@$02M$0A@@1@H@Z 005999d0 f i glm.obj
 0002:00086a60       ??A?$mat@$02$02M$0A@@glm@@QBEABU?$vec@$02M$0A@@1@H@Z 00599a60 f i glm.obj
 0002:00086af0       ??A?$mat@$02$02N$00@glm@@QAEAAU?$vec@$02N$00@1@H@Z 00599af0 f i glm.obj
 0002:00086b80       ??A?$mat@$02$02N$00@glm@@QBEABU?$vec@$02N$00@1@H@Z 00599b80 f i glm.obj
 0002:00086c10       ??A?$mat@$02$02N$01@glm@@QAEAAU?$vec@$02N$01@1@H@Z 00599c10 f i glm.obj
 0002:00086ca0       ??A?$mat@$02$02N$01@glm@@QBEABU?$vec@$02N$01@1@H@Z 00599ca0 f i glm.obj
 0002:00086d30       ??A?$mat@$02$02N$0A@@glm@@QAEAAU?$vec@$02N$0A@@1@H@Z 00599d30 f i glm.obj
 0002:00086dc0       ??A?$mat@$02$02N$0A@@glm@@QBEABU?$vec@$02N$0A@@1@H@Z 00599dc0 f i glm.obj
 0002:00086e50       ??A?$mat@$02$03M$00@glm@@QAEAAU?$vec@$03M$00@1@H@Z 00599e50 f i glm.obj
 0002:00086ef0       ??A?$mat@$02$03M$00@glm@@QBEABU?$vec@$03M$00@1@H@Z 00599ef0 f i glm.obj
 0002:00086f90       ??A?$mat@$02$03M$01@glm@@QAEAAU?$vec@$03M$01@1@H@Z 00599f90 f i glm.obj
 0002:00087030       ??A?$mat@$02$03M$01@glm@@QBEABU?$vec@$03M$01@1@H@Z 0059a030 f i glm.obj
 0002:000870d0       ??A?$mat@$02$03M$0A@@glm@@QAEAAU?$vec@$03M$0A@@1@H@Z 0059a0d0 f i glm.obj
 0002:00087170       ??A?$mat@$02$03M$0A@@glm@@QBEABU?$vec@$03M$0A@@1@H@Z 0059a170 f i glm.obj
 0002:00087210       ??A?$mat@$02$03N$00@glm@@QAEAAU?$vec@$03N$00@1@H@Z 0059a210 f i glm.obj
 0002:000872b0       ??A?$mat@$02$03N$00@glm@@QBEABU?$vec@$03N$00@1@H@Z 0059a2b0 f i glm.obj
 0002:00087350       ??A?$mat@$02$03N$01@glm@@QAEAAU?$vec@$03N$01@1@H@Z 0059a350 f i glm.obj
 0002:000873f0       ??A?$mat@$02$03N$01@glm@@QBEABU?$vec@$03N$01@1@H@Z 0059a3f0 f i glm.obj
 0002:00087490       ??A?$mat@$02$03N$0A@@glm@@QAEAAU?$vec@$03N$0A@@1@H@Z 0059a490 f i glm.obj
 0002:00087530       ??A?$mat@$02$03N$0A@@glm@@QBEABU?$vec@$03N$0A@@1@H@Z 0059a530 f i glm.obj
 0002:000875d0       ??A?$mat@$03$01M$00@glm@@QAEAAU?$vec@$01M$00@1@H@Z 0059a5d0 f i glm.obj
 0002:00087670       ??A?$mat@$03$01M$00@glm@@QBEABU?$vec@$01M$00@1@H@Z 0059a670 f i glm.obj
 0002:00087710       ??A?$mat@$03$01M$01@glm@@QAEAAU?$vec@$01M$01@1@H@Z 0059a710 f i glm.obj
 0002:000877b0       ??A?$mat@$03$01M$01@glm@@QBEABU?$vec@$01M$01@1@H@Z 0059a7b0 f i glm.obj
 0002:00087850       ??A?$mat@$03$01M$0A@@glm@@QAEAAU?$vec@$01M$0A@@1@H@Z 0059a850 f i glm.obj
 0002:000878f0       ??A?$mat@$03$01M$0A@@glm@@QBEABU?$vec@$01M$0A@@1@H@Z 0059a8f0 f i glm.obj
 0002:00087990       ??A?$mat@$03$01N$00@glm@@QAEAAU?$vec@$01N$00@1@H@Z 0059a990 f i glm.obj
 0002:00087a30       ??A?$mat@$03$01N$00@glm@@QBEABU?$vec@$01N$00@1@H@Z 0059aa30 f i glm.obj
 0002:00087ad0       ??A?$mat@$03$01N$01@glm@@QAEAAU?$vec@$01N$01@1@H@Z 0059aad0 f i glm.obj
 0002:00087b70       ??A?$mat@$03$01N$01@glm@@QBEABU?$vec@$01N$01@1@H@Z 0059ab70 f i glm.obj
 0002:00087c10       ??A?$mat@$03$01N$0A@@glm@@QAEAAU?$vec@$01N$0A@@1@H@Z 0059ac10 f i glm.obj
 0002:00087cb0       ??A?$mat@$03$01N$0A@@glm@@QBEABU?$vec@$01N$0A@@1@H@Z 0059acb0 f i glm.obj
 0002:00087d50       ??A?$mat@$03$02M$00@glm@@QAEAAU?$vec@$02M$00@1@H@Z 0059ad50 f i glm.obj
 0002:00087de0       ??A?$mat@$03$02M$00@glm@@QBEABU?$vec@$02M$00@1@H@Z 0059ade0 f i glm.obj
 0002:00087e70       ??A?$mat@$03$02M$01@glm@@QAEAAU?$vec@$02M$01@1@H@Z 0059ae70 f i glm.obj
 0002:00087f00       ??A?$mat@$03$02M$01@glm@@QBEABU?$vec@$02M$01@1@H@Z 0059af00 f i glm.obj
 0002:00087f90       ??A?$mat@$03$02M$0A@@glm@@QAEAAU?$vec@$02M$0A@@1@H@Z 0059af90 f i glm.obj
 0002:00088020       ??A?$mat@$03$02M$0A@@glm@@QBEABU?$vec@$02M$0A@@1@H@Z 0059b020 f i glm.obj
 0002:000880b0       ??A?$mat@$03$02N$00@glm@@QAEAAU?$vec@$02N$00@1@H@Z 0059b0b0 f i glm.obj
 0002:00088140       ??A?$mat@$03$02N$00@glm@@QBEABU?$vec@$02N$00@1@H@Z 0059b140 f i glm.obj
 0002:000881d0       ??A?$mat@$03$02N$01@glm@@QAEAAU?$vec@$02N$01@1@H@Z 0059b1d0 f i glm.obj
 0002:00088260       ??A?$mat@$03$02N$01@glm@@QBEABU?$vec@$02N$01@1@H@Z 0059b260 f i glm.obj
 0002:000882f0       ??A?$mat@$03$02N$0A@@glm@@QAEAAU?$vec@$02N$0A@@1@H@Z 0059b2f0 f i glm.obj
 0002:00088380       ??A?$mat@$03$02N$0A@@glm@@QBEABU?$vec@$02N$0A@@1@H@Z 0059b380 f i glm.obj
 0002:00088410       ??A?$mat@$03$03M$00@glm@@QAEAAU?$vec@$03M$00@1@H@Z 0059b410 f i glm.obj
 0002:000884b0       ??A?$mat@$03$03M$00@glm@@QBEABU?$vec@$03M$00@1@H@Z 0059b4b0 f i glm.obj
 0002:00088550       ??A?$mat@$03$03M$01@glm@@QAEAAU?$vec@$03M$01@1@H@Z 0059b550 f i glm.obj
 0002:000885f0       ??A?$mat@$03$03M$01@glm@@QBEABU?$vec@$03M$01@1@H@Z 0059b5f0 f i glm.obj
 0002:00088690       ??A?$mat@$03$03N$00@glm@@QAEAAU?$vec@$03N$00@1@H@Z 0059b690 f i glm.obj
 0002:00088730       ??A?$mat@$03$03N$00@glm@@QBEABU?$vec@$03N$00@1@H@Z 0059b730 f i glm.obj
 0002:000887d0       ??A?$mat@$03$03N$01@glm@@QAEAAU?$vec@$03N$01@1@H@Z 0059b7d0 f i glm.obj
 0002:00088870       ??A?$mat@$03$03N$01@glm@@QBEABU?$vec@$03N$01@1@H@Z 0059b870 f i glm.obj
 0002:00088910       ??A?$mat@$03$03N$0A@@glm@@QAEAAU?$vec@$03N$0A@@1@H@Z 0059b910 f i glm.obj
 0002:000889b0       ??A?$mat@$03$03N$0A@@glm@@QBEABU?$vec@$03N$0A@@1@H@Z 0059b9b0 f i glm.obj
 0002:00088a50       ??A?$qua@M$00@glm@@QAEAAMH@Z 0059ba50 f i glm.obj
 0002:00088af0       ??A?$qua@M$00@glm@@QBEABMH@Z 0059baf0 f i glm.obj
 0002:00088b90       ??A?$qua@M$01@glm@@QAEAAMH@Z 0059bb90 f i glm.obj
 0002:00088c30       ??A?$qua@M$01@glm@@QBEABMH@Z 0059bc30 f i glm.obj
 0002:00088cd0       ??A?$qua@M$0A@@glm@@QAEAAMH@Z 0059bcd0 f i glm.obj
 0002:00088d70       ??A?$qua@M$0A@@glm@@QBEABMH@Z 0059bd70 f i glm.obj
 0002:00088e10       ??A?$qua@N$00@glm@@QAEAANH@Z 0059be10 f i glm.obj
 0002:00088eb0       ??A?$qua@N$00@glm@@QBEABNH@Z 0059beb0 f i glm.obj
 0002:00088f50       ??A?$qua@N$01@glm@@QAEAANH@Z 0059bf50 f i glm.obj
 0002:00088ff0       ??A?$qua@N$01@glm@@QBEABNH@Z 0059bff0 f i glm.obj
 0002:00089090       ??A?$qua@N$0A@@glm@@QAEAANH@Z 0059c090 f i glm.obj
 0002:00089130       ??A?$qua@N$0A@@glm@@QBEABNH@Z 0059c130 f i glm.obj
 0002:000891d0       ??A?$tdualquat@M$00@glm@@QAEAAU?$qua@M$00@1@H@Z 0059c1d0 f i glm.obj
 0002:00089270       ??A?$tdualquat@M$00@glm@@QBEABU?$qua@M$00@1@H@Z 0059c270 f i glm.obj
 0002:00089310       ??A?$tdualquat@M$01@glm@@QAEAAU?$qua@M$01@1@H@Z 0059c310 f i glm.obj
 0002:000893b0       ??A?$tdualquat@M$01@glm@@QBEABU?$qua@M$01@1@H@Z 0059c3b0 f i glm.obj
 0002:00089450       ??A?$tdualquat@M$0A@@glm@@QAEAAU?$qua@M$0A@@1@H@Z 0059c450 f i glm.obj
 0002:000894f0       ??A?$tdualquat@M$0A@@glm@@QBEABU?$qua@M$0A@@1@H@Z 0059c4f0 f i glm.obj
 0002:00089590       ??A?$tdualquat@N$00@glm@@QAEAAU?$qua@N$00@1@H@Z 0059c590 f i glm.obj
 0002:00089630       ??A?$tdualquat@N$00@glm@@QBEABU?$qua@N$00@1@H@Z 0059c630 f i glm.obj
 0002:000896d0       ??A?$tdualquat@N$01@glm@@QAEAAU?$qua@N$01@1@H@Z 0059c6d0 f i glm.obj
 0002:00089770       ??A?$tdualquat@N$01@glm@@QBEABU?$qua@N$01@1@H@Z 0059c770 f i glm.obj
 0002:00089810       ??A?$tdualquat@N$0A@@glm@@QAEAAU?$qua@N$0A@@1@H@Z 0059c810 f i glm.obj
 0002:000898b0       ??A?$tdualquat@N$0A@@glm@@QBEABU?$qua@N$0A@@1@H@Z 0059c8b0 f i glm.obj
 0002:00089950       ??A?$vec@$00C$00@glm@@QAEAACH@Z 0059c950 f i glm.obj
 0002:000899b0       ??A?$vec@$00C$00@glm@@QBEABCH@Z 0059c9b0 f i glm.obj
 0002:00089a10       ??A?$vec@$00C$01@glm@@QAEAACH@Z 0059ca10 f i glm.obj
 0002:00089a70       ??A?$vec@$00C$01@glm@@QBEABCH@Z 0059ca70 f i glm.obj
 0002:00089ad0       ??A?$vec@$00C$0A@@glm@@QAEAACH@Z 0059cad0 f i glm.obj
 0002:00089b30       ??A?$vec@$00C$0A@@glm@@QBEABCH@Z 0059cb30 f i glm.obj
 0002:00089b90       ??A?$vec@$00E$00@glm@@QAEAAEH@Z 0059cb90 f i glm.obj
 0002:00089bf0       ??A?$vec@$00E$00@glm@@QBEABEH@Z 0059cbf0 f i glm.obj
 0002:00089c50       ??A?$vec@$00E$01@glm@@QAEAAEH@Z 0059cc50 f i glm.obj
 0002:00089cb0       ??A?$vec@$00E$01@glm@@QBEABEH@Z 0059ccb0 f i glm.obj
 0002:00089d10       ??A?$vec@$00E$0A@@glm@@QAEAAEH@Z 0059cd10 f i glm.obj
 0002:00089d70       ??A?$vec@$00E$0A@@glm@@QBEABEH@Z 0059cd70 f i glm.obj
 0002:00089dd0       ??A?$vec@$00F$00@glm@@QAEAAFH@Z 0059cdd0 f i glm.obj
 0002:00089e30       ??A?$vec@$00F$00@glm@@QBEABFH@Z 0059ce30 f i glm.obj
 0002:00089e90       ??A?$vec@$00F$01@glm@@QAEAAFH@Z 0059ce90 f i glm.obj
 0002:00089ef0       ??A?$vec@$00F$01@glm@@QBEABFH@Z 0059cef0 f i glm.obj
 0002:00089f50       ??A?$vec@$00F$0A@@glm@@QAEAAFH@Z 0059cf50 f i glm.obj
 0002:00089fb0       ??A?$vec@$00F$0A@@glm@@QBEABFH@Z 0059cfb0 f i glm.obj
 0002:0008a010       ??A?$vec@$00G$00@glm@@QAEAAGH@Z 0059d010 f i glm.obj
 0002:0008a070       ??A?$vec@$00G$00@glm@@QBEABGH@Z 0059d070 f i glm.obj
 0002:0008a0d0       ??A?$vec@$00G$01@glm@@QAEAAGH@Z 0059d0d0 f i glm.obj
 0002:0008a130       ??A?$vec@$00G$01@glm@@QBEABGH@Z 0059d130 f i glm.obj
 0002:0008a190       ??A?$vec@$00G$0A@@glm@@QAEAAGH@Z 0059d190 f i glm.obj
 0002:0008a1f0       ??A?$vec@$00G$0A@@glm@@QBEABGH@Z 0059d1f0 f i glm.obj
 0002:0008a250       ??A?$vec@$00H$00@glm@@QAEAAHH@Z 0059d250 f i glm.obj
 0002:0008a2b0       ??A?$vec@$00H$00@glm@@QBEABHH@Z 0059d2b0 f i glm.obj
 0002:0008a310       ??A?$vec@$00H$01@glm@@QAEAAHH@Z 0059d310 f i glm.obj
 0002:0008a370       ??A?$vec@$00H$01@glm@@QBEABHH@Z 0059d370 f i glm.obj
 0002:0008a3d0       ??A?$vec@$00H$0A@@glm@@QAEAAHH@Z 0059d3d0 f i glm.obj
 0002:0008a430       ??A?$vec@$00H$0A@@glm@@QBEABHH@Z 0059d430 f i glm.obj
 0002:0008a490       ??A?$vec@$00I$00@glm@@QAEAAIH@Z 0059d490 f i glm.obj
 0002:0008a4f0       ??A?$vec@$00I$00@glm@@QBEABIH@Z 0059d4f0 f i glm.obj
 0002:0008a550       ??A?$vec@$00I$01@glm@@QAEAAIH@Z 0059d550 f i glm.obj
 0002:0008a5b0       ??A?$vec@$00I$01@glm@@QBEABIH@Z 0059d5b0 f i glm.obj
 0002:0008a610       ??A?$vec@$00I$0A@@glm@@QAEAAIH@Z 0059d610 f i glm.obj
 0002:0008a670       ??A?$vec@$00I$0A@@glm@@QBEABIH@Z 0059d670 f i glm.obj
 0002:0008a6d0       ??A?$vec@$00M$00@glm@@QAEAAMH@Z 0059d6d0 f i glm.obj
 0002:0008a730       ??A?$vec@$00M$00@glm@@QBEABMH@Z 0059d730 f i glm.obj
 0002:0008a790       ??A?$vec@$00M$01@glm@@QAEAAMH@Z 0059d790 f i glm.obj
 0002:0008a7f0       ??A?$vec@$00M$01@glm@@QBEABMH@Z 0059d7f0 f i glm.obj
 0002:0008a850       ??A?$vec@$00M$0A@@glm@@QAEAAMH@Z 0059d850 f i glm.obj
 0002:0008a8b0       ??A?$vec@$00M$0A@@glm@@QBEABMH@Z 0059d8b0 f i glm.obj
 0002:0008a910       ??A?$vec@$00N$00@glm@@QAEAANH@Z 0059d910 f i glm.obj
 0002:0008a970       ??A?$vec@$00N$00@glm@@QBEABNH@Z 0059d970 f i glm.obj
 0002:0008a9d0       ??A?$vec@$00N$01@glm@@QAEAANH@Z 0059d9d0 f i glm.obj
 0002:0008aa30       ??A?$vec@$00N$01@glm@@QBEABNH@Z 0059da30 f i glm.obj
 0002:0008aa90       ??A?$vec@$00N$0A@@glm@@QAEAANH@Z 0059da90 f i glm.obj
 0002:0008aaf0       ??A?$vec@$00N$0A@@glm@@QBEABNH@Z 0059daf0 f i glm.obj
 0002:0008ab50       ??A?$vec@$00_J$00@glm@@QAEAA_JH@Z 0059db50 f i glm.obj
 0002:0008abb0       ??A?$vec@$00_J$00@glm@@QBEAB_JH@Z 0059dbb0 f i glm.obj
 0002:0008ac10       ??A?$vec@$00_J$01@glm@@QAEAA_JH@Z 0059dc10 f i glm.obj
 0002:0008ac70       ??A?$vec@$00_J$01@glm@@QBEAB_JH@Z 0059dc70 f i glm.obj
 0002:0008acd0       ??A?$vec@$00_J$0A@@glm@@QAEAA_JH@Z 0059dcd0 f i glm.obj
 0002:0008ad30       ??A?$vec@$00_J$0A@@glm@@QBEAB_JH@Z 0059dd30 f i glm.obj
 0002:0008ad90       ??A?$vec@$00_K$00@glm@@QAEAA_KH@Z 0059dd90 f i glm.obj
 0002:0008adf0       ??A?$vec@$00_K$00@glm@@QBEAB_KH@Z 0059ddf0 f i glm.obj
 0002:0008ae50       ??A?$vec@$00_K$01@glm@@QAEAA_KH@Z 0059de50 f i glm.obj
 0002:0008aeb0       ??A?$vec@$00_K$01@glm@@QBEAB_KH@Z 0059deb0 f i glm.obj
 0002:0008af10       ??A?$vec@$00_K$0A@@glm@@QAEAA_KH@Z 0059df10 f i glm.obj
 0002:0008af70       ??A?$vec@$00_K$0A@@glm@@QBEAB_KH@Z 0059df70 f i glm.obj
 0002:0008afd0       ??A?$vec@$01C$00@glm@@QAEAACH@Z 0059dfd0 f i glm.obj
 0002:0008b090       ??A?$vec@$01C$00@glm@@QBEABCH@Z 0059e090 f i glm.obj
 0002:0008b150       ??A?$vec@$01C$01@glm@@QAEAACH@Z 0059e150 f i glm.obj
 0002:0008b210       ??A?$vec@$01C$01@glm@@QBEABCH@Z 0059e210 f i glm.obj
 0002:0008b2d0       ??A?$vec@$01C$0A@@glm@@QAEAACH@Z 0059e2d0 f i glm.obj
 0002:0008b390       ??A?$vec@$01C$0A@@glm@@QBEABCH@Z 0059e390 f i glm.obj
 0002:0008b450       ??A?$vec@$01E$00@glm@@QAEAAEH@Z 0059e450 f i glm.obj
 0002:0008b510       ??A?$vec@$01E$00@glm@@QBEABEH@Z 0059e510 f i glm.obj
 0002:0008b5d0       ??A?$vec@$01E$01@glm@@QAEAAEH@Z 0059e5d0 f i glm.obj
 0002:0008b690       ??A?$vec@$01E$01@glm@@QBEABEH@Z 0059e690 f i glm.obj
 0002:0008b750       ??A?$vec@$01E$0A@@glm@@QAEAAEH@Z 0059e750 f i glm.obj
 0002:0008b810       ??A?$vec@$01E$0A@@glm@@QBEABEH@Z 0059e810 f i glm.obj
 0002:0008b8d0       ??A?$vec@$01F$00@glm@@QAEAAFH@Z 0059e8d0 f i glm.obj
 0002:0008b990       ??A?$vec@$01F$00@glm@@QBEABFH@Z 0059e990 f i glm.obj
 0002:0008ba50       ??A?$vec@$01F$01@glm@@QAEAAFH@Z 0059ea50 f i glm.obj
 0002:0008bb10       ??A?$vec@$01F$01@glm@@QBEABFH@Z 0059eb10 f i glm.obj
 0002:0008bbd0       ??A?$vec@$01F$0A@@glm@@QAEAAFH@Z 0059ebd0 f i glm.obj
 0002:0008bc90       ??A?$vec@$01F$0A@@glm@@QBEABFH@Z 0059ec90 f i glm.obj
 0002:0008bd50       ??A?$vec@$01G$00@glm@@QAEAAGH@Z 0059ed50 f i glm.obj
 0002:0008be10       ??A?$vec@$01G$00@glm@@QBEABGH@Z 0059ee10 f i glm.obj
 0002:0008bed0       ??A?$vec@$01G$01@glm@@QAEAAGH@Z 0059eed0 f i glm.obj
 0002:0008bf90       ??A?$vec@$01G$01@glm@@QBEABGH@Z 0059ef90 f i glm.obj
 0002:0008c050       ??A?$vec@$01G$0A@@glm@@QAEAAGH@Z 0059f050 f i glm.obj
 0002:0008c110       ??A?$vec@$01G$0A@@glm@@QBEABGH@Z 0059f110 f i glm.obj
 0002:0008c1d0       ??A?$vec@$01H$00@glm@@QAEAAHH@Z 0059f1d0 f i glm.obj
 0002:0008c290       ??A?$vec@$01H$00@glm@@QBEABHH@Z 0059f290 f i glm.obj
 0002:0008c350       ??A?$vec@$01H$01@glm@@QAEAAHH@Z 0059f350 f i glm.obj
 0002:0008c410       ??A?$vec@$01H$01@glm@@QBEABHH@Z 0059f410 f i glm.obj
 0002:0008c4d0       ??A?$vec@$01H$0A@@glm@@QAEAAHH@Z 0059f4d0 f i glm.obj
 0002:0008c590       ??A?$vec@$01H$0A@@glm@@QBEABHH@Z 0059f590 f i glm.obj
 0002:0008c650       ??A?$vec@$01I$00@glm@@QAEAAIH@Z 0059f650 f i glm.obj
 0002:0008c710       ??A?$vec@$01I$00@glm@@QBEABIH@Z 0059f710 f i glm.obj
 0002:0008c7d0       ??A?$vec@$01I$01@glm@@QAEAAIH@Z 0059f7d0 f i glm.obj
 0002:0008c890       ??A?$vec@$01I$01@glm@@QBEABIH@Z 0059f890 f i glm.obj
 0002:0008c950       ??A?$vec@$01I$0A@@glm@@QAEAAIH@Z 0059f950 f i glm.obj
 0002:0008ca10       ??A?$vec@$01I$0A@@glm@@QBEABIH@Z 0059fa10 f i glm.obj
 0002:0008cad0       ??A?$vec@$01M$00@glm@@QAEAAMH@Z 0059fad0 f i glm.obj
 0002:0008cb90       ??A?$vec@$01M$00@glm@@QBEABMH@Z 0059fb90 f i glm.obj
 0002:0008cc50       ??A?$vec@$01M$01@glm@@QAEAAMH@Z 0059fc50 f i glm.obj
 0002:0008cd10       ??A?$vec@$01M$01@glm@@QBEABMH@Z 0059fd10 f i glm.obj
 0002:0008cdd0       ??A?$vec@$01M$0A@@glm@@QAEAAMH@Z 0059fdd0 f i glm.obj
 0002:0008ce90       ??A?$vec@$01M$0A@@glm@@QBEABMH@Z 0059fe90 f i glm.obj
 0002:0008cf50       ??A?$vec@$01N$00@glm@@QAEAANH@Z 0059ff50 f i glm.obj
 0002:0008d010       ??A?$vec@$01N$00@glm@@QBEABNH@Z 005a0010 f i glm.obj
 0002:0008d0d0       ??A?$vec@$01N$01@glm@@QAEAANH@Z 005a00d0 f i glm.obj
 0002:0008d190       ??A?$vec@$01N$01@glm@@QBEABNH@Z 005a0190 f i glm.obj
 0002:0008d250       ??A?$vec@$01N$0A@@glm@@QAEAANH@Z 005a0250 f i glm.obj
 0002:0008d310       ??A?$vec@$01N$0A@@glm@@QBEABNH@Z 005a0310 f i glm.obj
 0002:0008d3d0       ??A?$vec@$01_J$00@glm@@QAEAA_JH@Z 005a03d0 f i glm.obj
 0002:0008d490       ??A?$vec@$01_J$00@glm@@QBEAB_JH@Z 005a0490 f i glm.obj
 0002:0008d550       ??A?$vec@$01_J$01@glm@@QAEAA_JH@Z 005a0550 f i glm.obj
 0002:0008d610       ??A?$vec@$01_J$01@glm@@QBEAB_JH@Z 005a0610 f i glm.obj
 0002:0008d6d0       ??A?$vec@$01_J$0A@@glm@@QAEAA_JH@Z 005a06d0 f i glm.obj
 0002:0008d790       ??A?$vec@$01_J$0A@@glm@@QBEAB_JH@Z 005a0790 f i glm.obj
 0002:0008d850       ??A?$vec@$01_K$00@glm@@QAEAA_KH@Z 005a0850 f i glm.obj
 0002:0008d910       ??A?$vec@$01_K$00@glm@@QBEAB_KH@Z 005a0910 f i glm.obj
 0002:0008d9d0       ??A?$vec@$01_K$01@glm@@QAEAA_KH@Z 005a09d0 f i glm.obj
 0002:0008da90       ??A?$vec@$01_K$01@glm@@QBEAB_KH@Z 005a0a90 f i glm.obj
 0002:0008db50       ??A?$vec@$01_K$0A@@glm@@QAEAA_KH@Z 005a0b50 f i glm.obj
 0002:0008dc10       ??A?$vec@$01_K$0A@@glm@@QBEAB_KH@Z 005a0c10 f i glm.obj
 0002:0008dcd0       ??A?$vec@$02C$00@glm@@QAEAACH@Z 005a0cd0 f i glm.obj
 0002:0008ddb0       ??A?$vec@$02C$00@glm@@QBEABCH@Z 005a0db0 f i glm.obj
 0002:0008de90       ??A?$vec@$02C$01@glm@@QAEAACH@Z 005a0e90 f i glm.obj
 0002:0008df70       ??A?$vec@$02C$01@glm@@QBEABCH@Z 005a0f70 f i glm.obj
 0002:0008e050       ??A?$vec@$02C$0A@@glm@@QAEAACH@Z 005a1050 f i glm.obj
 0002:0008e130       ??A?$vec@$02C$0A@@glm@@QBEABCH@Z 005a1130 f i glm.obj
 0002:0008e210       ??A?$vec@$02E$00@glm@@QAEAAEH@Z 005a1210 f i glm.obj
 0002:0008e2f0       ??A?$vec@$02E$00@glm@@QBEABEH@Z 005a12f0 f i glm.obj
 0002:0008e3d0       ??A?$vec@$02E$01@glm@@QAEAAEH@Z 005a13d0 f i glm.obj
 0002:0008e4b0       ??A?$vec@$02E$01@glm@@QBEABEH@Z 005a14b0 f i glm.obj
 0002:0008e590       ??A?$vec@$02E$0A@@glm@@QAEAAEH@Z 005a1590 f i glm.obj
 0002:0008e670       ??A?$vec@$02E$0A@@glm@@QBEABEH@Z 005a1670 f i glm.obj
 0002:0008e750       ??A?$vec@$02F$00@glm@@QAEAAFH@Z 005a1750 f i glm.obj
 0002:0008e830       ??A?$vec@$02F$00@glm@@QBEABFH@Z 005a1830 f i glm.obj
 0002:0008e910       ??A?$vec@$02F$01@glm@@QAEAAFH@Z 005a1910 f i glm.obj
 0002:0008e9f0       ??A?$vec@$02F$01@glm@@QBEABFH@Z 005a19f0 f i glm.obj
 0002:0008ead0       ??A?$vec@$02F$0A@@glm@@QAEAAFH@Z 005a1ad0 f i glm.obj
 0002:0008ebb0       ??A?$vec@$02F$0A@@glm@@QBEABFH@Z 005a1bb0 f i glm.obj
 0002:0008ec90       ??A?$vec@$02G$00@glm@@QAEAAGH@Z 005a1c90 f i glm.obj
 0002:0008ed70       ??A?$vec@$02G$00@glm@@QBEABGH@Z 005a1d70 f i glm.obj
 0002:0008ee50       ??A?$vec@$02G$01@glm@@QAEAAGH@Z 005a1e50 f i glm.obj
 0002:0008ef30       ??A?$vec@$02G$01@glm@@QBEABGH@Z 005a1f30 f i glm.obj
 0002:0008f010       ??A?$vec@$02G$0A@@glm@@QAEAAGH@Z 005a2010 f i glm.obj
 0002:0008f0f0       ??A?$vec@$02G$0A@@glm@@QBEABGH@Z 005a20f0 f i glm.obj
 0002:0008f1d0       ??A?$vec@$02H$00@glm@@QAEAAHH@Z 005a21d0 f i glm.obj
 0002:0008f2b0       ??A?$vec@$02H$00@glm@@QBEABHH@Z 005a22b0 f i glm.obj
 0002:0008f390       ??A?$vec@$02H$01@glm@@QAEAAHH@Z 005a2390 f i glm.obj
 0002:0008f470       ??A?$vec@$02H$01@glm@@QBEABHH@Z 005a2470 f i glm.obj
 0002:0008f550       ??A?$vec@$02H$0A@@glm@@QAEAAHH@Z 005a2550 f i glm.obj
 0002:0008f630       ??A?$vec@$02H$0A@@glm@@QBEABHH@Z 005a2630 f i glm.obj
 0002:0008f710       ??A?$vec@$02I$00@glm@@QAEAAIH@Z 005a2710 f i glm.obj
 0002:0008f7f0       ??A?$vec@$02I$00@glm@@QBEABIH@Z 005a27f0 f i glm.obj
 0002:0008f8d0       ??A?$vec@$02I$01@glm@@QAEAAIH@Z 005a28d0 f i glm.obj
 0002:0008f9b0       ??A?$vec@$02I$01@glm@@QBEABIH@Z 005a29b0 f i glm.obj
 0002:0008fa90       ??A?$vec@$02I$0A@@glm@@QAEAAIH@Z 005a2a90 f i glm.obj
 0002:0008fb70       ??A?$vec@$02I$0A@@glm@@QBEABIH@Z 005a2b70 f i glm.obj
 0002:0008fc50       ??A?$vec@$02M$00@glm@@QAEAAMH@Z 005a2c50 f i glm.obj
 0002:0008fd30       ??A?$vec@$02M$00@glm@@QBEABMH@Z 005a2d30 f i glm.obj
 0002:0008fe10       ??A?$vec@$02M$01@glm@@QAEAAMH@Z 005a2e10 f i glm.obj
 0002:0008fef0       ??A?$vec@$02M$01@glm@@QBEABMH@Z 005a2ef0 f i glm.obj
 0002:0008ffd0       ??A?$vec@$02N$00@glm@@QAEAANH@Z 005a2fd0 f i glm.obj
 0002:000900b0       ??A?$vec@$02N$00@glm@@QBEABNH@Z 005a30b0 f i glm.obj
 0002:00090190       ??A?$vec@$02N$01@glm@@QAEAANH@Z 005a3190 f i glm.obj
 0002:00090270       ??A?$vec@$02N$01@glm@@QBEABNH@Z 005a3270 f i glm.obj
 0002:00090350       ??A?$vec@$02N$0A@@glm@@QAEAANH@Z 005a3350 f i glm.obj
 0002:00090430       ??A?$vec@$02N$0A@@glm@@QBEABNH@Z 005a3430 f i glm.obj
 0002:00090510       ??A?$vec@$02_J$00@glm@@QAEAA_JH@Z 005a3510 f i glm.obj
 0002:000905f0       ??A?$vec@$02_J$00@glm@@QBEAB_JH@Z 005a35f0 f i glm.obj
 0002:000906d0       ??A?$vec@$02_J$01@glm@@QAEAA_JH@Z 005a36d0 f i glm.obj
 0002:000907b0       ??A?$vec@$02_J$01@glm@@QBEAB_JH@Z 005a37b0 f i glm.obj
 0002:00090890       ??A?$vec@$02_J$0A@@glm@@QAEAA_JH@Z 005a3890 f i glm.obj
 0002:00090970       ??A?$vec@$02_J$0A@@glm@@QBEAB_JH@Z 005a3970 f i glm.obj
 0002:00090a50       ??A?$vec@$02_K$00@glm@@QAEAA_KH@Z 005a3a50 f i glm.obj
 0002:00090b30       ??A?$vec@$02_K$00@glm@@QBEAB_KH@Z 005a3b30 f i glm.obj
 0002:00090c10       ??A?$vec@$02_K$01@glm@@QAEAA_KH@Z 005a3c10 f i glm.obj
 0002:00090cf0       ??A?$vec@$02_K$01@glm@@QBEAB_KH@Z 005a3cf0 f i glm.obj
 0002:00090dd0       ??A?$vec@$02_K$0A@@glm@@QAEAA_KH@Z 005a3dd0 f i glm.obj
 0002:00090eb0       ??A?$vec@$02_K$0A@@glm@@QBEAB_KH@Z 005a3eb0 f i glm.obj
 0002:00090f90       ??A?$vec@$03C$00@glm@@QAEAACH@Z 005a3f90 f i glm.obj
 0002:00091080       ??A?$vec@$03C$00@glm@@QBEABCH@Z 005a4080 f i glm.obj
 0002:00091170       ??A?$vec@$03C$01@glm@@QAEAACH@Z 005a4170 f i glm.obj
 0002:00091260       ??A?$vec@$03C$01@glm@@QBEABCH@Z 005a4260 f i glm.obj
 0002:00091350       ??A?$vec@$03C$0A@@glm@@QAEAACH@Z 005a4350 f i glm.obj
 0002:00091440       ??A?$vec@$03C$0A@@glm@@QBEABCH@Z 005a4440 f i glm.obj
 0002:00091530       ??A?$vec@$03E$00@glm@@QAEAAEH@Z 005a4530 f i glm.obj
 0002:00091620       ??A?$vec@$03E$00@glm@@QBEABEH@Z 005a4620 f i glm.obj
 0002:00091710       ??A?$vec@$03E$01@glm@@QAEAAEH@Z 005a4710 f i glm.obj
 0002:00091800       ??A?$vec@$03E$01@glm@@QBEABEH@Z 005a4800 f i glm.obj
 0002:000918f0       ??A?$vec@$03E$0A@@glm@@QAEAAEH@Z 005a48f0 f i glm.obj
 0002:000919e0       ??A?$vec@$03E$0A@@glm@@QBEABEH@Z 005a49e0 f i glm.obj
 0002:00091ad0       ??A?$vec@$03F$00@glm@@QAEAAFH@Z 005a4ad0 f i glm.obj
 0002:00091bc0       ??A?$vec@$03F$00@glm@@QBEABFH@Z 005a4bc0 f i glm.obj
 0002:00091cb0       ??A?$vec@$03F$01@glm@@QAEAAFH@Z 005a4cb0 f i glm.obj
 0002:00091da0       ??A?$vec@$03F$01@glm@@QBEABFH@Z 005a4da0 f i glm.obj
 0002:00091e90       ??A?$vec@$03F$0A@@glm@@QAEAAFH@Z 005a4e90 f i glm.obj
 0002:00091f80       ??A?$vec@$03F$0A@@glm@@QBEABFH@Z 005a4f80 f i glm.obj
 0002:00092070       ??A?$vec@$03G$00@glm@@QAEAAGH@Z 005a5070 f i glm.obj
 0002:00092160       ??A?$vec@$03G$00@glm@@QBEABGH@Z 005a5160 f i glm.obj
 0002:00092250       ??A?$vec@$03G$01@glm@@QAEAAGH@Z 005a5250 f i glm.obj
 0002:00092340       ??A?$vec@$03G$01@glm@@QBEABGH@Z 005a5340 f i glm.obj
 0002:00092430       ??A?$vec@$03G$0A@@glm@@QAEAAGH@Z 005a5430 f i glm.obj
 0002:00092520       ??A?$vec@$03G$0A@@glm@@QBEABGH@Z 005a5520 f i glm.obj
 0002:00092610       ??A?$vec@$03H$00@glm@@QAEAAHH@Z 005a5610 f i glm.obj
 0002:00092700       ??A?$vec@$03H$00@glm@@QBEABHH@Z 005a5700 f i glm.obj
 0002:000927f0       ??A?$vec@$03H$01@glm@@QAEAAHH@Z 005a57f0 f i glm.obj
 0002:000928e0       ??A?$vec@$03H$01@glm@@QBEABHH@Z 005a58e0 f i glm.obj
 0002:000929d0       ??A?$vec@$03H$0A@@glm@@QAEAAHH@Z 005a59d0 f i glm.obj
 0002:00092ac0       ??A?$vec@$03H$0A@@glm@@QBEABHH@Z 005a5ac0 f i glm.obj
 0002:00092bb0       ??A?$vec@$03I$00@glm@@QAEAAIH@Z 005a5bb0 f i glm.obj
 0002:00092ca0       ??A?$vec@$03I$00@glm@@QBEABIH@Z 005a5ca0 f i glm.obj
 0002:00092d90       ??A?$vec@$03I$01@glm@@QAEAAIH@Z 005a5d90 f i glm.obj
 0002:00092e80       ??A?$vec@$03I$01@glm@@QBEABIH@Z 005a5e80 f i glm.obj
 0002:00092f70       ??A?$vec@$03I$0A@@glm@@QAEAAIH@Z 005a5f70 f i glm.obj
 0002:00093060       ??A?$vec@$03I$0A@@glm@@QBEABIH@Z 005a6060 f i glm.obj
 0002:00093150       ??A?$vec@$03M$00@glm@@QAEAAMH@Z 005a6150 f i glm.obj
 0002:00093240       ??A?$vec@$03M$00@glm@@QBEABMH@Z 005a6240 f i glm.obj
 0002:00093330       ??A?$vec@$03M$01@glm@@QAEAAMH@Z 005a6330 f i glm.obj
 0002:00093420       ??A?$vec@$03M$01@glm@@QBEABMH@Z 005a6420 f i glm.obj
 0002:00093510       ??A?$vec@$03N$00@glm@@QAEAANH@Z 005a6510 f i glm.obj
 0002:00093600       ??A?$vec@$03N$00@glm@@QBEABNH@Z 005a6600 f i glm.obj
 0002:000936f0       ??A?$vec@$03N$01@glm@@QAEAANH@Z 005a66f0 f i glm.obj
 0002:000937e0       ??A?$vec@$03N$01@glm@@QBEABNH@Z 005a67e0 f i glm.obj
 0002:000938d0       ??A?$vec@$03N$0A@@glm@@QAEAANH@Z 005a68d0 f i glm.obj
 0002:000939c0       ??A?$vec@$03N$0A@@glm@@QBEABNH@Z 005a69c0 f i glm.obj
 0002:00093ab0       ??A?$vec@$03_J$00@glm@@QAEAA_JH@Z 005a6ab0 f i glm.obj
 0002:00093ba0       ??A?$vec@$03_J$00@glm@@QBEAB_JH@Z 005a6ba0 f i glm.obj
 0002:00093c90       ??A?$vec@$03_J$01@glm@@QAEAA_JH@Z 005a6c90 f i glm.obj
 0002:00093d80       ??A?$vec@$03_J$01@glm@@QBEAB_JH@Z 005a6d80 f i glm.obj
 0002:00093e70       ??A?$vec@$03_J$0A@@glm@@QAEAA_JH@Z 005a6e70 f i glm.obj
 0002:00093f60       ??A?$vec@$03_J$0A@@glm@@QBEAB_JH@Z 005a6f60 f i glm.obj
 0002:00094050       ??A?$vec@$03_K$00@glm@@QAEAA_KH@Z 005a7050 f i glm.obj
 0002:00094140       ??A?$vec@$03_K$00@glm@@QBEAB_KH@Z 005a7140 f i glm.obj
 0002:00094230       ??A?$vec@$03_K$01@glm@@QAEAA_KH@Z 005a7230 f i glm.obj
 0002:00094320       ??A?$vec@$03_K$01@glm@@QBEAB_KH@Z 005a7320 f i glm.obj
 0002:00094410       ??A?$vec@$03_K$0A@@glm@@QAEAA_KH@Z 005a7410 f i glm.obj
 0002:00094500       ??A?$vec@$03_K$0A@@glm@@QBEAB_KH@Z 005a7500 f i glm.obj
 0002:000945f0       ??B?$qua@M$00@glm@@QBE?AU?$mat@$02$02M$00@1@XZ 005a75f0 f i glm.obj
 0002:00094660       ??B?$qua@M$00@glm@@QBE?AU?$mat@$03$03M$00@1@XZ 005a7660 f i glm.obj
 0002:000946d0       ??B?$qua@M$01@glm@@QBE?AU?$mat@$02$02M$01@1@XZ 005a76d0 f i glm.obj
 0002:00094740       ??B?$qua@M$01@glm@@QBE?AU?$mat@$03$03M$01@1@XZ 005a7740 f i glm.obj
 0002:000947b0       ??B?$qua@M$0A@@glm@@QBE?AU?$mat@$02$02M$0A@@1@XZ 005a77b0 f i glm.obj
 0002:00094820       ??B?$qua@M$0A@@glm@@QBE?AU?$mat@$03$03M$0A@@1@XZ 005a7820 f i glm.obj
 0002:00094890       ??B?$qua@N$00@glm@@QBE?AU?$mat@$02$02N$00@1@XZ 005a7890 f i glm.obj
 0002:00094900       ??B?$qua@N$00@glm@@QBE?AU?$mat@$03$03N$00@1@XZ 005a7900 f i glm.obj
 0002:00094970       ??B?$qua@N$01@glm@@QBE?AU?$mat@$02$02N$01@1@XZ 005a7970 f i glm.obj
 0002:000949e0       ??B?$qua@N$01@glm@@QBE?AU?$mat@$03$03N$01@1@XZ 005a79e0 f i glm.obj
 0002:00094a50       ??B?$qua@N$0A@@glm@@QBE?AU?$mat@$02$02N$0A@@1@XZ 005a7a50 f i glm.obj
 0002:00094ac0       ??B?$qua@N$0A@@glm@@QBE?AU?$mat@$03$03N$0A@@1@XZ 005a7ac0 f i glm.obj
 0002:00094b30       ??E?$mat@$01$01M$00@glm@@QAE?AU01@H@Z 005a7b30 f i glm.obj
 0002:00094c10       ??E?$mat@$01$01M$00@glm@@QAEAAU01@XZ 005a7c10 f i glm.obj
 0002:00094c90       ??E?$mat@$01$01M$01@glm@@QAE?AU01@H@Z 005a7c90 f i glm.obj
 0002:00094d70       ??E?$mat@$01$01M$01@glm@@QAEAAU01@XZ 005a7d70 f i glm.obj
 0002:00094df0       ??E?$mat@$01$01M$0A@@glm@@QAE?AU01@H@Z 005a7df0 f i glm.obj
 0002:00094ed0       ??E?$mat@$01$01M$0A@@glm@@QAEAAU01@XZ 005a7ed0 f i glm.obj
 0002:00094f50       ??E?$mat@$01$01N$00@glm@@QAE?AU01@H@Z 005a7f50 f i glm.obj
 0002:00095020       ??E?$mat@$01$01N$00@glm@@QAEAAU01@XZ 005a8020 f i glm.obj
 0002:000950a0       ??E?$mat@$01$01N$01@glm@@QAE?AU01@H@Z 005a80a0 f i glm.obj
 0002:00095170       ??E?$mat@$01$01N$01@glm@@QAEAAU01@XZ 005a8170 f i glm.obj
 0002:000951f0       ??E?$mat@$01$01N$0A@@glm@@QAE?AU01@H@Z 005a81f0 f i glm.obj
 0002:000952c0       ??E?$mat@$01$01N$0A@@glm@@QAEAAU01@XZ 005a82c0 f i glm.obj
 0002:00095340       ??E?$mat@$01$02M$00@glm@@QAE?AU01@H@Z 005a8340 f i glm.obj
 0002:00095430       ??E?$mat@$01$02M$00@glm@@QAEAAU01@XZ 005a8430 f i glm.obj
 0002:000954b0       ??E?$mat@$01$02M$01@glm@@QAE?AU01@H@Z 005a84b0 f i glm.obj
 0002:000955a0       ??E?$mat@$01$02M$01@glm@@QAEAAU01@XZ 005a85a0 f i glm.obj
 0002:00095620       ??E?$mat@$01$02M$0A@@glm@@QAE?AU01@H@Z 005a8620 f i glm.obj
 0002:00095710       ??E?$mat@$01$02M$0A@@glm@@QAEAAU01@XZ 005a8710 f i glm.obj
 0002:00095790       ??E?$mat@$01$02N$00@glm@@QAE?AU01@H@Z 005a8790 f i glm.obj
 0002:00095860       ??E?$mat@$01$02N$00@glm@@QAEAAU01@XZ 005a8860 f i glm.obj
 0002:000958e0       ??E?$mat@$01$02N$01@glm@@QAE?AU01@H@Z 005a88e0 f i glm.obj
 0002:000959b0       ??E?$mat@$01$02N$01@glm@@QAEAAU01@XZ 005a89b0 f i glm.obj
 0002:00095a30       ??E?$mat@$01$02N$0A@@glm@@QAE?AU01@H@Z 005a8a30 f i glm.obj
 0002:00095b00       ??E?$mat@$01$02N$0A@@glm@@QAEAAU01@XZ 005a8b00 f i glm.obj
 0002:00095b80       ??E?$mat@$01$03M$00@glm@@QAE?AU01@H@Z 005a8b80 f i glm.obj
 0002:00095c50       ??E?$mat@$01$03M$00@glm@@QAEAAU01@XZ 005a8c50 f i glm.obj
 0002:00095cd0       ??E?$mat@$01$03M$01@glm@@QAE?AU01@H@Z 005a8cd0 f i glm.obj
 0002:00095da0       ??E?$mat@$01$03M$01@glm@@QAEAAU01@XZ 005a8da0 f i glm.obj
 0002:00095e20       ??E?$mat@$01$03M$0A@@glm@@QAE?AU01@H@Z 005a8e20 f i glm.obj
 0002:00095ef0       ??E?$mat@$01$03M$0A@@glm@@QAEAAU01@XZ 005a8ef0 f i glm.obj
 0002:00095f70       ??E?$mat@$01$03N$00@glm@@QAE?AU01@H@Z 005a8f70 f i glm.obj
 0002:00096040       ??E?$mat@$01$03N$00@glm@@QAEAAU01@XZ 005a9040 f i glm.obj
 0002:000960c0       ??E?$mat@$01$03N$01@glm@@QAE?AU01@H@Z 005a90c0 f i glm.obj
 0002:00096190       ??E?$mat@$01$03N$01@glm@@QAEAAU01@XZ 005a9190 f i glm.obj
 0002:00096210       ??E?$mat@$01$03N$0A@@glm@@QAE?AU01@H@Z 005a9210 f i glm.obj
 0002:000962e0       ??E?$mat@$01$03N$0A@@glm@@QAEAAU01@XZ 005a92e0 f i glm.obj
 0002:00096360       ??E?$mat@$02$01M$00@glm@@QAE?AU01@H@Z 005a9360 f i glm.obj
 0002:00096450       ??E?$mat@$02$01M$00@glm@@QAEAAU01@XZ 005a9450 f i glm.obj
 0002:000964e0       ??E?$mat@$02$01M$01@glm@@QAE?AU01@H@Z 005a94e0 f i glm.obj
 0002:000965d0       ??E?$mat@$02$01M$01@glm@@QAEAAU01@XZ 005a95d0 f i glm.obj
 0002:00096660       ??E?$mat@$02$01M$0A@@glm@@QAE?AU01@H@Z 005a9660 f i glm.obj
 0002:00096750       ??E?$mat@$02$01M$0A@@glm@@QAEAAU01@XZ 005a9750 f i glm.obj
 0002:000967e0       ??E?$mat@$02$01N$00@glm@@QAE?AU01@H@Z 005a97e0 f i glm.obj
 0002:000968b0       ??E?$mat@$02$01N$00@glm@@QAEAAU01@XZ 005a98b0 f i glm.obj
 0002:00096940       ??E?$mat@$02$01N$01@glm@@QAE?AU01@H@Z 005a9940 f i glm.obj
 0002:00096a10       ??E?$mat@$02$01N$01@glm@@QAEAAU01@XZ 005a9a10 f i glm.obj
 0002:00096aa0       ??E?$mat@$02$01N$0A@@glm@@QAE?AU01@H@Z 005a9aa0 f i glm.obj
 0002:00096b70       ??E?$mat@$02$01N$0A@@glm@@QAEAAU01@XZ 005a9b70 f i glm.obj
 0002:00096c00       ??E?$mat@$02$02M$00@glm@@QAE?AU01@H@Z 005a9c00 f i glm.obj
 0002:00096cd0       ??E?$mat@$02$02M$00@glm@@QAEAAU01@XZ 005a9cd0 f i glm.obj
 0002:00096d60       ??E?$mat@$02$02M$01@glm@@QAE?AU01@H@Z 005a9d60 f i glm.obj
 0002:00096e30       ??E?$mat@$02$02M$01@glm@@QAEAAU01@XZ 005a9e30 f i glm.obj
 0002:00096ec0       ??E?$mat@$02$02M$0A@@glm@@QAE?AU01@H@Z 005a9ec0 f i glm.obj
 0002:00096f90       ??E?$mat@$02$02M$0A@@glm@@QAEAAU01@XZ 005a9f90 f i glm.obj
 0002:00097020       ??E?$mat@$02$02N$00@glm@@QAE?AU01@H@Z 005aa020 f i glm.obj
 0002:000970f0       ??E?$mat@$02$02N$00@glm@@QAEAAU01@XZ 005aa0f0 f i glm.obj
 0002:00097180       ??E?$mat@$02$02N$01@glm@@QAE?AU01@H@Z 005aa180 f i glm.obj
 0002:00097250       ??E?$mat@$02$02N$01@glm@@QAEAAU01@XZ 005aa250 f i glm.obj
 0002:000972e0       ??E?$mat@$02$02N$0A@@glm@@QAE?AU01@H@Z 005aa2e0 f i glm.obj
 0002:000973b0       ??E?$mat@$02$02N$0A@@glm@@QAEAAU01@XZ 005aa3b0 f i glm.obj
 0002:00097440       ??E?$mat@$02$03M$00@glm@@QAE?AU01@H@Z 005aa440 f i glm.obj
 0002:00097510       ??E?$mat@$02$03M$00@glm@@QAEAAU01@XZ 005aa510 f i glm.obj
 0002:000975a0       ??E?$mat@$02$03M$01@glm@@QAE?AU01@H@Z 005aa5a0 f i glm.obj
 0002:00097670       ??E?$mat@$02$03M$01@glm@@QAEAAU01@XZ 005aa670 f i glm.obj
 0002:00097700       ??E?$mat@$02$03M$0A@@glm@@QAE?AU01@H@Z 005aa700 f i glm.obj
 0002:000977d0       ??E?$mat@$02$03M$0A@@glm@@QAEAAU01@XZ 005aa7d0 f i glm.obj
 0002:00097860       ??E?$mat@$02$03N$00@glm@@QAE?AU01@H@Z 005aa860 f i glm.obj
 0002:00097930       ??E?$mat@$02$03N$00@glm@@QAEAAU01@XZ 005aa930 f i glm.obj
 0002:000979c0       ??E?$mat@$02$03N$01@glm@@QAE?AU01@H@Z 005aa9c0 f i glm.obj
 0002:00097a90       ??E?$mat@$02$03N$01@glm@@QAEAAU01@XZ 005aaa90 f i glm.obj
 0002:00097b20       ??E?$mat@$02$03N$0A@@glm@@QAE?AU01@H@Z 005aab20 f i glm.obj
 0002:00097bf0       ??E?$mat@$02$03N$0A@@glm@@QAEAAU01@XZ 005aabf0 f i glm.obj
 0002:00097c80       ??E?$mat@$03$01M$00@glm@@QAE?AU01@H@Z 005aac80 f i glm.obj
 0002:00097d50       ??E?$mat@$03$01M$00@glm@@QAEAAU01@XZ 005aad50 f i glm.obj
 0002:00097df0       ??E?$mat@$03$01M$01@glm@@QAE?AU01@H@Z 005aadf0 f i glm.obj
 0002:00097ec0       ??E?$mat@$03$01M$01@glm@@QAEAAU01@XZ 005aaec0 f i glm.obj
 0002:00097f60       ??E?$mat@$03$01M$0A@@glm@@QAE?AU01@H@Z 005aaf60 f i glm.obj
 0002:00098030       ??E?$mat@$03$01M$0A@@glm@@QAEAAU01@XZ 005ab030 f i glm.obj
 0002:000980d0       ??E?$mat@$03$01N$00@glm@@QAE?AU01@H@Z 005ab0d0 f i glm.obj
 0002:000981a0       ??E?$mat@$03$01N$00@glm@@QAEAAU01@XZ 005ab1a0 f i glm.obj
 0002:00098240       ??E?$mat@$03$01N$01@glm@@QAE?AU01@H@Z 005ab240 f i glm.obj
 0002:00098310       ??E?$mat@$03$01N$01@glm@@QAEAAU01@XZ 005ab310 f i glm.obj
 0002:000983b0       ??E?$mat@$03$01N$0A@@glm@@QAE?AU01@H@Z 005ab3b0 f i glm.obj
 0002:00098480       ??E?$mat@$03$01N$0A@@glm@@QAEAAU01@XZ 005ab480 f i glm.obj
 0002:00098520       ??E?$mat@$03$02M$00@glm@@QAE?AU01@H@Z 005ab520 f i glm.obj
 0002:000985f0       ??E?$mat@$03$02M$00@glm@@QAEAAU01@XZ 005ab5f0 f i glm.obj
 0002:00098690       ??E?$mat@$03$02M$01@glm@@QAE?AU01@H@Z 005ab690 f i glm.obj
 0002:00098760       ??E?$mat@$03$02M$01@glm@@QAEAAU01@XZ 005ab760 f i glm.obj
 0002:00098800       ??E?$mat@$03$02M$0A@@glm@@QAE?AU01@H@Z 005ab800 f i glm.obj
 0002:000988d0       ??E?$mat@$03$02M$0A@@glm@@QAEAAU01@XZ 005ab8d0 f i glm.obj
 0002:00098970       ??E?$mat@$03$02N$00@glm@@QAE?AU01@H@Z 005ab970 f i glm.obj
 0002:00098a40       ??E?$mat@$03$02N$00@glm@@QAEAAU01@XZ 005aba40 f i glm.obj
 0002:00098ae0       ??E?$mat@$03$02N$01@glm@@QAE?AU01@H@Z 005abae0 f i glm.obj
 0002:00098bb0       ??E?$mat@$03$02N$01@glm@@QAEAAU01@XZ 005abbb0 f i glm.obj
 0002:00098c50       ??E?$mat@$03$02N$0A@@glm@@QAE?AU01@H@Z 005abc50 f i glm.obj
 0002:00098d20       ??E?$mat@$03$02N$0A@@glm@@QAEAAU01@XZ 005abd20 f i glm.obj
 0002:00098dc0       ??E?$mat@$03$03M$00@glm@@QAE?AU01@H@Z 005abdc0 f i glm.obj
 0002:00098e90       ??E?$mat@$03$03M$00@glm@@QAEAAU01@XZ 005abe90 f i glm.obj
 0002:00098f30       ??E?$mat@$03$03M$01@glm@@QAE?AU01@H@Z 005abf30 f i glm.obj
 0002:00099000       ??E?$mat@$03$03M$01@glm@@QAEAAU01@XZ 005ac000 f i glm.obj
 0002:000990a0       ??E?$mat@$03$03M$0A@@glm@@QAE?AU01@H@Z 005ac0a0 f i glm.obj
 0002:00099170       ??E?$mat@$03$03M$0A@@glm@@QAEAAU01@XZ 005ac170 f i glm.obj
 0002:00099210       ??E?$mat@$03$03N$00@glm@@QAE?AU01@H@Z 005ac210 f i glm.obj
 0002:000992e0       ??E?$mat@$03$03N$00@glm@@QAEAAU01@XZ 005ac2e0 f i glm.obj
 0002:00099380       ??E?$mat@$03$03N$01@glm@@QAE?AU01@H@Z 005ac380 f i glm.obj
 0002:00099450       ??E?$mat@$03$03N$01@glm@@QAEAAU01@XZ 005ac450 f i glm.obj
 0002:000994f0       ??E?$mat@$03$03N$0A@@glm@@QAE?AU01@H@Z 005ac4f0 f i glm.obj
 0002:000995c0       ??E?$mat@$03$03N$0A@@glm@@QAEAAU01@XZ 005ac5c0 f i glm.obj
 0002:00099660       ??E?$vec@$00C$00@glm@@QAE?AU01@H@Z 005ac660 f i glm.obj
 0002:00099720       ??E?$vec@$00C$00@glm@@QAEAAU01@XZ 005ac720 f i glm.obj
 0002:00099790       ??E?$vec@$00C$01@glm@@QAE?AU01@H@Z 005ac790 f i glm.obj
 0002:00099850       ??E?$vec@$00C$01@glm@@QAEAAU01@XZ 005ac850 f i glm.obj
 0002:000998c0       ??E?$vec@$00C$0A@@glm@@QAE?AU01@H@Z 005ac8c0 f i glm.obj
 0002:00099980       ??E?$vec@$00C$0A@@glm@@QAEAAU01@XZ 005ac980 f i glm.obj
 0002:000999f0       ??E?$vec@$00E$00@glm@@QAE?AU01@H@Z 005ac9f0 f i glm.obj
 0002:00099ab0       ??E?$vec@$00E$00@glm@@QAEAAU01@XZ 005acab0 f i glm.obj
 0002:00099b20       ??E?$vec@$00E$01@glm@@QAE?AU01@H@Z 005acb20 f i glm.obj
 0002:00099be0       ??E?$vec@$00E$01@glm@@QAEAAU01@XZ 005acbe0 f i glm.obj
 0002:00099c50       ??E?$vec@$00E$0A@@glm@@QAE?AU01@H@Z 005acc50 f i glm.obj
 0002:00099d10       ??E?$vec@$00E$0A@@glm@@QAEAAU01@XZ 005acd10 f i glm.obj
 0002:00099d80       ??E?$vec@$00F$00@glm@@QAE?AU01@H@Z 005acd80 f i glm.obj
 0002:00099e40       ??E?$vec@$00F$00@glm@@QAEAAU01@XZ 005ace40 f i glm.obj
 0002:00099eb0       ??E?$vec@$00F$01@glm@@QAE?AU01@H@Z 005aceb0 f i glm.obj
 0002:00099f70       ??E?$vec@$00F$01@glm@@QAEAAU01@XZ 005acf70 f i glm.obj
 0002:00099fe0       ??E?$vec@$00F$0A@@glm@@QAE?AU01@H@Z 005acfe0 f i glm.obj
 0002:0009a0a0       ??E?$vec@$00F$0A@@glm@@QAEAAU01@XZ 005ad0a0 f i glm.obj
 0002:0009a110       ??E?$vec@$00G$00@glm@@QAE?AU01@H@Z 005ad110 f i glm.obj
 0002:0009a1d0       ??E?$vec@$00G$00@glm@@QAEAAU01@XZ 005ad1d0 f i glm.obj
 0002:0009a240       ??E?$vec@$00G$01@glm@@QAE?AU01@H@Z 005ad240 f i glm.obj
 0002:0009a300       ??E?$vec@$00G$01@glm@@QAEAAU01@XZ 005ad300 f i glm.obj
 0002:0009a370       ??E?$vec@$00G$0A@@glm@@QAE?AU01@H@Z 005ad370 f i glm.obj
 0002:0009a430       ??E?$vec@$00G$0A@@glm@@QAEAAU01@XZ 005ad430 f i glm.obj
 0002:0009a4a0       ??E?$vec@$00H$00@glm@@QAE?AU01@H@Z 005ad4a0 f i glm.obj
 0002:0009a560       ??E?$vec@$00H$00@glm@@QAEAAU01@XZ 005ad560 f i glm.obj
 0002:0009a5d0       ??E?$vec@$00H$01@glm@@QAE?AU01@H@Z 005ad5d0 f i glm.obj
 0002:0009a690       ??E?$vec@$00H$01@glm@@QAEAAU01@XZ 005ad690 f i glm.obj
 0002:0009a700       ??E?$vec@$00H$0A@@glm@@QAE?AU01@H@Z 005ad700 f i glm.obj
 0002:0009a7c0       ??E?$vec@$00H$0A@@glm@@QAEAAU01@XZ 005ad7c0 f i glm.obj
 0002:0009a830       ??E?$vec@$00I$00@glm@@QAE?AU01@H@Z 005ad830 f i glm.obj
 0002:0009a8f0       ??E?$vec@$00I$00@glm@@QAEAAU01@XZ 005ad8f0 f i glm.obj
 0002:0009a960       ??E?$vec@$00I$01@glm@@QAE?AU01@H@Z 005ad960 f i glm.obj
 0002:0009aa20       ??E?$vec@$00I$01@glm@@QAEAAU01@XZ 005ada20 f i glm.obj
 0002:0009aa90       ??E?$vec@$00I$0A@@glm@@QAE?AU01@H@Z 005ada90 f i glm.obj
 0002:0009ab50       ??E?$vec@$00I$0A@@glm@@QAEAAU01@XZ 005adb50 f i glm.obj
 0002:0009abc0       ??E?$vec@$00M$00@glm@@QAE?AU01@H@Z 005adbc0 f i glm.obj
 0002:0009ac80       ??E?$vec@$00M$00@glm@@QAEAAU01@XZ 005adc80 f i glm.obj
 0002:0009acf0       ??E?$vec@$00M$01@glm@@QAE?AU01@H@Z 005adcf0 f i glm.obj
 0002:0009adb0       ??E?$vec@$00M$01@glm@@QAEAAU01@XZ 005addb0 f i glm.obj
 0002:0009ae20       ??E?$vec@$00M$0A@@glm@@QAE?AU01@H@Z 005ade20 f i glm.obj
 0002:0009aee0       ??E?$vec@$00M$0A@@glm@@QAEAAU01@XZ 005adee0 f i glm.obj
 0002:0009af50       ??E?$vec@$00N$00@glm@@QAE?AU01@H@Z 005adf50 f i glm.obj
 0002:0009b020       ??E?$vec@$00N$00@glm@@QAEAAU01@XZ 005ae020 f i glm.obj
 0002:0009b090       ??E?$vec@$00N$01@glm@@QAE?AU01@H@Z 005ae090 f i glm.obj
 0002:0009b160       ??E?$vec@$00N$01@glm@@QAEAAU01@XZ 005ae160 f i glm.obj
 0002:0009b1d0       ??E?$vec@$00N$0A@@glm@@QAE?AU01@H@Z 005ae1d0 f i glm.obj
 0002:0009b2a0       ??E?$vec@$00N$0A@@glm@@QAEAAU01@XZ 005ae2a0 f i glm.obj
 0002:0009b310       ??E?$vec@$00_J$00@glm@@QAE?AU01@H@Z 005ae310 f i glm.obj
 0002:0009b3e0       ??E?$vec@$00_J$00@glm@@QAEAAU01@XZ 005ae3e0 f i glm.obj
 0002:0009b450       ??E?$vec@$00_J$01@glm@@QAE?AU01@H@Z 005ae450 f i glm.obj
 0002:0009b520       ??E?$vec@$00_J$01@glm@@QAEAAU01@XZ 005ae520 f i glm.obj
 0002:0009b590       ??E?$vec@$00_J$0A@@glm@@QAE?AU01@H@Z 005ae590 f i glm.obj
 0002:0009b660       ??E?$vec@$00_J$0A@@glm@@QAEAAU01@XZ 005ae660 f i glm.obj
 0002:0009b6d0       ??E?$vec@$00_K$00@glm@@QAE?AU01@H@Z 005ae6d0 f i glm.obj
 0002:0009b7a0       ??E?$vec@$00_K$00@glm@@QAEAAU01@XZ 005ae7a0 f i glm.obj
 0002:0009b810       ??E?$vec@$00_K$01@glm@@QAE?AU01@H@Z 005ae810 f i glm.obj
 0002:0009b8e0       ??E?$vec@$00_K$01@glm@@QAEAAU01@XZ 005ae8e0 f i glm.obj
 0002:0009b950       ??E?$vec@$00_K$0A@@glm@@QAE?AU01@H@Z 005ae950 f i glm.obj
 0002:0009ba20       ??E?$vec@$00_K$0A@@glm@@QAEAAU01@XZ 005aea20 f i glm.obj
 0002:0009ba90       ??E?$vec@$01C$00@glm@@QAE?AU01@H@Z 005aea90 f i glm.obj
 0002:0009bb50       ??E?$vec@$01C$00@glm@@QAEAAU01@XZ 005aeb50 f i glm.obj
 0002:0009bbd0       ??E?$vec@$01C$01@glm@@QAE?AU01@H@Z 005aebd0 f i glm.obj
 0002:0009bc90       ??E?$vec@$01C$01@glm@@QAEAAU01@XZ 005aec90 f i glm.obj
 0002:0009bd10       ??E?$vec@$01C$0A@@glm@@QAE?AU01@H@Z 005aed10 f i glm.obj
 0002:0009bdd0       ??E?$vec@$01C$0A@@glm@@QAEAAU01@XZ 005aedd0 f i glm.obj
 0002:0009be50       ??E?$vec@$01E$00@glm@@QAE?AU01@H@Z 005aee50 f i glm.obj
 0002:0009bf10       ??E?$vec@$01E$00@glm@@QAEAAU01@XZ 005aef10 f i glm.obj
 0002:0009bf90       ??E?$vec@$01E$01@glm@@QAE?AU01@H@Z 005aef90 f i glm.obj
 0002:0009c050       ??E?$vec@$01E$01@glm@@QAEAAU01@XZ 005af050 f i glm.obj
 0002:0009c0d0       ??E?$vec@$01E$0A@@glm@@QAE?AU01@H@Z 005af0d0 f i glm.obj
 0002:0009c190       ??E?$vec@$01E$0A@@glm@@QAEAAU01@XZ 005af190 f i glm.obj
 0002:0009c210       ??E?$vec@$01F$00@glm@@QAE?AU01@H@Z 005af210 f i glm.obj
 0002:0009c2d0       ??E?$vec@$01F$00@glm@@QAEAAU01@XZ 005af2d0 f i glm.obj
 0002:0009c350       ??E?$vec@$01F$01@glm@@QAE?AU01@H@Z 005af350 f i glm.obj
 0002:0009c410       ??E?$vec@$01F$01@glm@@QAEAAU01@XZ 005af410 f i glm.obj
 0002:0009c490       ??E?$vec@$01F$0A@@glm@@QAE?AU01@H@Z 005af490 f i glm.obj
 0002:0009c550       ??E?$vec@$01F$0A@@glm@@QAEAAU01@XZ 005af550 f i glm.obj
 0002:0009c5d0       ??E?$vec@$01G$00@glm@@QAE?AU01@H@Z 005af5d0 f i glm.obj
 0002:0009c690       ??E?$vec@$01G$00@glm@@QAEAAU01@XZ 005af690 f i glm.obj
 0002:0009c710       ??E?$vec@$01G$01@glm@@QAE?AU01@H@Z 005af710 f i glm.obj
 0002:0009c7d0       ??E?$vec@$01G$01@glm@@QAEAAU01@XZ 005af7d0 f i glm.obj
 0002:0009c850       ??E?$vec@$01G$0A@@glm@@QAE?AU01@H@Z 005af850 f i glm.obj
 0002:0009c910       ??E?$vec@$01G$0A@@glm@@QAEAAU01@XZ 005af910 f i glm.obj
 0002:0009c990       ??E?$vec@$01H$00@glm@@QAE?AU01@H@Z 005af990 f i glm.obj
 0002:0009ca60       ??E?$vec@$01H$00@glm@@QAEAAU01@XZ 005afa60 f i glm.obj
 0002:0009cae0       ??E?$vec@$01H$01@glm@@QAE?AU01@H@Z 005afae0 f i glm.obj
 0002:0009cbb0       ??E?$vec@$01H$01@glm@@QAEAAU01@XZ 005afbb0 f i glm.obj
 0002:0009cc30       ??E?$vec@$01H$0A@@glm@@QAE?AU01@H@Z 005afc30 f i glm.obj
 0002:0009cd00       ??E?$vec@$01H$0A@@glm@@QAEAAU01@XZ 005afd00 f i glm.obj
 0002:0009cd80       ??E?$vec@$01I$00@glm@@QAE?AU01@H@Z 005afd80 f i glm.obj
 0002:0009ce50       ??E?$vec@$01I$00@glm@@QAEAAU01@XZ 005afe50 f i glm.obj
 0002:0009ced0       ??E?$vec@$01I$01@glm@@QAE?AU01@H@Z 005afed0 f i glm.obj
 0002:0009cfa0       ??E?$vec@$01I$01@glm@@QAEAAU01@XZ 005affa0 f i glm.obj
 0002:0009d020       ??E?$vec@$01I$0A@@glm@@QAE?AU01@H@Z 005b0020 f i glm.obj
 0002:0009d0f0       ??E?$vec@$01I$0A@@glm@@QAEAAU01@XZ 005b00f0 f i glm.obj
 0002:0009d170       ??E?$vec@$01M$00@glm@@QAE?AU01@H@Z 005b0170 f i glm.obj
 0002:0009d240       ??E?$vec@$01M$00@glm@@QAEAAU01@XZ 005b0240 f i glm.obj
 0002:0009d2d0       ??E?$vec@$01M$01@glm@@QAE?AU01@H@Z 005b02d0 f i glm.obj
 0002:0009d3a0       ??E?$vec@$01M$01@glm@@QAEAAU01@XZ 005b03a0 f i glm.obj
 0002:0009d430       ??E?$vec@$01M$0A@@glm@@QAE?AU01@H@Z 005b0430 f i glm.obj
 0002:0009d500       ??E?$vec@$01M$0A@@glm@@QAEAAU01@XZ 005b0500 f i glm.obj
 0002:0009d590       ??E?$vec@$01N$00@glm@@QAE?AU01@H@Z 005b0590 f i glm.obj
 0002:0009d670       ??E?$vec@$01N$00@glm@@QAEAAU01@XZ 005b0670 f i glm.obj
 0002:0009d700       ??E?$vec@$01N$01@glm@@QAE?AU01@H@Z 005b0700 f i glm.obj
 0002:0009d7e0       ??E?$vec@$01N$01@glm@@QAEAAU01@XZ 005b07e0 f i glm.obj
 0002:0009d870       ??E?$vec@$01N$0A@@glm@@QAE?AU01@H@Z 005b0870 f i glm.obj
 0002:0009d950       ??E?$vec@$01N$0A@@glm@@QAEAAU01@XZ 005b0950 f i glm.obj
 0002:0009d9e0       ??E?$vec@$01_J$00@glm@@QAE?AU01@H@Z 005b09e0 f i glm.obj
 0002:0009dac0       ??E?$vec@$01_J$00@glm@@QAEAAU01@XZ 005b0ac0 f i glm.obj
 0002:0009db50       ??E?$vec@$01_J$01@glm@@QAE?AU01@H@Z 005b0b50 f i glm.obj
 0002:0009dc30       ??E?$vec@$01_J$01@glm@@QAEAAU01@XZ 005b0c30 f i glm.obj
 0002:0009dcc0       ??E?$vec@$01_J$0A@@glm@@QAE?AU01@H@Z 005b0cc0 f i glm.obj
 0002:0009dda0       ??E?$vec@$01_J$0A@@glm@@QAEAAU01@XZ 005b0da0 f i glm.obj
 0002:0009de30       ??E?$vec@$01_K$00@glm@@QAE?AU01@H@Z 005b0e30 f i glm.obj
 0002:0009df10       ??E?$vec@$01_K$00@glm@@QAEAAU01@XZ 005b0f10 f i glm.obj
 0002:0009dfa0       ??E?$vec@$01_K$01@glm@@QAE?AU01@H@Z 005b0fa0 f i glm.obj
 0002:0009e080       ??E?$vec@$01_K$01@glm@@QAEAAU01@XZ 005b1080 f i glm.obj
 0002:0009e110       ??E?$vec@$01_K$0A@@glm@@QAE?AU01@H@Z 005b1110 f i glm.obj
 0002:0009e1f0       ??E?$vec@$01_K$0A@@glm@@QAEAAU01@XZ 005b11f0 f i glm.obj
 0002:0009e280       ??E?$vec@$02C$00@glm@@QAE?AU01@H@Z 005b1280 f i glm.obj
 0002:0009e350       ??E?$vec@$02C$00@glm@@QAEAAU01@XZ 005b1350 f i glm.obj
 0002:0009e3e0       ??E?$vec@$02C$01@glm@@QAE?AU01@H@Z 005b13e0 f i glm.obj
 0002:0009e4b0       ??E?$vec@$02C$01@glm@@QAEAAU01@XZ 005b14b0 f i glm.obj
 0002:0009e540       ??E?$vec@$02C$0A@@glm@@QAE?AU01@H@Z 005b1540 f i glm.obj
 0002:0009e610       ??E?$vec@$02C$0A@@glm@@QAEAAU01@XZ 005b1610 f i glm.obj
 0002:0009e6a0       ??E?$vec@$02E$00@glm@@QAE?AU01@H@Z 005b16a0 f i glm.obj
 0002:0009e770       ??E?$vec@$02E$00@glm@@QAEAAU01@XZ 005b1770 f i glm.obj
 0002:0009e800       ??E?$vec@$02E$01@glm@@QAE?AU01@H@Z 005b1800 f i glm.obj
 0002:0009e8d0       ??E?$vec@$02E$01@glm@@QAEAAU01@XZ 005b18d0 f i glm.obj
 0002:0009e960       ??E?$vec@$02E$0A@@glm@@QAE?AU01@H@Z 005b1960 f i glm.obj
 0002:0009ea30       ??E?$vec@$02E$0A@@glm@@QAEAAU01@XZ 005b1a30 f i glm.obj
 0002:0009eac0       ??E?$vec@$02F$00@glm@@QAE?AU01@H@Z 005b1ac0 f i glm.obj
 0002:0009eb90       ??E?$vec@$02F$00@glm@@QAEAAU01@XZ 005b1b90 f i glm.obj
 0002:0009ec30       ??E?$vec@$02F$01@glm@@QAE?AU01@H@Z 005b1c30 f i glm.obj
 0002:0009ed00       ??E?$vec@$02F$01@glm@@QAEAAU01@XZ 005b1d00 f i glm.obj
 0002:0009eda0       ??E?$vec@$02F$0A@@glm@@QAE?AU01@H@Z 005b1da0 f i glm.obj
 0002:0009ee70       ??E?$vec@$02F$0A@@glm@@QAEAAU01@XZ 005b1e70 f i glm.obj
 0002:0009ef10       ??E?$vec@$02G$00@glm@@QAE?AU01@H@Z 005b1f10 f i glm.obj
 0002:0009efe0       ??E?$vec@$02G$00@glm@@QAEAAU01@XZ 005b1fe0 f i glm.obj
 0002:0009f080       ??E?$vec@$02G$01@glm@@QAE?AU01@H@Z 005b2080 f i glm.obj
 0002:0009f150       ??E?$vec@$02G$01@glm@@QAEAAU01@XZ 005b2150 f i glm.obj
 0002:0009f1f0       ??E?$vec@$02G$0A@@glm@@QAE?AU01@H@Z 005b21f0 f i glm.obj
 0002:0009f2c0       ??E?$vec@$02G$0A@@glm@@QAEAAU01@XZ 005b22c0 f i glm.obj
 0002:0009f360       ??E?$vec@$02H$00@glm@@QAE?AU01@H@Z 005b2360 f i glm.obj
 0002:0009f430       ??E?$vec@$02H$00@glm@@QAEAAU01@XZ 005b2430 f i glm.obj
 0002:0009f4c0       ??E?$vec@$02H$01@glm@@QAE?AU01@H@Z 005b24c0 f i glm.obj
 0002:0009f590       ??E?$vec@$02H$01@glm@@QAEAAU01@XZ 005b2590 f i glm.obj
 0002:0009f620       ??E?$vec@$02H$0A@@glm@@QAE?AU01@H@Z 005b2620 f i glm.obj
 0002:0009f6f0       ??E?$vec@$02H$0A@@glm@@QAEAAU01@XZ 005b26f0 f i glm.obj
 0002:0009f780       ??E?$vec@$02I$00@glm@@QAE?AU01@H@Z 005b2780 f i glm.obj
 0002:0009f850       ??E?$vec@$02I$00@glm@@QAEAAU01@XZ 005b2850 f i glm.obj
 0002:0009f8e0       ??E?$vec@$02I$01@glm@@QAE?AU01@H@Z 005b28e0 f i glm.obj
 0002:0009f9b0       ??E?$vec@$02I$01@glm@@QAEAAU01@XZ 005b29b0 f i glm.obj
 0002:0009fa40       ??E?$vec@$02I$0A@@glm@@QAE?AU01@H@Z 005b2a40 f i glm.obj
 0002:0009fb10       ??E?$vec@$02I$0A@@glm@@QAEAAU01@XZ 005b2b10 f i glm.obj
 0002:0009fba0       ??E?$vec@$02M$00@glm@@QAE?AU01@H@Z 005b2ba0 f i glm.obj
 0002:0009fc70       ??E?$vec@$02M$00@glm@@QAEAAU01@XZ 005b2c70 f i glm.obj
 0002:0009fd20       ??E?$vec@$02M$01@glm@@QAE?AU01@H@Z 005b2d20 f i glm.obj
 0002:0009fdf0       ??E?$vec@$02M$01@glm@@QAEAAU01@XZ 005b2df0 f i glm.obj
 0002:0009fea0       ??E?$vec@$02M$0A@@glm@@QAE?AU01@H@Z 005b2ea0 f i glm.obj
 0002:0009ff70       ??E?$vec@$02M$0A@@glm@@QAEAAU01@XZ 005b2f70 f i glm.obj
 0002:000a0020       ??E?$vec@$02N$00@glm@@QAE?AU01@H@Z 005b3020 f i glm.obj
 0002:000a0110       ??E?$vec@$02N$00@glm@@QAEAAU01@XZ 005b3110 f i glm.obj
 0002:000a01c0       ??E?$vec@$02N$01@glm@@QAE?AU01@H@Z 005b31c0 f i glm.obj
 0002:000a02b0       ??E?$vec@$02N$01@glm@@QAEAAU01@XZ 005b32b0 f i glm.obj
 0002:000a0360       ??E?$vec@$02N$0A@@glm@@QAE?AU01@H@Z 005b3360 f i glm.obj
 0002:000a0450       ??E?$vec@$02N$0A@@glm@@QAEAAU01@XZ 005b3450 f i glm.obj
 0002:000a0500       ??E?$vec@$02_J$00@glm@@QAE?AU01@H@Z 005b3500 f i glm.obj
 0002:000a05f0       ??E?$vec@$02_J$00@glm@@QAEAAU01@XZ 005b35f0 f i glm.obj
 0002:000a06a0       ??E?$vec@$02_J$01@glm@@QAE?AU01@H@Z 005b36a0 f i glm.obj
 0002:000a0790       ??E?$vec@$02_J$01@glm@@QAEAAU01@XZ 005b3790 f i glm.obj
 0002:000a0840       ??E?$vec@$02_J$0A@@glm@@QAE?AU01@H@Z 005b3840 f i glm.obj
 0002:000a0930       ??E?$vec@$02_J$0A@@glm@@QAEAAU01@XZ 005b3930 f i glm.obj
 0002:000a09e0       ??E?$vec@$02_K$00@glm@@QAE?AU01@H@Z 005b39e0 f i glm.obj
 0002:000a0ad0       ??E?$vec@$02_K$00@glm@@QAEAAU01@XZ 005b3ad0 f i glm.obj
 0002:000a0b80       ??E?$vec@$02_K$01@glm@@QAE?AU01@H@Z 005b3b80 f i glm.obj
 0002:000a0c70       ??E?$vec@$02_K$01@glm@@QAEAAU01@XZ 005b3c70 f i glm.obj
 0002:000a0d20       ??E?$vec@$02_K$0A@@glm@@QAE?AU01@H@Z 005b3d20 f i glm.obj
 0002:000a0e10       ??E?$vec@$02_K$0A@@glm@@QAEAAU01@XZ 005b3e10 f i glm.obj
 0002:000a0ec0       ??E?$vec@$03C$00@glm@@QAE?AU01@H@Z 005b3ec0 f i glm.obj
 0002:000a0f80       ??E?$vec@$03C$00@glm@@QAEAAU01@XZ 005b3f80 f i glm.obj
 0002:000a1020       ??E?$vec@$03C$01@glm@@QAE?AU01@H@Z 005b4020 f i glm.obj
 0002:000a10e0       ??E?$vec@$03C$01@glm@@QAEAAU01@XZ 005b40e0 f i glm.obj
 0002:000a1180       ??E?$vec@$03C$0A@@glm@@QAE?AU01@H@Z 005b4180 f i glm.obj
 0002:000a1240       ??E?$vec@$03C$0A@@glm@@QAEAAU01@XZ 005b4240 f i glm.obj
 0002:000a12e0       ??E?$vec@$03E$00@glm@@QAE?AU01@H@Z 005b42e0 f i glm.obj
 0002:000a13a0       ??E?$vec@$03E$00@glm@@QAEAAU01@XZ 005b43a0 f i glm.obj
 0002:000a1440       ??E?$vec@$03E$01@glm@@QAE?AU01@H@Z 005b4440 f i glm.obj
 0002:000a1500       ??E?$vec@$03E$01@glm@@QAEAAU01@XZ 005b4500 f i glm.obj
 0002:000a15a0       ??E?$vec@$03E$0A@@glm@@QAE?AU01@H@Z 005b45a0 f i glm.obj
 0002:000a1660       ??E?$vec@$03E$0A@@glm@@QAEAAU01@XZ 005b4660 f i glm.obj
 0002:000a1700       ??E?$vec@$03F$00@glm@@QAE?AU01@H@Z 005b4700 f i glm.obj
 0002:000a17d0       ??E?$vec@$03F$00@glm@@QAEAAU01@XZ 005b47d0 f i glm.obj
 0002:000a1880       ??E?$vec@$03F$01@glm@@QAE?AU01@H@Z 005b4880 f i glm.obj
 0002:000a1950       ??E?$vec@$03F$01@glm@@QAEAAU01@XZ 005b4950 f i glm.obj
 0002:000a1a00       ??E?$vec@$03F$0A@@glm@@QAE?AU01@H@Z 005b4a00 f i glm.obj
 0002:000a1ad0       ??E?$vec@$03F$0A@@glm@@QAEAAU01@XZ 005b4ad0 f i glm.obj
 0002:000a1b80       ??E?$vec@$03G$00@glm@@QAE?AU01@H@Z 005b4b80 f i glm.obj
 0002:000a1c50       ??E?$vec@$03G$00@glm@@QAEAAU01@XZ 005b4c50 f i glm.obj
 0002:000a1d00       ??E?$vec@$03G$01@glm@@QAE?AU01@H@Z 005b4d00 f i glm.obj
 0002:000a1dd0       ??E?$vec@$03G$01@glm@@QAEAAU01@XZ 005b4dd0 f i glm.obj
 0002:000a1e80       ??E?$vec@$03G$0A@@glm@@QAE?AU01@H@Z 005b4e80 f i glm.obj
 0002:000a1f50       ??E?$vec@$03G$0A@@glm@@QAEAAU01@XZ 005b4f50 f i glm.obj
 0002:000a2000       ??E?$vec@$03H$00@glm@@QAE?AU01@H@Z 005b5000 f i glm.obj
 0002:000a20e0       ??E?$vec@$03H$00@glm@@QAEAAU01@XZ 005b50e0 f i glm.obj
 0002:000a2180       ??E?$vec@$03H$01@glm@@QAE?AU01@H@Z 005b5180 f i glm.obj
 0002:000a2260       ??E?$vec@$03H$01@glm@@QAEAAU01@XZ 005b5260 f i glm.obj
 0002:000a2300       ??E?$vec@$03H$0A@@glm@@QAE?AU01@H@Z 005b5300 f i glm.obj
 0002:000a23e0       ??E?$vec@$03H$0A@@glm@@QAEAAU01@XZ 005b53e0 f i glm.obj
 0002:000a2480       ??E?$vec@$03I$00@glm@@QAE?AU01@H@Z 005b5480 f i glm.obj
 0002:000a2560       ??E?$vec@$03I$00@glm@@QAEAAU01@XZ 005b5560 f i glm.obj
 0002:000a2600       ??E?$vec@$03I$01@glm@@QAE?AU01@H@Z 005b5600 f i glm.obj
 0002:000a26e0       ??E?$vec@$03I$01@glm@@QAEAAU01@XZ 005b56e0 f i glm.obj
 0002:000a2780       ??E?$vec@$03I$0A@@glm@@QAE?AU01@H@Z 005b5780 f i glm.obj
 0002:000a2860       ??E?$vec@$03I$0A@@glm@@QAEAAU01@XZ 005b5860 f i glm.obj
 0002:000a2900       ??E?$vec@$03M$00@glm@@QAE?AU01@H@Z 005b5900 f i glm.obj
 0002:000a29e0       ??E?$vec@$03M$00@glm@@QAEAAU01@XZ 005b59e0 f i glm.obj
 0002:000a2ab0       ??E?$vec@$03M$01@glm@@QAE?AU01@H@Z 005b5ab0 f i glm.obj
 0002:000a2b90       ??E?$vec@$03M$01@glm@@QAEAAU01@XZ 005b5b90 f i glm.obj
 0002:000a2c60       ??E?$vec@$03M$0A@@glm@@QAE?AU01@H@Z 005b5c60 f i glm.obj
 0002:000a2d40       ??E?$vec@$03M$0A@@glm@@QAEAAU01@XZ 005b5d40 f i glm.obj
 0002:000a2e10       ??E?$vec@$03N$00@glm@@QAE?AU01@H@Z 005b5e10 f i glm.obj
 0002:000a2ee0       ??E?$vec@$03N$00@glm@@QAEAAU01@XZ 005b5ee0 f i glm.obj
 0002:000a2fb0       ??E?$vec@$03N$01@glm@@QAE?AU01@H@Z 005b5fb0 f i glm.obj
 0002:000a3080       ??E?$vec@$03N$01@glm@@QAEAAU01@XZ 005b6080 f i glm.obj
 0002:000a3150       ??E?$vec@$03N$0A@@glm@@QAE?AU01@H@Z 005b6150 f i glm.obj
 0002:000a3220       ??E?$vec@$03N$0A@@glm@@QAEAAU01@XZ 005b6220 f i glm.obj
 0002:000a32f0       ??E?$vec@$03_J$00@glm@@QAE?AU01@H@Z 005b62f0 f i glm.obj
 0002:000a33c0       ??E?$vec@$03_J$00@glm@@QAEAAU01@XZ 005b63c0 f i glm.obj
 0002:000a3490       ??E?$vec@$03_J$01@glm@@QAE?AU01@H@Z 005b6490 f i glm.obj
 0002:000a3560       ??E?$vec@$03_J$01@glm@@QAEAAU01@XZ 005b6560 f i glm.obj
 0002:000a3630       ??E?$vec@$03_J$0A@@glm@@QAE?AU01@H@Z 005b6630 f i glm.obj
 0002:000a3700       ??E?$vec@$03_J$0A@@glm@@QAEAAU01@XZ 005b6700 f i glm.obj
 0002:000a37d0       ??E?$vec@$03_K$00@glm@@QAE?AU01@H@Z 005b67d0 f i glm.obj
 0002:000a38a0       ??E?$vec@$03_K$00@glm@@QAEAAU01@XZ 005b68a0 f i glm.obj
 0002:000a3970       ??E?$vec@$03_K$01@glm@@QAE?AU01@H@Z 005b6970 f i glm.obj
 0002:000a3a40       ??E?$vec@$03_K$01@glm@@QAEAAU01@XZ 005b6a40 f i glm.obj
 0002:000a3b10       ??E?$vec@$03_K$0A@@glm@@QAE?AU01@H@Z 005b6b10 f i glm.obj
 0002:000a3be0       ??E?$vec@$03_K$0A@@glm@@QAEAAU01@XZ 005b6be0 f i glm.obj
 0002:000a3cb0       ??F?$mat@$01$01M$00@glm@@QAE?AU01@H@Z 005b6cb0 f i glm.obj
 0002:000a3d90       ??F?$mat@$01$01M$00@glm@@QAEAAU01@XZ 005b6d90 f i glm.obj
 0002:000a3e10       ??F?$mat@$01$01M$01@glm@@QAE?AU01@H@Z 005b6e10 f i glm.obj
 0002:000a3ef0       ??F?$mat@$01$01M$01@glm@@QAEAAU01@XZ 005b6ef0 f i glm.obj
 0002:000a3f70       ??F?$mat@$01$01M$0A@@glm@@QAE?AU01@H@Z 005b6f70 f i glm.obj
 0002:000a4050       ??F?$mat@$01$01M$0A@@glm@@QAEAAU01@XZ 005b7050 f i glm.obj
 0002:000a40d0       ??F?$mat@$01$01N$00@glm@@QAE?AU01@H@Z 005b70d0 f i glm.obj
 0002:000a41a0       ??F?$mat@$01$01N$00@glm@@QAEAAU01@XZ 005b71a0 f i glm.obj
 0002:000a4220       ??F?$mat@$01$01N$01@glm@@QAE?AU01@H@Z 005b7220 f i glm.obj
 0002:000a42f0       ??F?$mat@$01$01N$01@glm@@QAEAAU01@XZ 005b72f0 f i glm.obj
 0002:000a4370       ??F?$mat@$01$01N$0A@@glm@@QAE?AU01@H@Z 005b7370 f i glm.obj
 0002:000a4440       ??F?$mat@$01$01N$0A@@glm@@QAEAAU01@XZ 005b7440 f i glm.obj
 0002:000a44c0       ??F?$mat@$01$02M$00@glm@@QAE?AU01@H@Z 005b74c0 f i glm.obj
 0002:000a45b0       ??F?$mat@$01$02M$00@glm@@QAEAAU01@XZ 005b75b0 f i glm.obj
 0002:000a4630       ??F?$mat@$01$02M$01@glm@@QAE?AU01@H@Z 005b7630 f i glm.obj
 0002:000a4720       ??F?$mat@$01$02M$01@glm@@QAEAAU01@XZ 005b7720 f i glm.obj
 0002:000a47a0       ??F?$mat@$01$02M$0A@@glm@@QAE?AU01@H@Z 005b77a0 f i glm.obj
 0002:000a4890       ??F?$mat@$01$02M$0A@@glm@@QAEAAU01@XZ 005b7890 f i glm.obj
 0002:000a4910       ??F?$mat@$01$02N$00@glm@@QAE?AU01@H@Z 005b7910 f i glm.obj
 0002:000a49e0       ??F?$mat@$01$02N$00@glm@@QAEAAU01@XZ 005b79e0 f i glm.obj
 0002:000a4a60       ??F?$mat@$01$02N$01@glm@@QAE?AU01@H@Z 005b7a60 f i glm.obj
 0002:000a4b30       ??F?$mat@$01$02N$01@glm@@QAEAAU01@XZ 005b7b30 f i glm.obj
 0002:000a4bb0       ??F?$mat@$01$02N$0A@@glm@@QAE?AU01@H@Z 005b7bb0 f i glm.obj
 0002:000a4c80       ??F?$mat@$01$02N$0A@@glm@@QAEAAU01@XZ 005b7c80 f i glm.obj
 0002:000a4d00       ??F?$mat@$01$03M$00@glm@@QAE?AU01@H@Z 005b7d00 f i glm.obj
 0002:000a4dd0       ??F?$mat@$01$03M$00@glm@@QAEAAU01@XZ 005b7dd0 f i glm.obj
 0002:000a4e50       ??F?$mat@$01$03M$01@glm@@QAE?AU01@H@Z 005b7e50 f i glm.obj
 0002:000a4f20       ??F?$mat@$01$03M$01@glm@@QAEAAU01@XZ 005b7f20 f i glm.obj
 0002:000a4fa0       ??F?$mat@$01$03M$0A@@glm@@QAE?AU01@H@Z 005b7fa0 f i glm.obj
 0002:000a5070       ??F?$mat@$01$03M$0A@@glm@@QAEAAU01@XZ 005b8070 f i glm.obj
 0002:000a50f0       ??F?$mat@$01$03N$00@glm@@QAE?AU01@H@Z 005b80f0 f i glm.obj
 0002:000a51c0       ??F?$mat@$01$03N$00@glm@@QAEAAU01@XZ 005b81c0 f i glm.obj
 0002:000a5240       ??F?$mat@$01$03N$01@glm@@QAE?AU01@H@Z 005b8240 f i glm.obj
 0002:000a5310       ??F?$mat@$01$03N$01@glm@@QAEAAU01@XZ 005b8310 f i glm.obj
 0002:000a5390       ??F?$mat@$01$03N$0A@@glm@@QAE?AU01@H@Z 005b8390 f i glm.obj
 0002:000a5460       ??F?$mat@$01$03N$0A@@glm@@QAEAAU01@XZ 005b8460 f i glm.obj
 0002:000a54e0       ??F?$mat@$02$01M$00@glm@@QAE?AU01@H@Z 005b84e0 f i glm.obj
 0002:000a55d0       ??F?$mat@$02$01M$00@glm@@QAEAAU01@XZ 005b85d0 f i glm.obj
 0002:000a5660       ??F?$mat@$02$01M$01@glm@@QAE?AU01@H@Z 005b8660 f i glm.obj
 0002:000a5750       ??F?$mat@$02$01M$01@glm@@QAEAAU01@XZ 005b8750 f i glm.obj
 0002:000a57e0       ??F?$mat@$02$01M$0A@@glm@@QAE?AU01@H@Z 005b87e0 f i glm.obj
 0002:000a58d0       ??F?$mat@$02$01M$0A@@glm@@QAEAAU01@XZ 005b88d0 f i glm.obj
 0002:000a5960       ??F?$mat@$02$01N$00@glm@@QAE?AU01@H@Z 005b8960 f i glm.obj
 0002:000a5a30       ??F?$mat@$02$01N$00@glm@@QAEAAU01@XZ 005b8a30 f i glm.obj
 0002:000a5ac0       ??F?$mat@$02$01N$01@glm@@QAE?AU01@H@Z 005b8ac0 f i glm.obj
 0002:000a5b90       ??F?$mat@$02$01N$01@glm@@QAEAAU01@XZ 005b8b90 f i glm.obj
 0002:000a5c20       ??F?$mat@$02$01N$0A@@glm@@QAE?AU01@H@Z 005b8c20 f i glm.obj
 0002:000a5cf0       ??F?$mat@$02$01N$0A@@glm@@QAEAAU01@XZ 005b8cf0 f i glm.obj
 0002:000a5d80       ??F?$mat@$02$02M$00@glm@@QAE?AU01@H@Z 005b8d80 f i glm.obj
 0002:000a5e50       ??F?$mat@$02$02M$00@glm@@QAEAAU01@XZ 005b8e50 f i glm.obj
 0002:000a5ee0       ??F?$mat@$02$02M$01@glm@@QAE?AU01@H@Z 005b8ee0 f i glm.obj
 0002:000a5fb0       ??F?$mat@$02$02M$01@glm@@QAEAAU01@XZ 005b8fb0 f i glm.obj
 0002:000a6040       ??F?$mat@$02$02M$0A@@glm@@QAE?AU01@H@Z 005b9040 f i glm.obj
 0002:000a6110       ??F?$mat@$02$02M$0A@@glm@@QAEAAU01@XZ 005b9110 f i glm.obj
 0002:000a61a0       ??F?$mat@$02$02N$00@glm@@QAE?AU01@H@Z 005b91a0 f i glm.obj
 0002:000a6270       ??F?$mat@$02$02N$00@glm@@QAEAAU01@XZ 005b9270 f i glm.obj
 0002:000a6300       ??F?$mat@$02$02N$01@glm@@QAE?AU01@H@Z 005b9300 f i glm.obj
 0002:000a63d0       ??F?$mat@$02$02N$01@glm@@QAEAAU01@XZ 005b93d0 f i glm.obj
 0002:000a6460       ??F?$mat@$02$02N$0A@@glm@@QAE?AU01@H@Z 005b9460 f i glm.obj
 0002:000a6530       ??F?$mat@$02$02N$0A@@glm@@QAEAAU01@XZ 005b9530 f i glm.obj
 0002:000a65c0       ??F?$mat@$02$03M$00@glm@@QAE?AU01@H@Z 005b95c0 f i glm.obj
 0002:000a6690       ??F?$mat@$02$03M$00@glm@@QAEAAU01@XZ 005b9690 f i glm.obj
 0002:000a6720       ??F?$mat@$02$03M$01@glm@@QAE?AU01@H@Z 005b9720 f i glm.obj
 0002:000a67f0       ??F?$mat@$02$03M$01@glm@@QAEAAU01@XZ 005b97f0 f i glm.obj
 0002:000a6880       ??F?$mat@$02$03M$0A@@glm@@QAE?AU01@H@Z 005b9880 f i glm.obj
 0002:000a6950       ??F?$mat@$02$03M$0A@@glm@@QAEAAU01@XZ 005b9950 f i glm.obj
 0002:000a69e0       ??F?$mat@$02$03N$00@glm@@QAE?AU01@H@Z 005b99e0 f i glm.obj
 0002:000a6ab0       ??F?$mat@$02$03N$00@glm@@QAEAAU01@XZ 005b9ab0 f i glm.obj
 0002:000a6b40       ??F?$mat@$02$03N$01@glm@@QAE?AU01@H@Z 005b9b40 f i glm.obj
 0002:000a6c10       ??F?$mat@$02$03N$01@glm@@QAEAAU01@XZ 005b9c10 f i glm.obj
 0002:000a6ca0       ??F?$mat@$02$03N$0A@@glm@@QAE?AU01@H@Z 005b9ca0 f i glm.obj
 0002:000a6d70       ??F?$mat@$02$03N$0A@@glm@@QAEAAU01@XZ 005b9d70 f i glm.obj
 0002:000a6e00       ??F?$mat@$03$01M$00@glm@@QAE?AU01@H@Z 005b9e00 f i glm.obj
 0002:000a6ed0       ??F?$mat@$03$01M$00@glm@@QAEAAU01@XZ 005b9ed0 f i glm.obj
 0002:000a6f70       ??F?$mat@$03$01M$01@glm@@QAE?AU01@H@Z 005b9f70 f i glm.obj
 0002:000a7040       ??F?$mat@$03$01M$01@glm@@QAEAAU01@XZ 005ba040 f i glm.obj
 0002:000a70e0       ??F?$mat@$03$01M$0A@@glm@@QAE?AU01@H@Z 005ba0e0 f i glm.obj
 0002:000a71b0       ??F?$mat@$03$01M$0A@@glm@@QAEAAU01@XZ 005ba1b0 f i glm.obj
 0002:000a7250       ??F?$mat@$03$01N$00@glm@@QAE?AU01@H@Z 005ba250 f i glm.obj
 0002:000a7320       ??F?$mat@$03$01N$00@glm@@QAEAAU01@XZ 005ba320 f i glm.obj
 0002:000a73c0       ??F?$mat@$03$01N$01@glm@@QAE?AU01@H@Z 005ba3c0 f i glm.obj
 0002:000a7490       ??F?$mat@$03$01N$01@glm@@QAEAAU01@XZ 005ba490 f i glm.obj
 0002:000a7530       ??F?$mat@$03$01N$0A@@glm@@QAE?AU01@H@Z 005ba530 f i glm.obj
 0002:000a7600       ??F?$mat@$03$01N$0A@@glm@@QAEAAU01@XZ 005ba600 f i glm.obj
 0002:000a76a0       ??F?$mat@$03$02M$00@glm@@QAE?AU01@H@Z 005ba6a0 f i glm.obj
 0002:000a7770       ??F?$mat@$03$02M$00@glm@@QAEAAU01@XZ 005ba770 f i glm.obj
 0002:000a7810       ??F?$mat@$03$02M$01@glm@@QAE?AU01@H@Z 005ba810 f i glm.obj
 0002:000a78e0       ??F?$mat@$03$02M$01@glm@@QAEAAU01@XZ 005ba8e0 f i glm.obj
 0002:000a7980       ??F?$mat@$03$02M$0A@@glm@@QAE?AU01@H@Z 005ba980 f i glm.obj
 0002:000a7a50       ??F?$mat@$03$02M$0A@@glm@@QAEAAU01@XZ 005baa50 f i glm.obj
 0002:000a7af0       ??F?$mat@$03$02N$00@glm@@QAE?AU01@H@Z 005baaf0 f i glm.obj
 0002:000a7bc0       ??F?$mat@$03$02N$00@glm@@QAEAAU01@XZ 005babc0 f i glm.obj
 0002:000a7c60       ??F?$mat@$03$02N$01@glm@@QAE?AU01@H@Z 005bac60 f i glm.obj
 0002:000a7d30       ??F?$mat@$03$02N$01@glm@@QAEAAU01@XZ 005bad30 f i glm.obj
 0002:000a7dd0       ??F?$mat@$03$02N$0A@@glm@@QAE?AU01@H@Z 005badd0 f i glm.obj
 0002:000a7ea0       ??F?$mat@$03$02N$0A@@glm@@QAEAAU01@XZ 005baea0 f i glm.obj
 0002:000a7f40       ??F?$mat@$03$03M$00@glm@@QAE?AU01@H@Z 005baf40 f i glm.obj
 0002:000a8010       ??F?$mat@$03$03M$00@glm@@QAEAAU01@XZ 005bb010 f i glm.obj
 0002:000a80b0       ??F?$mat@$03$03M$01@glm@@QAE?AU01@H@Z 005bb0b0 f i glm.obj
 0002:000a8180       ??F?$mat@$03$03M$01@glm@@QAEAAU01@XZ 005bb180 f i glm.obj
 0002:000a8220       ??F?$mat@$03$03M$0A@@glm@@QAE?AU01@H@Z 005bb220 f i glm.obj
 0002:000a82f0       ??F?$mat@$03$03M$0A@@glm@@QAEAAU01@XZ 005bb2f0 f i glm.obj
 0002:000a8390       ??F?$mat@$03$03N$00@glm@@QAE?AU01@H@Z 005bb390 f i glm.obj
 0002:000a8460       ??F?$mat@$03$03N$00@glm@@QAEAAU01@XZ 005bb460 f i glm.obj
 0002:000a8500       ??F?$mat@$03$03N$01@glm@@QAE?AU01@H@Z 005bb500 f i glm.obj
 0002:000a85d0       ??F?$mat@$03$03N$01@glm@@QAEAAU01@XZ 005bb5d0 f i glm.obj
 0002:000a8670       ??F?$mat@$03$03N$0A@@glm@@QAE?AU01@H@Z 005bb670 f i glm.obj
 0002:000a8740       ??F?$mat@$03$03N$0A@@glm@@QAEAAU01@XZ 005bb740 f i glm.obj
 0002:000a87e0       ??F?$vec@$00C$00@glm@@QAE?AU01@H@Z 005bb7e0 f i glm.obj
 0002:000a88a0       ??F?$vec@$00C$00@glm@@QAEAAU01@XZ 005bb8a0 f i glm.obj
 0002:000a8910       ??F?$vec@$00C$01@glm@@QAE?AU01@H@Z 005bb910 f i glm.obj
 0002:000a89d0       ??F?$vec@$00C$01@glm@@QAEAAU01@XZ 005bb9d0 f i glm.obj
 0002:000a8a40       ??F?$vec@$00C$0A@@glm@@QAE?AU01@H@Z 005bba40 f i glm.obj
 0002:000a8b00       ??F?$vec@$00C$0A@@glm@@QAEAAU01@XZ 005bbb00 f i glm.obj
 0002:000a8b70       ??F?$vec@$00E$00@glm@@QAE?AU01@H@Z 005bbb70 f i glm.obj
 0002:000a8c30       ??F?$vec@$00E$00@glm@@QAEAAU01@XZ 005bbc30 f i glm.obj
 0002:000a8ca0       ??F?$vec@$00E$01@glm@@QAE?AU01@H@Z 005bbca0 f i glm.obj
 0002:000a8d60       ??F?$vec@$00E$01@glm@@QAEAAU01@XZ 005bbd60 f i glm.obj
 0002:000a8dd0       ??F?$vec@$00E$0A@@glm@@QAE?AU01@H@Z 005bbdd0 f i glm.obj
 0002:000a8e90       ??F?$vec@$00E$0A@@glm@@QAEAAU01@XZ 005bbe90 f i glm.obj
 0002:000a8f00       ??F?$vec@$00F$00@glm@@QAE?AU01@H@Z 005bbf00 f i glm.obj
 0002:000a8fc0       ??F?$vec@$00F$00@glm@@QAEAAU01@XZ 005bbfc0 f i glm.obj
 0002:000a9030       ??F?$vec@$00F$01@glm@@QAE?AU01@H@Z 005bc030 f i glm.obj
 0002:000a90f0       ??F?$vec@$00F$01@glm@@QAEAAU01@XZ 005bc0f0 f i glm.obj
 0002:000a9160       ??F?$vec@$00F$0A@@glm@@QAE?AU01@H@Z 005bc160 f i glm.obj
 0002:000a9220       ??F?$vec@$00F$0A@@glm@@QAEAAU01@XZ 005bc220 f i glm.obj
 0002:000a9290       ??F?$vec@$00G$00@glm@@QAE?AU01@H@Z 005bc290 f i glm.obj
 0002:000a9350       ??F?$vec@$00G$00@glm@@QAEAAU01@XZ 005bc350 f i glm.obj
 0002:000a93c0       ??F?$vec@$00G$01@glm@@QAE?AU01@H@Z 005bc3c0 f i glm.obj
 0002:000a9480       ??F?$vec@$00G$01@glm@@QAEAAU01@XZ 005bc480 f i glm.obj
 0002:000a94f0       ??F?$vec@$00G$0A@@glm@@QAE?AU01@H@Z 005bc4f0 f i glm.obj
 0002:000a95b0       ??F?$vec@$00G$0A@@glm@@QAEAAU01@XZ 005bc5b0 f i glm.obj
 0002:000a9620       ??F?$vec@$00H$00@glm@@QAE?AU01@H@Z 005bc620 f i glm.obj
 0002:000a96e0       ??F?$vec@$00H$00@glm@@QAEAAU01@XZ 005bc6e0 f i glm.obj
 0002:000a9750       ??F?$vec@$00H$01@glm@@QAE?AU01@H@Z 005bc750 f i glm.obj
 0002:000a9810       ??F?$vec@$00H$01@glm@@QAEAAU01@XZ 005bc810 f i glm.obj
 0002:000a9880       ??F?$vec@$00H$0A@@glm@@QAE?AU01@H@Z 005bc880 f i glm.obj
 0002:000a9940       ??F?$vec@$00H$0A@@glm@@QAEAAU01@XZ 005bc940 f i glm.obj
 0002:000a99b0       ??F?$vec@$00I$00@glm@@QAE?AU01@H@Z 005bc9b0 f i glm.obj
 0002:000a9a70       ??F?$vec@$00I$00@glm@@QAEAAU01@XZ 005bca70 f i glm.obj
 0002:000a9ae0       ??F?$vec@$00I$01@glm@@QAE?AU01@H@Z 005bcae0 f i glm.obj
 0002:000a9ba0       ??F?$vec@$00I$01@glm@@QAEAAU01@XZ 005bcba0 f i glm.obj
 0002:000a9c10       ??F?$vec@$00I$0A@@glm@@QAE?AU01@H@Z 005bcc10 f i glm.obj
 0002:000a9cd0       ??F?$vec@$00I$0A@@glm@@QAEAAU01@XZ 005bccd0 f i glm.obj
 0002:000a9d40       ??F?$vec@$00M$00@glm@@QAE?AU01@H@Z 005bcd40 f i glm.obj
 0002:000a9e00       ??F?$vec@$00M$00@glm@@QAEAAU01@XZ 005bce00 f i glm.obj
 0002:000a9e70       ??F?$vec@$00M$01@glm@@QAE?AU01@H@Z 005bce70 f i glm.obj
 0002:000a9f30       ??F?$vec@$00M$01@glm@@QAEAAU01@XZ 005bcf30 f i glm.obj
 0002:000a9fa0       ??F?$vec@$00M$0A@@glm@@QAE?AU01@H@Z 005bcfa0 f i glm.obj
 0002:000aa060       ??F?$vec@$00M$0A@@glm@@QAEAAU01@XZ 005bd060 f i glm.obj
 0002:000aa0d0       ??F?$vec@$00N$00@glm@@QAE?AU01@H@Z 005bd0d0 f i glm.obj
 0002:000aa1a0       ??F?$vec@$00N$00@glm@@QAEAAU01@XZ 005bd1a0 f i glm.obj
 0002:000aa210       ??F?$vec@$00N$01@glm@@QAE?AU01@H@Z 005bd210 f i glm.obj
 0002:000aa2e0       ??F?$vec@$00N$01@glm@@QAEAAU01@XZ 005bd2e0 f i glm.obj
 0002:000aa350       ??F?$vec@$00N$0A@@glm@@QAE?AU01@H@Z 005bd350 f i glm.obj
 0002:000aa420       ??F?$vec@$00N$0A@@glm@@QAEAAU01@XZ 005bd420 f i glm.obj
 0002:000aa490       ??F?$vec@$00_J$00@glm@@QAE?AU01@H@Z 005bd490 f i glm.obj
 0002:000aa560       ??F?$vec@$00_J$00@glm@@QAEAAU01@XZ 005bd560 f i glm.obj
 0002:000aa5d0       ??F?$vec@$00_J$01@glm@@QAE?AU01@H@Z 005bd5d0 f i glm.obj
 0002:000aa6a0       ??F?$vec@$00_J$01@glm@@QAEAAU01@XZ 005bd6a0 f i glm.obj
 0002:000aa710       ??F?$vec@$00_J$0A@@glm@@QAE?AU01@H@Z 005bd710 f i glm.obj
 0002:000aa7e0       ??F?$vec@$00_J$0A@@glm@@QAEAAU01@XZ 005bd7e0 f i glm.obj
 0002:000aa850       ??F?$vec@$00_K$00@glm@@QAE?AU01@H@Z 005bd850 f i glm.obj
 0002:000aa920       ??F?$vec@$00_K$00@glm@@QAEAAU01@XZ 005bd920 f i glm.obj
 0002:000aa990       ??F?$vec@$00_K$01@glm@@QAE?AU01@H@Z 005bd990 f i glm.obj
 0002:000aaa60       ??F?$vec@$00_K$01@glm@@QAEAAU01@XZ 005bda60 f i glm.obj
 0002:000aaad0       ??F?$vec@$00_K$0A@@glm@@QAE?AU01@H@Z 005bdad0 f i glm.obj
 0002:000aaba0       ??F?$vec@$00_K$0A@@glm@@QAEAAU01@XZ 005bdba0 f i glm.obj
 0002:000aac10       ??F?$vec@$01C$00@glm@@QAE?AU01@H@Z 005bdc10 f i glm.obj
 0002:000aacd0       ??F?$vec@$01C$00@glm@@QAEAAU01@XZ 005bdcd0 f i glm.obj
 0002:000aad50       ??F?$vec@$01C$01@glm@@QAE?AU01@H@Z 005bdd50 f i glm.obj
 0002:000aae10       ??F?$vec@$01C$01@glm@@QAEAAU01@XZ 005bde10 f i glm.obj
 0002:000aae90       ??F?$vec@$01C$0A@@glm@@QAE?AU01@H@Z 005bde90 f i glm.obj
 0002:000aaf50       ??F?$vec@$01C$0A@@glm@@QAEAAU01@XZ 005bdf50 f i glm.obj
 0002:000aafd0       ??F?$vec@$01E$00@glm@@QAE?AU01@H@Z 005bdfd0 f i glm.obj
 0002:000ab090       ??F?$vec@$01E$00@glm@@QAEAAU01@XZ 005be090 f i glm.obj
 0002:000ab110       ??F?$vec@$01E$01@glm@@QAE?AU01@H@Z 005be110 f i glm.obj
 0002:000ab1d0       ??F?$vec@$01E$01@glm@@QAEAAU01@XZ 005be1d0 f i glm.obj
 0002:000ab250       ??F?$vec@$01E$0A@@glm@@QAE?AU01@H@Z 005be250 f i glm.obj
 0002:000ab310       ??F?$vec@$01E$0A@@glm@@QAEAAU01@XZ 005be310 f i glm.obj
 0002:000ab390       ??F?$vec@$01F$00@glm@@QAE?AU01@H@Z 005be390 f i glm.obj
 0002:000ab450       ??F?$vec@$01F$00@glm@@QAEAAU01@XZ 005be450 f i glm.obj
 0002:000ab4d0       ??F?$vec@$01F$01@glm@@QAE?AU01@H@Z 005be4d0 f i glm.obj
 0002:000ab590       ??F?$vec@$01F$01@glm@@QAEAAU01@XZ 005be590 f i glm.obj
 0002:000ab610       ??F?$vec@$01F$0A@@glm@@QAE?AU01@H@Z 005be610 f i glm.obj
 0002:000ab6d0       ??F?$vec@$01F$0A@@glm@@QAEAAU01@XZ 005be6d0 f i glm.obj
 0002:000ab750       ??F?$vec@$01G$00@glm@@QAE?AU01@H@Z 005be750 f i glm.obj
 0002:000ab810       ??F?$vec@$01G$00@glm@@QAEAAU01@XZ 005be810 f i glm.obj
 0002:000ab890       ??F?$vec@$01G$01@glm@@QAE?AU01@H@Z 005be890 f i glm.obj
 0002:000ab950       ??F?$vec@$01G$01@glm@@QAEAAU01@XZ 005be950 f i glm.obj
 0002:000ab9d0       ??F?$vec@$01G$0A@@glm@@QAE?AU01@H@Z 005be9d0 f i glm.obj
 0002:000aba90       ??F?$vec@$01G$0A@@glm@@QAEAAU01@XZ 005bea90 f i glm.obj
 0002:000abb10       ??F?$vec@$01H$00@glm@@QAE?AU01@H@Z 005beb10 f i glm.obj
 0002:000abbe0       ??F?$vec@$01H$00@glm@@QAEAAU01@XZ 005bebe0 f i glm.obj
 0002:000abc60       ??F?$vec@$01H$01@glm@@QAE?AU01@H@Z 005bec60 f i glm.obj
 0002:000abd30       ??F?$vec@$01H$01@glm@@QAEAAU01@XZ 005bed30 f i glm.obj
 0002:000abdb0       ??F?$vec@$01H$0A@@glm@@QAE?AU01@H@Z 005bedb0 f i glm.obj
 0002:000abe80       ??F?$vec@$01H$0A@@glm@@QAEAAU01@XZ 005bee80 f i glm.obj
 0002:000abf00       ??F?$vec@$01I$00@glm@@QAE?AU01@H@Z 005bef00 f i glm.obj
 0002:000abfd0       ??F?$vec@$01I$00@glm@@QAEAAU01@XZ 005befd0 f i glm.obj
 0002:000ac050       ??F?$vec@$01I$01@glm@@QAE?AU01@H@Z 005bf050 f i glm.obj
 0002:000ac120       ??F?$vec@$01I$01@glm@@QAEAAU01@XZ 005bf120 f i glm.obj
 0002:000ac1a0       ??F?$vec@$01I$0A@@glm@@QAE?AU01@H@Z 005bf1a0 f i glm.obj
 0002:000ac270       ??F?$vec@$01I$0A@@glm@@QAEAAU01@XZ 005bf270 f i glm.obj
 0002:000ac2f0       ??F?$vec@$01M$00@glm@@QAE?AU01@H@Z 005bf2f0 f i glm.obj
 0002:000ac3c0       ??F?$vec@$01M$00@glm@@QAEAAU01@XZ 005bf3c0 f i glm.obj
 0002:000ac450       ??F?$vec@$01M$01@glm@@QAE?AU01@H@Z 005bf450 f i glm.obj
 0002:000ac520       ??F?$vec@$01M$01@glm@@QAEAAU01@XZ 005bf520 f i glm.obj
 0002:000ac5b0       ??F?$vec@$01M$0A@@glm@@QAE?AU01@H@Z 005bf5b0 f i glm.obj
 0002:000ac680       ??F?$vec@$01M$0A@@glm@@QAEAAU01@XZ 005bf680 f i glm.obj
 0002:000ac710       ??F?$vec@$01N$00@glm@@QAE?AU01@H@Z 005bf710 f i glm.obj
 0002:000ac7f0       ??F?$vec@$01N$00@glm@@QAEAAU01@XZ 005bf7f0 f i glm.obj
 0002:000ac880       ??F?$vec@$01N$01@glm@@QAE?AU01@H@Z 005bf880 f i glm.obj
 0002:000ac960       ??F?$vec@$01N$01@glm@@QAEAAU01@XZ 005bf960 f i glm.obj
 0002:000ac9f0       ??F?$vec@$01N$0A@@glm@@QAE?AU01@H@Z 005bf9f0 f i glm.obj
 0002:000acad0       ??F?$vec@$01N$0A@@glm@@QAEAAU01@XZ 005bfad0 f i glm.obj
 0002:000acb60       ??F?$vec@$01_J$00@glm@@QAE?AU01@H@Z 005bfb60 f i glm.obj
 0002:000acc40       ??F?$vec@$01_J$00@glm@@QAEAAU01@XZ 005bfc40 f i glm.obj
 0002:000accd0       ??F?$vec@$01_J$01@glm@@QAE?AU01@H@Z 005bfcd0 f i glm.obj
 0002:000acdb0       ??F?$vec@$01_J$01@glm@@QAEAAU01@XZ 005bfdb0 f i glm.obj
 0002:000ace40       ??F?$vec@$01_J$0A@@glm@@QAE?AU01@H@Z 005bfe40 f i glm.obj
 0002:000acf20       ??F?$vec@$01_J$0A@@glm@@QAEAAU01@XZ 005bff20 f i glm.obj
 0002:000acfb0       ??F?$vec@$01_K$00@glm@@QAE?AU01@H@Z 005bffb0 f i glm.obj
 0002:000ad090       ??F?$vec@$01_K$00@glm@@QAEAAU01@XZ 005c0090 f i glm.obj
 0002:000ad120       ??F?$vec@$01_K$01@glm@@QAE?AU01@H@Z 005c0120 f i glm.obj
 0002:000ad200       ??F?$vec@$01_K$01@glm@@QAEAAU01@XZ 005c0200 f i glm.obj
 0002:000ad290       ??F?$vec@$01_K$0A@@glm@@QAE?AU01@H@Z 005c0290 f i glm.obj
 0002:000ad370       ??F?$vec@$01_K$0A@@glm@@QAEAAU01@XZ 005c0370 f i glm.obj
 0002:000ad400       ??F?$vec@$02C$00@glm@@QAE?AU01@H@Z 005c0400 f i glm.obj
 0002:000ad4d0       ??F?$vec@$02C$00@glm@@QAEAAU01@XZ 005c04d0 f i glm.obj
 0002:000ad560       ??F?$vec@$02C$01@glm@@QAE?AU01@H@Z 005c0560 f i glm.obj
 0002:000ad630       ??F?$vec@$02C$01@glm@@QAEAAU01@XZ 005c0630 f i glm.obj
 0002:000ad6c0       ??F?$vec@$02C$0A@@glm@@QAE?AU01@H@Z 005c06c0 f i glm.obj
 0002:000ad790       ??F?$vec@$02C$0A@@glm@@QAEAAU01@XZ 005c0790 f i glm.obj
 0002:000ad820       ??F?$vec@$02E$00@glm@@QAE?AU01@H@Z 005c0820 f i glm.obj
 0002:000ad8f0       ??F?$vec@$02E$00@glm@@QAEAAU01@XZ 005c08f0 f i glm.obj
 0002:000ad980       ??F?$vec@$02E$01@glm@@QAE?AU01@H@Z 005c0980 f i glm.obj
 0002:000ada50       ??F?$vec@$02E$01@glm@@QAEAAU01@XZ 005c0a50 f i glm.obj
 0002:000adae0       ??F?$vec@$02E$0A@@glm@@QAE?AU01@H@Z 005c0ae0 f i glm.obj
 0002:000adbb0       ??F?$vec@$02E$0A@@glm@@QAEAAU01@XZ 005c0bb0 f i glm.obj
 0002:000adc40       ??F?$vec@$02F$00@glm@@QAE?AU01@H@Z 005c0c40 f i glm.obj
 0002:000add10       ??F?$vec@$02F$00@glm@@QAEAAU01@XZ 005c0d10 f i glm.obj
 0002:000addb0       ??F?$vec@$02F$01@glm@@QAE?AU01@H@Z 005c0db0 f i glm.obj
 0002:000ade80       ??F?$vec@$02F$01@glm@@QAEAAU01@XZ 005c0e80 f i glm.obj
 0002:000adf20       ??F?$vec@$02F$0A@@glm@@QAE?AU01@H@Z 005c0f20 f i glm.obj
 0002:000adff0       ??F?$vec@$02F$0A@@glm@@QAEAAU01@XZ 005c0ff0 f i glm.obj
 0002:000ae090       ??F?$vec@$02G$00@glm@@QAE?AU01@H@Z 005c1090 f i glm.obj
 0002:000ae160       ??F?$vec@$02G$00@glm@@QAEAAU01@XZ 005c1160 f i glm.obj
 0002:000ae200       ??F?$vec@$02G$01@glm@@QAE?AU01@H@Z 005c1200 f i glm.obj
 0002:000ae2d0       ??F?$vec@$02G$01@glm@@QAEAAU01@XZ 005c12d0 f i glm.obj
 0002:000ae370       ??F?$vec@$02G$0A@@glm@@QAE?AU01@H@Z 005c1370 f i glm.obj
 0002:000ae440       ??F?$vec@$02G$0A@@glm@@QAEAAU01@XZ 005c1440 f i glm.obj
 0002:000ae4e0       ??F?$vec@$02H$00@glm@@QAE?AU01@H@Z 005c14e0 f i glm.obj
 0002:000ae5b0       ??F?$vec@$02H$00@glm@@QAEAAU01@XZ 005c15b0 f i glm.obj
 0002:000ae640       ??F?$vec@$02H$01@glm@@QAE?AU01@H@Z 005c1640 f i glm.obj
 0002:000ae710       ??F?$vec@$02H$01@glm@@QAEAAU01@XZ 005c1710 f i glm.obj
 0002:000ae7a0       ??F?$vec@$02H$0A@@glm@@QAE?AU01@H@Z 005c17a0 f i glm.obj
 0002:000ae870       ??F?$vec@$02H$0A@@glm@@QAEAAU01@XZ 005c1870 f i glm.obj
 0002:000ae900       ??F?$vec@$02I$00@glm@@QAE?AU01@H@Z 005c1900 f i glm.obj
 0002:000ae9d0       ??F?$vec@$02I$00@glm@@QAEAAU01@XZ 005c19d0 f i glm.obj
 0002:000aea60       ??F?$vec@$02I$01@glm@@QAE?AU01@H@Z 005c1a60 f i glm.obj
 0002:000aeb30       ??F?$vec@$02I$01@glm@@QAEAAU01@XZ 005c1b30 f i glm.obj
 0002:000aebc0       ??F?$vec@$02I$0A@@glm@@QAE?AU01@H@Z 005c1bc0 f i glm.obj
 0002:000aec90       ??F?$vec@$02I$0A@@glm@@QAEAAU01@XZ 005c1c90 f i glm.obj
 0002:000aed20       ??F?$vec@$02M$00@glm@@QAE?AU01@H@Z 005c1d20 f i glm.obj
 0002:000aedf0       ??F?$vec@$02M$00@glm@@QAEAAU01@XZ 005c1df0 f i glm.obj
 0002:000aeea0       ??F?$vec@$02M$01@glm@@QAE?AU01@H@Z 005c1ea0 f i glm.obj
 0002:000aef70       ??F?$vec@$02M$01@glm@@QAEAAU01@XZ 005c1f70 f i glm.obj
 0002:000af020       ??F?$vec@$02M$0A@@glm@@QAE?AU01@H@Z 005c2020 f i glm.obj
 0002:000af0f0       ??F?$vec@$02M$0A@@glm@@QAEAAU01@XZ 005c20f0 f i glm.obj
 0002:000af1a0       ??F?$vec@$02N$00@glm@@QAE?AU01@H@Z 005c21a0 f i glm.obj
 0002:000af290       ??F?$vec@$02N$00@glm@@QAEAAU01@XZ 005c2290 f i glm.obj
 0002:000af340       ??F?$vec@$02N$01@glm@@QAE?AU01@H@Z 005c2340 f i glm.obj
 0002:000af430       ??F?$vec@$02N$01@glm@@QAEAAU01@XZ 005c2430 f i glm.obj
 0002:000af4e0       ??F?$vec@$02N$0A@@glm@@QAE?AU01@H@Z 005c24e0 f i glm.obj
 0002:000af5d0       ??F?$vec@$02N$0A@@glm@@QAEAAU01@XZ 005c25d0 f i glm.obj
 0002:000af680       ??F?$vec@$02_J$00@glm@@QAE?AU01@H@Z 005c2680 f i glm.obj
 0002:000af770       ??F?$vec@$02_J$00@glm@@QAEAAU01@XZ 005c2770 f i glm.obj
 0002:000af820       ??F?$vec@$02_J$01@glm@@QAE?AU01@H@Z 005c2820 f i glm.obj
 0002:000af910       ??F?$vec@$02_J$01@glm@@QAEAAU01@XZ 005c2910 f i glm.obj
 0002:000af9c0       ??F?$vec@$02_J$0A@@glm@@QAE?AU01@H@Z 005c29c0 f i glm.obj
 0002:000afab0       ??F?$vec@$02_J$0A@@glm@@QAEAAU01@XZ 005c2ab0 f i glm.obj
 0002:000afb60       ??F?$vec@$02_K$00@glm@@QAE?AU01@H@Z 005c2b60 f i glm.obj
 0002:000afc50       ??F?$vec@$02_K$00@glm@@QAEAAU01@XZ 005c2c50 f i glm.obj
 0002:000afd00       ??F?$vec@$02_K$01@glm@@QAE?AU01@H@Z 005c2d00 f i glm.obj
 0002:000afdf0       ??F?$vec@$02_K$01@glm@@QAEAAU01@XZ 005c2df0 f i glm.obj
 0002:000afea0       ??F?$vec@$02_K$0A@@glm@@QAE?AU01@H@Z 005c2ea0 f i glm.obj
 0002:000aff90       ??F?$vec@$02_K$0A@@glm@@QAEAAU01@XZ 005c2f90 f i glm.obj
 0002:000b0040       ??F?$vec@$03C$00@glm@@QAE?AU01@H@Z 005c3040 f i glm.obj
 0002:000b0100       ??F?$vec@$03C$00@glm@@QAEAAU01@XZ 005c3100 f i glm.obj
 0002:000b01a0       ??F?$vec@$03C$01@glm@@QAE?AU01@H@Z 005c31a0 f i glm.obj
 0002:000b0260       ??F?$vec@$03C$01@glm@@QAEAAU01@XZ 005c3260 f i glm.obj
 0002:000b0300       ??F?$vec@$03C$0A@@glm@@QAE?AU01@H@Z 005c3300 f i glm.obj
 0002:000b03c0       ??F?$vec@$03C$0A@@glm@@QAEAAU01@XZ 005c33c0 f i glm.obj
 0002:000b0460       ??F?$vec@$03E$00@glm@@QAE?AU01@H@Z 005c3460 f i glm.obj
 0002:000b0520       ??F?$vec@$03E$00@glm@@QAEAAU01@XZ 005c3520 f i glm.obj
 0002:000b05c0       ??F?$vec@$03E$01@glm@@QAE?AU01@H@Z 005c35c0 f i glm.obj
 0002:000b0680       ??F?$vec@$03E$01@glm@@QAEAAU01@XZ 005c3680 f i glm.obj
 0002:000b0720       ??F?$vec@$03E$0A@@glm@@QAE?AU01@H@Z 005c3720 f i glm.obj
 0002:000b07e0       ??F?$vec@$03E$0A@@glm@@QAEAAU01@XZ 005c37e0 f i glm.obj
 0002:000b0880       ??F?$vec@$03F$00@glm@@QAE?AU01@H@Z 005c3880 f i glm.obj
 0002:000b0950       ??F?$vec@$03F$00@glm@@QAEAAU01@XZ 005c3950 f i glm.obj
 0002:000b0a00       ??F?$vec@$03F$01@glm@@QAE?AU01@H@Z 005c3a00 f i glm.obj
 0002:000b0ad0       ??F?$vec@$03F$01@glm@@QAEAAU01@XZ 005c3ad0 f i glm.obj
 0002:000b0b80       ??F?$vec@$03F$0A@@glm@@QAE?AU01@H@Z 005c3b80 f i glm.obj
 0002:000b0c50       ??F?$vec@$03F$0A@@glm@@QAEAAU01@XZ 005c3c50 f i glm.obj
 0002:000b0d00       ??F?$vec@$03G$00@glm@@QAE?AU01@H@Z 005c3d00 f i glm.obj
 0002:000b0dd0       ??F?$vec@$03G$00@glm@@QAEAAU01@XZ 005c3dd0 f i glm.obj
 0002:000b0e80       ??F?$vec@$03G$01@glm@@QAE?AU01@H@Z 005c3e80 f i glm.obj
 0002:000b0f50       ??F?$vec@$03G$01@glm@@QAEAAU01@XZ 005c3f50 f i glm.obj
 0002:000b1000       ??F?$vec@$03G$0A@@glm@@QAE?AU01@H@Z 005c4000 f i glm.obj
 0002:000b10d0       ??F?$vec@$03G$0A@@glm@@QAEAAU01@XZ 005c40d0 f i glm.obj
 0002:000b1180       ??F?$vec@$03H$00@glm@@QAE?AU01@H@Z 005c4180 f i glm.obj
 0002:000b1260       ??F?$vec@$03H$00@glm@@QAEAAU01@XZ 005c4260 f i glm.obj
 0002:000b1300       ??F?$vec@$03H$01@glm@@QAE?AU01@H@Z 005c4300 f i glm.obj
 0002:000b13e0       ??F?$vec@$03H$01@glm@@QAEAAU01@XZ 005c43e0 f i glm.obj
 0002:000b1480       ??F?$vec@$03H$0A@@glm@@QAE?AU01@H@Z 005c4480 f i glm.obj
 0002:000b1560       ??F?$vec@$03H$0A@@glm@@QAEAAU01@XZ 005c4560 f i glm.obj
 0002:000b1600       ??F?$vec@$03I$00@glm@@QAE?AU01@H@Z 005c4600 f i glm.obj
 0002:000b16e0       ??F?$vec@$03I$00@glm@@QAEAAU01@XZ 005c46e0 f i glm.obj
 0002:000b1780       ??F?$vec@$03I$01@glm@@QAE?AU01@H@Z 005c4780 f i glm.obj
 0002:000b1860       ??F?$vec@$03I$01@glm@@QAEAAU01@XZ 005c4860 f i glm.obj
 0002:000b1900       ??F?$vec@$03I$0A@@glm@@QAE?AU01@H@Z 005c4900 f i glm.obj
 0002:000b19e0       ??F?$vec@$03I$0A@@glm@@QAEAAU01@XZ 005c49e0 f i glm.obj
 0002:000b1a80       ??F?$vec@$03M$00@glm@@QAE?AU01@H@Z 005c4a80 f i glm.obj
 0002:000b1b60       ??F?$vec@$03M$00@glm@@QAEAAU01@XZ 005c4b60 f i glm.obj
 0002:000b1c30       ??F?$vec@$03M$01@glm@@QAE?AU01@H@Z 005c4c30 f i glm.obj
 0002:000b1d10       ??F?$vec@$03M$01@glm@@QAEAAU01@XZ 005c4d10 f i glm.obj
 0002:000b1de0       ??F?$vec@$03M$0A@@glm@@QAE?AU01@H@Z 005c4de0 f i glm.obj
 0002:000b1ec0       ??F?$vec@$03M$0A@@glm@@QAEAAU01@XZ 005c4ec0 f i glm.obj
 0002:000b1f90       ??F?$vec@$03N$00@glm@@QAE?AU01@H@Z 005c4f90 f i glm.obj
 0002:000b2060       ??F?$vec@$03N$00@glm@@QAEAAU01@XZ 005c5060 f i glm.obj
 0002:000b2130       ??F?$vec@$03N$01@glm@@QAE?AU01@H@Z 005c5130 f i glm.obj
 0002:000b2200       ??F?$vec@$03N$01@glm@@QAEAAU01@XZ 005c5200 f i glm.obj
 0002:000b22d0       ??F?$vec@$03N$0A@@glm@@QAE?AU01@H@Z 005c52d0 f i glm.obj
 0002:000b23a0       ??F?$vec@$03N$0A@@glm@@QAEAAU01@XZ 005c53a0 f i glm.obj
 0002:000b2470       ??F?$vec@$03_J$00@glm@@QAE?AU01@H@Z 005c5470 f i glm.obj
 0002:000b2540       ??F?$vec@$03_J$00@glm@@QAEAAU01@XZ 005c5540 f i glm.obj
 0002:000b2610       ??F?$vec@$03_J$01@glm@@QAE?AU01@H@Z 005c5610 f i glm.obj
 0002:000b26e0       ??F?$vec@$03_J$01@glm@@QAEAAU01@XZ 005c56e0 f i glm.obj
 0002:000b27b0       ??F?$vec@$03_J$0A@@glm@@QAE?AU01@H@Z 005c57b0 f i glm.obj
 0002:000b2880       ??F?$vec@$03_J$0A@@glm@@QAEAAU01@XZ 005c5880 f i glm.obj
 0002:000b2950       ??F?$vec@$03_K$00@glm@@QAE?AU01@H@Z 005c5950 f i glm.obj
 0002:000b2a20       ??F?$vec@$03_K$00@glm@@QAEAAU01@XZ 005c5a20 f i glm.obj
 0002:000b2af0       ??F?$vec@$03_K$01@glm@@QAE?AU01@H@Z 005c5af0 f i glm.obj
 0002:000b2bc0       ??F?$vec@$03_K$01@glm@@QAEAAU01@XZ 005c5bc0 f i glm.obj
 0002:000b2c90       ??F?$vec@$03_K$0A@@glm@@QAE?AU01@H@Z 005c5c90 f i glm.obj
 0002:000b2d60       ??F?$vec@$03_K$0A@@glm@@QAEAAU01@XZ 005c5d60 f i glm.obj
 0002:000b2e30       ?call@?$compute_abs@M$00@detail@glm@@SAMM@Z 005c5e30 f i glm.obj
 0002:000b2ec0       ?call@?$compute_abs@N$00@detail@glm@@SANN@Z 005c5ec0 f i glm.obj
 0002:000b2f50       ?call@?$compute_cross@M$00$0A@@detail@glm@@SA?AU?$vec@$02M$00@3@ABU43@0@Z 005c5f50 f i glm.obj
 0002:000b3040       ?call@?$compute_cross@M$01$0A@@detail@glm@@SA?AU?$vec@$02M$01@3@ABU43@0@Z 005c6040 f i glm.obj
 0002:000b3130       ?call@?$compute_cross@M$0A@$0A@@detail@glm@@SA?AU?$vec@$02M$0A@@3@ABU43@0@Z 005c6130 f i glm.obj
 0002:000b3220       ?call@?$compute_cross@N$00$0A@@detail@glm@@SA?AU?$vec@$02N$00@3@ABU43@0@Z 005c6220 f i glm.obj
 0002:000b3310       ?call@?$compute_cross@N$01$0A@@detail@glm@@SA?AU?$vec@$02N$01@3@ABU43@0@Z 005c6310 f i glm.obj
 0002:000b3400       ?call@?$compute_cross@N$0A@$0A@@detail@glm@@SA?AU?$vec@$02N$0A@@3@ABU43@0@Z 005c6400 f i glm.obj
 0002:000b34f0       ?call@?$compute_dot@U?$qua@M$00@glm@@M$0A@@detail@glm@@SAMABU?$qua@M$00@3@0@Z 005c64f0 f i glm.obj
 0002:000b3630       ?call@?$compute_dot@U?$qua@M$01@glm@@M$0A@@detail@glm@@SAMABU?$qua@M$01@3@0@Z 005c6630 f i glm.obj
 0002:000b3770       ?call@?$compute_dot@U?$qua@M$0A@@glm@@M$0A@@detail@glm@@SAMABU?$qua@M$0A@@3@0@Z 005c6770 f i glm.obj
 0002:000b38b0       ?call@?$compute_dot@U?$qua@N$00@glm@@N$0A@@detail@glm@@SANABU?$qua@N$00@3@0@Z 005c68b0 f i glm.obj
 0002:000b3a00       ?call@?$compute_dot@U?$qua@N$01@glm@@N$0A@@detail@glm@@SANABU?$qua@N$01@3@0@Z 005c6a00 f i glm.obj
 0002:000b3b50       ?call@?$compute_dot@U?$qua@N$0A@@glm@@N$0A@@detail@glm@@SANABU?$qua@N$0A@@3@0@Z 005c6b50 f i glm.obj
 0002:000b3ca0       ?call@?$compute_dot@U?$vec@$02M$00@glm@@M$0A@@detail@glm@@SAMABU?$vec@$02M$00@3@0@Z 005c6ca0 f i glm.obj
 0002:000b3d80       ?call@?$compute_dot@U?$vec@$02M$01@glm@@M$0A@@detail@glm@@SAMABU?$vec@$02M$01@3@0@Z 005c6d80 f i glm.obj
 0002:000b3e60       ?call@?$compute_dot@U?$vec@$02M$0A@@glm@@M$0A@@detail@glm@@SAMABU?$vec@$02M$0A@@3@0@Z 005c6e60 f i glm.obj
 0002:000b3f40       ?call@?$compute_dot@U?$vec@$02N$00@glm@@N$0A@@detail@glm@@SANABU?$vec@$02N$00@3@0@Z 005c6f40 f i glm.obj
 0002:000b4020       ?call@?$compute_dot@U?$vec@$02N$01@glm@@N$0A@@detail@glm@@SANABU?$vec@$02N$01@3@0@Z 005c7020 f i glm.obj
 0002:000b4100       ?call@?$compute_dot@U?$vec@$02N$0A@@glm@@N$0A@@detail@glm@@SANABU?$vec@$02N$0A@@3@0@Z 005c7100 f i glm.obj
 0002:000b41e0       ?call@?$functor1@Uvec@glm@@$02MM$00@detail@glm@@SA?AU?$vec@$02M$00@3@P6AMM@ZABU43@@Z 005c71e0 f i glm.obj
 0002:000b42b0       ?call@?$functor1@Uvec@glm@@$02MM$01@detail@glm@@SA?AU?$vec@$02M$01@3@P6AMM@ZABU43@@Z 005c72b0 f i glm.obj
 0002:000b4380       ?call@?$functor1@Uvec@glm@@$02MM$0A@@detail@glm@@SA?AU?$vec@$02M$0A@@3@P6AMM@ZABU43@@Z 005c7380 f i glm.obj
 0002:000b4450       ?call@?$functor1@Uvec@glm@@$02NN$00@detail@glm@@SA?AU?$vec@$02N$00@3@P6ANN@ZABU43@@Z 005c7450 f i glm.obj
 0002:000b4530       ?call@?$functor1@Uvec@glm@@$02NN$01@detail@glm@@SA?AU?$vec@$02N$01@3@P6ANN@ZABU43@@Z 005c7530 f i glm.obj
 0002:000b4610       ?call@?$functor1@Uvec@glm@@$02NN$0A@@detail@glm@@SA?AU?$vec@$02N$0A@@3@P6ANN@ZABU43@@Z 005c7610 f i glm.obj
 0002:000b46f0       ?cos@@YAMM@Z               005c76f0 f i glm.obj
 0002:000b4750       ?length@?$mat@$01$01M$00@glm@@SAHXZ 005c7750 f i glm.obj
 0002:000b47a0       ?length@?$mat@$01$01M$01@glm@@SAHXZ 005c77a0 f i glm.obj
 0002:000b47f0       ?length@?$mat@$01$01M$0A@@glm@@SAHXZ 005c77f0 f i glm.obj
 0002:000b4840       ?length@?$mat@$01$01N$00@glm@@SAHXZ 005c7840 f i glm.obj
 0002:000b4890       ?length@?$mat@$01$01N$01@glm@@SAHXZ 005c7890 f i glm.obj
 0002:000b48e0       ?length@?$mat@$01$01N$0A@@glm@@SAHXZ 005c78e0 f i glm.obj
 0002:000b4930       ?length@?$mat@$01$02M$00@glm@@SAHXZ 005c7930 f i glm.obj
 0002:000b4980       ?length@?$mat@$01$02M$01@glm@@SAHXZ 005c7980 f i glm.obj
 0002:000b49d0       ?length@?$mat@$01$02M$0A@@glm@@SAHXZ 005c79d0 f i glm.obj
 0002:000b4a20       ?length@?$mat@$01$02N$00@glm@@SAHXZ 005c7a20 f i glm.obj
 0002:000b4a70       ?length@?$mat@$01$02N$01@glm@@SAHXZ 005c7a70 f i glm.obj
 0002:000b4ac0       ?length@?$mat@$01$02N$0A@@glm@@SAHXZ 005c7ac0 f i glm.obj
 0002:000b4b10       ?length@?$mat@$01$03M$00@glm@@SAHXZ 005c7b10 f i glm.obj
 0002:000b4b60       ?length@?$mat@$01$03M$01@glm@@SAHXZ 005c7b60 f i glm.obj
 0002:000b4bb0       ?length@?$mat@$01$03M$0A@@glm@@SAHXZ 005c7bb0 f i glm.obj
 0002:000b4c00       ?length@?$mat@$01$03N$00@glm@@SAHXZ 005c7c00 f i glm.obj
 0002:000b4c50       ?length@?$mat@$01$03N$01@glm@@SAHXZ 005c7c50 f i glm.obj
 0002:000b4ca0       ?length@?$mat@$01$03N$0A@@glm@@SAHXZ 005c7ca0 f i glm.obj
 0002:000b4cf0       ?length@?$mat@$02$01M$00@glm@@SAHXZ 005c7cf0 f i glm.obj
 0002:000b4d40       ?length@?$mat@$02$01M$01@glm@@SAHXZ 005c7d40 f i glm.obj
 0002:000b4d90       ?length@?$mat@$02$01M$0A@@glm@@SAHXZ 005c7d90 f i glm.obj
 0002:000b4de0       ?length@?$mat@$02$01N$00@glm@@SAHXZ 005c7de0 f i glm.obj
 0002:000b4e30       ?length@?$mat@$02$01N$01@glm@@SAHXZ 005c7e30 f i glm.obj
 0002:000b4e80       ?length@?$mat@$02$01N$0A@@glm@@SAHXZ 005c7e80 f i glm.obj
 0002:000b4ed0       ?length@?$mat@$02$02M$00@glm@@SAHXZ 005c7ed0 f i glm.obj
 0002:000b4f20       ?length@?$mat@$02$02M$01@glm@@SAHXZ 005c7f20 f i glm.obj
 0002:000b4f70       ?length@?$mat@$02$02M$0A@@glm@@SAHXZ 005c7f70 f i glm.obj
 0002:000b4fc0       ?length@?$mat@$02$02N$00@glm@@SAHXZ 005c7fc0 f i glm.obj
 0002:000b5010       ?length@?$mat@$02$02N$01@glm@@SAHXZ 005c8010 f i glm.obj
 0002:000b5060       ?length@?$mat@$02$02N$0A@@glm@@SAHXZ 005c8060 f i glm.obj
 0002:000b50b0       ?length@?$mat@$02$03M$00@glm@@SAHXZ 005c80b0 f i glm.obj
 0002:000b5100       ?length@?$mat@$02$03M$01@glm@@SAHXZ 005c8100 f i glm.obj
 0002:000b5150       ?length@?$mat@$02$03M$0A@@glm@@SAHXZ 005c8150 f i glm.obj
 0002:000b51a0       ?length@?$mat@$02$03N$00@glm@@SAHXZ 005c81a0 f i glm.obj
 0002:000b51f0       ?length@?$mat@$02$03N$01@glm@@SAHXZ 005c81f0 f i glm.obj
 0002:000b5240       ?length@?$mat@$02$03N$0A@@glm@@SAHXZ 005c8240 f i glm.obj
 0002:000b5290       ?length@?$mat@$03$01M$00@glm@@SAHXZ 005c8290 f i glm.obj
 0002:000b52e0       ?length@?$mat@$03$01M$01@glm@@SAHXZ 005c82e0 f i glm.obj
 0002:000b5330       ?length@?$mat@$03$01M$0A@@glm@@SAHXZ 005c8330 f i glm.obj
 0002:000b5380       ?length@?$mat@$03$01N$00@glm@@SAHXZ 005c8380 f i glm.obj
 0002:000b53d0       ?length@?$mat@$03$01N$01@glm@@SAHXZ 005c83d0 f i glm.obj
 0002:000b5420       ?length@?$mat@$03$01N$0A@@glm@@SAHXZ 005c8420 f i glm.obj
 0002:000b5470       ?length@?$mat@$03$02M$00@glm@@SAHXZ 005c8470 f i glm.obj
 0002:000b54c0       ?length@?$mat@$03$02M$01@glm@@SAHXZ 005c84c0 f i glm.obj
 0002:000b5510       ?length@?$mat@$03$02M$0A@@glm@@SAHXZ 005c8510 f i glm.obj
 0002:000b5560       ?length@?$mat@$03$02N$00@glm@@SAHXZ 005c8560 f i glm.obj
 0002:000b55b0       ?length@?$mat@$03$02N$01@glm@@SAHXZ 005c85b0 f i glm.obj
 0002:000b5600       ?length@?$mat@$03$02N$0A@@glm@@SAHXZ 005c8600 f i glm.obj
 0002:000b5650       ?length@?$mat@$03$03M$00@glm@@SAHXZ 005c8650 f i glm.obj
 0002:000b56a0       ?length@?$mat@$03$03M$01@glm@@SAHXZ 005c86a0 f i glm.obj
 0002:000b56f0       ?length@?$mat@$03$03N$00@glm@@SAHXZ 005c86f0 f i glm.obj
 0002:000b5740       ?length@?$mat@$03$03N$01@glm@@SAHXZ 005c8740 f i glm.obj
 0002:000b5790       ?length@?$mat@$03$03N$0A@@glm@@SAHXZ 005c8790 f i glm.obj
 0002:000b57e0       ?length@?$qua@M$00@glm@@SAHXZ 005c87e0 f i glm.obj
 0002:000b5830       ?length@?$qua@M$01@glm@@SAHXZ 005c8830 f i glm.obj
 0002:000b5880       ?length@?$qua@M$0A@@glm@@SAHXZ 005c8880 f i glm.obj
 0002:000b58d0       ?length@?$qua@N$00@glm@@SAHXZ 005c88d0 f i glm.obj
 0002:000b5920       ?length@?$qua@N$01@glm@@SAHXZ 005c8920 f i glm.obj
 0002:000b5970       ?length@?$qua@N$0A@@glm@@SAHXZ 005c8970 f i glm.obj
 0002:000b59c0       ?length@?$tdualquat@M$00@glm@@SAHXZ 005c89c0 f i glm.obj
 0002:000b5a10       ?length@?$tdualquat@M$01@glm@@SAHXZ 005c8a10 f i glm.obj
 0002:000b5a60       ?length@?$tdualquat@M$0A@@glm@@SAHXZ 005c8a60 f i glm.obj
 0002:000b5ab0       ?length@?$tdualquat@N$00@glm@@SAHXZ 005c8ab0 f i glm.obj
 0002:000b5b00       ?length@?$tdualquat@N$01@glm@@SAHXZ 005c8b00 f i glm.obj
 0002:000b5b50       ?length@?$tdualquat@N$0A@@glm@@SAHXZ 005c8b50 f i glm.obj
 0002:000b5ba0       ?length@?$vec@$00C$00@glm@@SAHXZ 005c8ba0 f i glm.obj
 0002:000b5bf0       ?length@?$vec@$00C$01@glm@@SAHXZ 005c8bf0 f i glm.obj
 0002:000b5c40       ?length@?$vec@$00C$0A@@glm@@SAHXZ 005c8c40 f i glm.obj
 0002:000b5c90       ?length@?$vec@$00E$00@glm@@SAHXZ 005c8c90 f i glm.obj
 0002:000b5ce0       ?length@?$vec@$00E$01@glm@@SAHXZ 005c8ce0 f i glm.obj
 0002:000b5d30       ?length@?$vec@$00E$0A@@glm@@SAHXZ 005c8d30 f i glm.obj
 0002:000b5d80       ?length@?$vec@$00F$00@glm@@SAHXZ 005c8d80 f i glm.obj
 0002:000b5dd0       ?length@?$vec@$00F$01@glm@@SAHXZ 005c8dd0 f i glm.obj
 0002:000b5e20       ?length@?$vec@$00F$0A@@glm@@SAHXZ 005c8e20 f i glm.obj
 0002:000b5e70       ?length@?$vec@$00G$00@glm@@SAHXZ 005c8e70 f i glm.obj
 0002:000b5ec0       ?length@?$vec@$00G$01@glm@@SAHXZ 005c8ec0 f i glm.obj
 0002:000b5f10       ?length@?$vec@$00G$0A@@glm@@SAHXZ 005c8f10 f i glm.obj
 0002:000b5f60       ?length@?$vec@$00H$00@glm@@SAHXZ 005c8f60 f i glm.obj
 0002:000b5fb0       ?length@?$vec@$00H$01@glm@@SAHXZ 005c8fb0 f i glm.obj
 0002:000b6000       ?length@?$vec@$00H$0A@@glm@@SAHXZ 005c9000 f i glm.obj
 0002:000b6050       ?length@?$vec@$00I$00@glm@@SAHXZ 005c9050 f i glm.obj
 0002:000b60a0       ?length@?$vec@$00I$01@glm@@SAHXZ 005c90a0 f i glm.obj
 0002:000b60f0       ?length@?$vec@$00I$0A@@glm@@SAHXZ 005c90f0 f i glm.obj
 0002:000b6140       ?length@?$vec@$00M$00@glm@@SAHXZ 005c9140 f i glm.obj
 0002:000b6190       ?length@?$vec@$00M$01@glm@@SAHXZ 005c9190 f i glm.obj
 0002:000b61e0       ?length@?$vec@$00M$0A@@glm@@SAHXZ 005c91e0 f i glm.obj
 0002:000b6230       ?length@?$vec@$00N$00@glm@@SAHXZ 005c9230 f i glm.obj
 0002:000b6280       ?length@?$vec@$00N$01@glm@@SAHXZ 005c9280 f i glm.obj
 0002:000b62d0       ?length@?$vec@$00N$0A@@glm@@SAHXZ 005c92d0 f i glm.obj
 0002:000b6320       ?length@?$vec@$00_J$00@glm@@SAHXZ 005c9320 f i glm.obj
 0002:000b6370       ?length@?$vec@$00_J$01@glm@@SAHXZ 005c9370 f i glm.obj
 0002:000b63c0       ?length@?$vec@$00_J$0A@@glm@@SAHXZ 005c93c0 f i glm.obj
 0002:000b6410       ?length@?$vec@$00_K$00@glm@@SAHXZ 005c9410 f i glm.obj
 0002:000b6460       ?length@?$vec@$00_K$01@glm@@SAHXZ 005c9460 f i glm.obj
 0002:000b64b0       ?length@?$vec@$00_K$0A@@glm@@SAHXZ 005c94b0 f i glm.obj
 0002:000b6500       ?length@?$vec@$01C$00@glm@@SAHXZ 005c9500 f i glm.obj
 0002:000b6550       ?length@?$vec@$01C$01@glm@@SAHXZ 005c9550 f i glm.obj
 0002:000b65a0       ?length@?$vec@$01C$0A@@glm@@SAHXZ 005c95a0 f i glm.obj
 0002:000b65f0       ?length@?$vec@$01E$00@glm@@SAHXZ 005c95f0 f i glm.obj
 0002:000b6640       ?length@?$vec@$01E$01@glm@@SAHXZ 005c9640 f i glm.obj
 0002:000b6690       ?length@?$vec@$01E$0A@@glm@@SAHXZ 005c9690 f i glm.obj
 0002:000b66e0       ?length@?$vec@$01F$00@glm@@SAHXZ 005c96e0 f i glm.obj
 0002:000b6730       ?length@?$vec@$01F$01@glm@@SAHXZ 005c9730 f i glm.obj
 0002:000b6780       ?length@?$vec@$01F$0A@@glm@@SAHXZ 005c9780 f i glm.obj
 0002:000b67d0       ?length@?$vec@$01G$00@glm@@SAHXZ 005c97d0 f i glm.obj
 0002:000b6820       ?length@?$vec@$01G$01@glm@@SAHXZ 005c9820 f i glm.obj
 0002:000b6870       ?length@?$vec@$01G$0A@@glm@@SAHXZ 005c9870 f i glm.obj
 0002:000b68c0       ?length@?$vec@$01H$00@glm@@SAHXZ 005c98c0 f i glm.obj
 0002:000b6910       ?length@?$vec@$01H$01@glm@@SAHXZ 005c9910 f i glm.obj
 0002:000b6960       ?length@?$vec@$01H$0A@@glm@@SAHXZ 005c9960 f i glm.obj
 0002:000b69b0       ?length@?$vec@$01I$00@glm@@SAHXZ 005c99b0 f i glm.obj
 0002:000b6a00       ?length@?$vec@$01I$01@glm@@SAHXZ 005c9a00 f i glm.obj
 0002:000b6a50       ?length@?$vec@$01I$0A@@glm@@SAHXZ 005c9a50 f i glm.obj
 0002:000b6aa0       ?length@?$vec@$01M$00@glm@@SAHXZ 005c9aa0 f i glm.obj
 0002:000b6af0       ?length@?$vec@$01M$01@glm@@SAHXZ 005c9af0 f i glm.obj
 0002:000b6b40       ?length@?$vec@$01M$0A@@glm@@SAHXZ 005c9b40 f i glm.obj
 0002:000b6b90       ?length@?$vec@$01N$00@glm@@SAHXZ 005c9b90 f i glm.obj
 0002:000b6be0       ?length@?$vec@$01N$01@glm@@SAHXZ 005c9be0 f i glm.obj
 0002:000b6c30       ?length@?$vec@$01N$0A@@glm@@SAHXZ 005c9c30 f i glm.obj
 0002:000b6c80       ?length@?$vec@$01_J$00@glm@@SAHXZ 005c9c80 f i glm.obj
 0002:000b6cd0       ?length@?$vec@$01_J$01@glm@@SAHXZ 005c9cd0 f i glm.obj
 0002:000b6d20       ?length@?$vec@$01_J$0A@@glm@@SAHXZ 005c9d20 f i glm.obj
 0002:000b6d70       ?length@?$vec@$01_K$00@glm@@SAHXZ 005c9d70 f i glm.obj
 0002:000b6dc0       ?length@?$vec@$01_K$01@glm@@SAHXZ 005c9dc0 f i glm.obj
 0002:000b6e10       ?length@?$vec@$01_K$0A@@glm@@SAHXZ 005c9e10 f i glm.obj
 0002:000b6e60       ?length@?$vec@$02C$00@glm@@SAHXZ 005c9e60 f i glm.obj
 0002:000b6eb0       ?length@?$vec@$02C$01@glm@@SAHXZ 005c9eb0 f i glm.obj
 0002:000b6f00       ?length@?$vec@$02C$0A@@glm@@SAHXZ 005c9f00 f i glm.obj
 0002:000b6f50       ?length@?$vec@$02E$00@glm@@SAHXZ 005c9f50 f i glm.obj
 0002:000b6fa0       ?length@?$vec@$02E$01@glm@@SAHXZ 005c9fa0 f i glm.obj
 0002:000b6ff0       ?length@?$vec@$02E$0A@@glm@@SAHXZ 005c9ff0 f i glm.obj
 0002:000b7040       ?length@?$vec@$02F$00@glm@@SAHXZ 005ca040 f i glm.obj
 0002:000b7090       ?length@?$vec@$02F$01@glm@@SAHXZ 005ca090 f i glm.obj
 0002:000b70e0       ?length@?$vec@$02F$0A@@glm@@SAHXZ 005ca0e0 f i glm.obj
 0002:000b7130       ?length@?$vec@$02G$00@glm@@SAHXZ 005ca130 f i glm.obj
 0002:000b7180       ?length@?$vec@$02G$01@glm@@SAHXZ 005ca180 f i glm.obj
 0002:000b71d0       ?length@?$vec@$02G$0A@@glm@@SAHXZ 005ca1d0 f i glm.obj
 0002:000b7220       ?length@?$vec@$02H$00@glm@@SAHXZ 005ca220 f i glm.obj
 0002:000b7270       ?length@?$vec@$02H$01@glm@@SAHXZ 005ca270 f i glm.obj
 0002:000b72c0       ?length@?$vec@$02H$0A@@glm@@SAHXZ 005ca2c0 f i glm.obj
 0002:000b7310       ?length@?$vec@$02I$00@glm@@SAHXZ 005ca310 f i glm.obj
 0002:000b7360       ?length@?$vec@$02I$01@glm@@SAHXZ 005ca360 f i glm.obj
 0002:000b73b0       ?length@?$vec@$02I$0A@@glm@@SAHXZ 005ca3b0 f i glm.obj
 0002:000b7400       ?length@?$vec@$02M$00@glm@@SAHXZ 005ca400 f i glm.obj
 0002:000b7450       ?length@?$vec@$02M$01@glm@@SAHXZ 005ca450 f i glm.obj
 0002:000b74a0       ?length@?$vec@$02N$00@glm@@SAHXZ 005ca4a0 f i glm.obj
 0002:000b74f0       ?length@?$vec@$02N$01@glm@@SAHXZ 005ca4f0 f i glm.obj
 0002:000b7540       ?length@?$vec@$02N$0A@@glm@@SAHXZ 005ca540 f i glm.obj
 0002:000b7590       ?length@?$vec@$02_J$00@glm@@SAHXZ 005ca590 f i glm.obj
 0002:000b75e0       ?length@?$vec@$02_J$01@glm@@SAHXZ 005ca5e0 f i glm.obj
 0002:000b7630       ?length@?$vec@$02_J$0A@@glm@@SAHXZ 005ca630 f i glm.obj
 0002:000b7680       ?length@?$vec@$02_K$00@glm@@SAHXZ 005ca680 f i glm.obj
 0002:000b76d0       ?length@?$vec@$02_K$01@glm@@SAHXZ 005ca6d0 f i glm.obj
 0002:000b7720       ?length@?$vec@$02_K$0A@@glm@@SAHXZ 005ca720 f i glm.obj
 0002:000b7770       ?length@?$vec@$03C$00@glm@@SAHXZ 005ca770 f i glm.obj
 0002:000b77c0       ?length@?$vec@$03C$01@glm@@SAHXZ 005ca7c0 f i glm.obj
 0002:000b7810       ?length@?$vec@$03C$0A@@glm@@SAHXZ 005ca810 f i glm.obj
 0002:000b7860       ?length@?$vec@$03E$00@glm@@SAHXZ 005ca860 f i glm.obj
 0002:000b78b0       ?length@?$vec@$03E$01@glm@@SAHXZ 005ca8b0 f i glm.obj
 0002:000b7900       ?length@?$vec@$03E$0A@@glm@@SAHXZ 005ca900 f i glm.obj
 0002:000b7950       ?length@?$vec@$03F$00@glm@@SAHXZ 005ca950 f i glm.obj
 0002:000b79a0       ?length@?$vec@$03F$01@glm@@SAHXZ 005ca9a0 f i glm.obj
 0002:000b79f0       ?length@?$vec@$03F$0A@@glm@@SAHXZ 005ca9f0 f i glm.obj
 0002:000b7a40       ?length@?$vec@$03G$00@glm@@SAHXZ 005caa40 f i glm.obj
 0002:000b7a90       ?length@?$vec@$03G$01@glm@@SAHXZ 005caa90 f i glm.obj
 0002:000b7ae0       ?length@?$vec@$03G$0A@@glm@@SAHXZ 005caae0 f i glm.obj
 0002:000b7b30       ?length@?$vec@$03H$00@glm@@SAHXZ 005cab30 f i glm.obj
 0002:000b7b80       ?length@?$vec@$03H$01@glm@@SAHXZ 005cab80 f i glm.obj
 0002:000b7bd0       ?length@?$vec@$03H$0A@@glm@@SAHXZ 005cabd0 f i glm.obj
 0002:000b7c20       ?length@?$vec@$03I$00@glm@@SAHXZ 005cac20 f i glm.obj
 0002:000b7c70       ?length@?$vec@$03I$01@glm@@SAHXZ 005cac70 f i glm.obj
 0002:000b7cc0       ?length@?$vec@$03I$0A@@glm@@SAHXZ 005cacc0 f i glm.obj
 0002:000b7d10       ?length@?$vec@$03M$00@glm@@SAHXZ 005cad10 f i glm.obj
 0002:000b7d60       ?length@?$vec@$03M$01@glm@@SAHXZ 005cad60 f i glm.obj
 0002:000b7db0       ?length@?$vec@$03N$00@glm@@SAHXZ 005cadb0 f i glm.obj
 0002:000b7e00       ?length@?$vec@$03N$01@glm@@SAHXZ 005cae00 f i glm.obj
 0002:000b7e50       ?length@?$vec@$03N$0A@@glm@@SAHXZ 005cae50 f i glm.obj
 0002:000b7ea0       ?length@?$vec@$03_J$00@glm@@SAHXZ 005caea0 f i glm.obj
 0002:000b7ef0       ?length@?$vec@$03_J$01@glm@@SAHXZ 005caef0 f i glm.obj
 0002:000b7f40       ?length@?$vec@$03_J$0A@@glm@@SAHXZ 005caf40 f i glm.obj
 0002:000b7f90       ?length@?$vec@$03_K$00@glm@@SAHXZ 005caf90 f i glm.obj
 0002:000b7fe0       ?length@?$vec@$03_K$01@glm@@SAHXZ 005cafe0 f i glm.obj
 0002:000b8030       ?length@?$vec@$03_K$0A@@glm@@SAHXZ 005cb030 f i glm.obj
 0002:000b8080       ?sin@@YAMM@Z               005cb080 f i glm.obj
 0002:000b80e0       _cosf                      005cb0e0 f i glm.obj
 0002:000b8150       _sinf                      005cb150 f i glm.obj
 0002:000b8280       ??$IM_DELETE@D@@YAXPAD@Z   005cb280 f i imgui.obj
 0002:000b82e0       ??$IM_DELETE@UImDrawList@@@@YAXPAUImDrawList@@@Z 005cb2e0 f i imgui.obj
 0002:000b8350       ??$IM_DELETE@UImFontAtlas@@@@YAXPAUImFontAtlas@@@Z 005cb350 f i imgui.obj
 0002:000b83c0       ??$IM_DELETE@UImGuiContext@@@@YAXPAUImGuiContext@@@Z 005cb3c0 f i imgui.obj
 0002:000b8430       ??$IM_DELETE@UImGuiViewportP@@@@YAXPAUImGuiViewportP@@@Z 005cb430 f i imgui.obj
 0002:000b84a0       ??$IM_DELETE@UImGuiWindow@@@@YAXPAUImGuiWindow@@@Z 005cb4a0 f i imgui.obj
 0002:000b8ab0       ??0?$ImBitArray@$0CIM@$0A@@@QAE@XZ 005cbab0 f i imgui.obj
 0002:000b8b10       ??0?$ImChunkStream@UImGuiTableSettings@@@@QAE@XZ 005cbb10 f i imgui.obj
 0002:000b8b60       ??0?$ImChunkStream@UImGuiWindowSettings@@@@QAE@XZ 005cbb60 f i imgui.obj
 0002:000b8bb0       ??0?$ImPool@UImGuiTabBar@@@@QAE@XZ 005cbbb0 f i imgui.obj
 0002:000b8c80       ??0?$ImPool@UImGuiTable@@@@QAE@XZ 005cbc80 f i imgui.obj
 0002:000b8d50       ??0?$ImVector@D@@QAE@XZ    005cbd50 f i imgui.obj
 0002:000b8dd0       ??0?$ImVector@E@@QAE@XZ    005cbdd0 f i imgui.obj
 0002:000b8e50       ??0?$ImVector@G@@QAE@XZ    005cbe50 f i imgui.obj
 0002:000b8ed0       ??0?$ImVector@H@@QAE@XZ    005cbed0 f i imgui.obj
 0002:000b8f50       ??0?$ImVector@I@@QAE@XZ    005cbf50 f i imgui.obj
 0002:000b8fd0       ??0?$ImVector@M@@QAE@XZ    005cbfd0 f i imgui.obj
 0002:000b9050       ??0?$ImVector@PAUImDrawList@@@@QAE@XZ 005cc050 f i imgui.obj
 0002:000b90d0       ??0?$ImVector@PAUImFont@@@@QAE@XZ 005cc0d0 f i imgui.obj
 0002:000b9150       ??0?$ImVector@PAUImGuiViewportP@@@@QAE@XZ 005cc150 f i imgui.obj
 0002:000b91d0       ??0?$ImVector@PAUImGuiWindow@@@@QAE@XZ 005cc1d0 f i imgui.obj
 0002:000b9250       ??0?$ImVector@PAX@@QAE@XZ  005cc250 f i imgui.obj
 0002:000b92d0       ??0?$ImVector@UImDrawChannel@@@@QAE@XZ 005cc2d0 f i imgui.obj
 0002:000b9350       ??0?$ImVector@UImDrawCmd@@@@QAE@XZ 005cc350 f i imgui.obj
 0002:000b93d0       ??0?$ImVector@UImDrawVert@@@@QAE@XZ 005cc3d0 f i imgui.obj
 0002:000b9450       ??0?$ImVector@UImGuiColorMod@@@@QAE@XZ 005cc450 f i imgui.obj
 0002:000b94d0       ??0?$ImVector@UImGuiContextHook@@@@QAE@XZ 005cc4d0 f i imgui.obj
 0002:000b9550       ??0?$ImVector@UImGuiGroupData@@@@QAE@XZ 005cc550 f i imgui.obj
 0002:000b95d0       ??0?$ImVector@UImGuiInputEvent@@@@QAE@XZ 005cc5d0 f i imgui.obj
 0002:000b9650       ??0?$ImVector@UImGuiKeyRoutingData@@@@QAE@XZ 005cc650 f i imgui.obj
 0002:000b96d0       ??0?$ImVector@UImGuiListClipperData@@@@QAE@XZ 005cc6d0 f i imgui.obj
 0002:000b9750       ??0?$ImVector@UImGuiListClipperRange@@@@QAE@XZ 005cc750 f i imgui.obj
 0002:000b97d0       ??0?$ImVector@UImGuiOldColumns@@@@QAE@XZ 005cc7d0 f i imgui.obj
 0002:000b9850       ??0?$ImVector@UImGuiPopupData@@@@QAE@XZ 005cc850 f i imgui.obj
 0002:000b98d0       ??0?$ImVector@UImGuiPtrOrIndex@@@@QAE@XZ 005cc8d0 f i imgui.obj
 0002:000b9950       ??0?$ImVector@UImGuiSettingsHandler@@@@QAE@XZ 005cc950 f i imgui.obj
 0002:000b99d0       ??0?$ImVector@UImGuiShrinkWidthItem@@@@QAE@XZ 005cc9d0 f i imgui.obj
 0002:000b9a50       ??0?$ImVector@UImGuiStackLevelInfo@@@@QAE@XZ 005cca50 f i imgui.obj
 0002:000b9ad0       ??0?$ImVector@UImGuiStoragePair@ImGuiStorage@@@@QAE@XZ 005ccad0 f i imgui.obj
 0002:000b9b50       ??0?$ImVector@UImGuiStyleMod@@@@QAE@XZ 005ccb50 f i imgui.obj
 0002:000b9bd0       ??0?$ImVector@UImGuiTabBar@@@@QAE@XZ 005ccbd0 f i imgui.obj
 0002:000b9c50       ??0?$ImVector@UImGuiTable@@@@QAE@XZ 005ccc50 f i imgui.obj
 0002:000b9cd0       ??0?$ImVector@UImGuiTableTempData@@@@QAE@XZ 005cccd0 f i imgui.obj
 0002:000b9d50       ??0?$ImVector@UImGuiTextRange@ImGuiTextFilter@@@@QAE@XZ 005ccd50 f i imgui.obj
 0002:000b9dd0       ??0?$ImVector@UImGuiWindowStackData@@@@QAE@XZ 005ccdd0 f i imgui.obj
 0002:000b9e50       ??0?$ImVector@UImVec2@@@@QAE@XZ 005cce50 f i imgui.obj
 0002:000b9ed0       ??0?$ImVector@UImVec4@@@@QAE@XZ 005cced0 f i imgui.obj
 0002:000b9f50       ??0ImDrawCmdHeader@@QAE@XZ 005ccf50 f i imgui.obj
 0002:000b9fa0       ??0ImDrawData@@QAE@XZ      005ccfa0 f i imgui.obj
 0002:000ba030       ??0ImDrawDataBuilder@@QAE@XZ 005cd030 f i imgui.obj
 0002:000ba0a0       ??0ImDrawList@@QAE@PAUImDrawListSharedData@@@Z 005cd0a0 f i imgui.obj
 0002:000ba1e0       ??0ImDrawListSplitter@@QAE@XZ 005cd1e0 f i imgui.obj
 0002:000ba260       ??0ImGuiColorMod@@QAE@XZ   005cd260 f i imgui.obj
 0002:000ba2c0       ??0ImGuiComboPreviewData@@QAE@XZ 005cd2c0 f i imgui.obj
 0002:000ba360       ??0ImGuiContext@@QAE@PAUImFontAtlas@@@Z 005cd360 f i imgui.obj
 0002:000bb570       ??0ImGuiIO@@QAE@XZ         005ce570 f   imgui.obj
 0002:000bbad0       ??0ImGuiInputEvent@@QAE@XZ 005cead0 f i imgui.obj
 0002:000bbb40       ??0ImGuiInputTextState@@QAE@PAUImGuiContext@@@Z 005ceb40 f i imgui.obj
 0002:000bbc30       ??0ImGuiKeyOwnerData@@QAE@XZ 005cec30 f i imgui.obj
 0002:000bbcb0       ??0ImGuiKeyRoutingData@@QAE@XZ 005cecb0 f i imgui.obj
 0002:000bbd40       ??0ImGuiKeyRoutingTable@@QAE@XZ 005ced40 f i imgui.obj
 0002:000bbe10       ??0ImGuiLastItemData@@QAE@XZ 005cee10 f i imgui.obj
 0002:000bbea0       ??0ImGuiListClipper@@QAE@XZ 005ceea0 f   imgui.obj
 0002:000bbf20       ??0ImGuiListClipperData@@QAE@XZ 005cef20 f i imgui.obj
 0002:000bbfa0       ??0ImGuiMenuColumns@@QAE@XZ 005cefa0 f i imgui.obj
 0002:000bc010       ??0ImGuiMetricsConfig@@QAE@XZ 005cf010 f i imgui.obj
 0002:000bc0c0       ??0ImGuiNavItemData@@QAE@XZ 005cf0c0 f i imgui.obj
 0002:000bc130       ??0ImGuiNextItemData@@QAE@XZ 005cf130 f i imgui.obj
 0002:000bc1a0       ??0ImGuiNextWindowData@@QAE@XZ 005cf1a0 f i imgui.obj
 0002:000bc270       ??0ImGuiPayload@@QAE@XZ    005cf270 f i imgui.obj
 0002:000bc2d0       ??0ImGuiPlatformImeData@@QAE@XZ 005cf2d0 f i imgui.obj
 0002:000bc350       ??0ImGuiPopupData@@QAE@XZ  005cf350 f i imgui.obj
 0002:000bc3f0       ??0ImGuiSettingsHandler@@QAE@XZ 005cf3f0 f i imgui.obj
 0002:000bc460       ??0ImGuiSizeCallbackData@@QAE@XZ 005cf460 f i imgui.obj
 0002:000bc4d0       ??0ImGuiStackLevelInfo@@QAE@XZ 005cf4d0 f i imgui.obj
 0002:000bc540       ??0ImGuiStackSizes@@QAE@XZ 005cf540 f i imgui.obj
 0002:000bc5b0       ??0ImGuiStackTool@@QAE@XZ  005cf5b0 f i imgui.obj
 0002:000bc640       ??0ImGuiStorage@@QAE@XZ    005cf640 f i imgui.obj
 0002:000bc690       ??0ImGuiStoragePair@ImGuiStorage@@QAE@IH@Z 005cf690 f i imgui.obj
 0002:000bc700       ??0ImGuiStoragePair@ImGuiStorage@@QAE@IM@Z 005cf700 f i imgui.obj
 0002:000bc770       ??0ImGuiStoragePair@ImGuiStorage@@QAE@IPAX@Z 005cf770 f i imgui.obj
 0002:000bc7e0       ??0ImGuiStyle@@QAE@XZ      005cf7e0 f   imgui.obj
 0002:000bce30       ??0ImGuiStyleMod@@QAE@HM@Z 005cfe30 f i imgui.obj
 0002:000bceb0       ??0ImGuiStyleMod@@QAE@HUImVec2@@@Z 005cfeb0 f i imgui.obj
 0002:000bcf50       ??0ImGuiTextBuffer@@QAE@XZ 005cff50 f i imgui.obj
 0002:000bcfb0       ??0ImGuiTextFilter@@QAE@PBD@Z 005cffb0 f   imgui.obj
 0002:000bd0b0       ??0ImGuiTextIndex@@QAE@XZ  005d00b0 f i imgui.obj
 0002:000bd110       ??0ImGuiTextRange@ImGuiTextFilter@@QAE@PBD0@Z 005d0110 f i imgui.obj
 0002:000bd180       ??0ImGuiViewport@@QAE@XZ   005d0180 f i imgui.obj
 0002:000bd220       ??0ImGuiViewportP@@QAE@XZ  005d0220 f i imgui.obj
 0002:000bd380       ??0ImGuiWindow@@QAE@PAUImGuiContext@@PBD@Z 005d0380 f   imgui.obj
 0002:000bd8f0       ??0ImGuiWindowSettings@@QAE@XZ 005d08f0 f i imgui.obj
 0002:000bd970       ??0ImGuiWindowStackData@@QAE@XZ 005d0970 f i imgui.obj
 0002:000bd9d0       ??0ImGuiWindowTempData@@QAE@XZ 005d09d0 f i imgui.obj
 0002:000bdb50       ??0ImRect@@QAE@ABUImVec2@@0@Z 005d0b50 f i imgui.obj
 0002:000bdbb0       ??0ImRect@@QAE@ABUImVec4@@@Z 005d0bb0 f i imgui.obj
 0002:000bdc40       ??0ImRect@@QAE@MMMM@Z      005d0c40 f i imgui.obj
 0002:000bdcc0       ??0ImRect@@QAE@XZ          005d0cc0 f i imgui.obj
 0002:000bdd30       ??0ImVec1@@QAE@XZ          005d0d30 f i imgui.obj
 0002:000bdd70       ??0ImVec2@@QAE@XZ          005d0d70 f i imgui.obj
 0002:000bddc0       ??0ImVec2ih@@QAE@ABUImVec2@@@Z 005d0dc0 f i imgui.obj
 0002:000bde10       ??0ImVec2ih@@QAE@FF@Z      005d0e10 f i imgui.obj
 0002:000bde60       ??0ImVec2ih@@QAE@XZ        005d0e60 f i imgui.obj
 0002:000bdea0       ??0ImVec4@@QAE@MMMM@Z      005d0ea0 f i imgui.obj
 0002:000bdf10       ??0ImVec4@@QAE@XZ          005d0f10 f i imgui.obj
 0002:000bdf70       ??1?$ImChunkStream@UImGuiTableSettings@@@@QAE@XZ 005d0f70 f i imgui.obj
 0002:000bdfc0       ??1?$ImChunkStream@UImGuiWindowSettings@@@@QAE@XZ 005d0fc0 f i imgui.obj
 0002:000be010       ??1?$ImPool@UImGuiTabBar@@@@QAE@XZ 005d1010 f i imgui.obj
 0002:000be0c0       ??1?$ImPool@UImGuiTable@@@@QAE@XZ 005d10c0 f i imgui.obj
 0002:000be170       ??1?$ImVector@D@@QAE@XZ    005d1170 f i imgui.obj
 0002:000be220       ??1?$ImVector@E@@QAE@XZ    005d1220 f i imgui.obj
 0002:000be2d0       ??1?$ImVector@H@@QAE@XZ    005d12d0 f i imgui.obj
 0002:000be380       ??1?$ImVector@I@@QAE@XZ    005d1380 f i imgui.obj
 0002:000be430       ??1?$ImVector@M@@QAE@XZ    005d1430 f i imgui.obj
 0002:000be4e0       ??1?$ImVector@PAUImDrawList@@@@QAE@XZ 005d14e0 f i imgui.obj
 0002:000be590       ??1?$ImVector@PAUImFont@@@@QAE@XZ 005d1590 f i imgui.obj
 0002:000be640       ??1?$ImVector@PAUImGuiViewportP@@@@QAE@XZ 005d1640 f i imgui.obj
 0002:000be6f0       ??1?$ImVector@PAUImGuiWindow@@@@QAE@XZ 005d16f0 f i imgui.obj
 0002:000be7a0       ??1?$ImVector@PAX@@QAE@XZ  005d17a0 f i imgui.obj
 0002:000be850       ??1?$ImVector@UImDrawChannel@@@@QAE@XZ 005d1850 f i imgui.obj
 0002:000be900       ??1?$ImVector@UImDrawCmd@@@@QAE@XZ 005d1900 f i imgui.obj
 0002:000be9b0       ??1?$ImVector@UImDrawVert@@@@QAE@XZ 005d19b0 f i imgui.obj
 0002:000bea60       ??1?$ImVector@UImGuiColorMod@@@@QAE@XZ 005d1a60 f i imgui.obj
 0002:000beb10       ??1?$ImVector@UImGuiContextHook@@@@QAE@XZ 005d1b10 f i imgui.obj
 0002:000bebc0       ??1?$ImVector@UImGuiGroupData@@@@QAE@XZ 005d1bc0 f i imgui.obj
 0002:000bec70       ??1?$ImVector@UImGuiInputEvent@@@@QAE@XZ 005d1c70 f i imgui.obj
 0002:000bed20       ??1?$ImVector@UImGuiKeyRoutingData@@@@QAE@XZ 005d1d20 f i imgui.obj
 0002:000bedd0       ??1?$ImVector@UImGuiListClipperData@@@@QAE@XZ 005d1dd0 f i imgui.obj
 0002:000bee80       ??1?$ImVector@UImGuiListClipperRange@@@@QAE@XZ 005d1e80 f i imgui.obj
 0002:000bef30       ??1?$ImVector@UImGuiOldColumnData@@@@QAE@XZ 005d1f30 f i imgui.obj
 0002:000befe0       ??1?$ImVector@UImGuiOldColumns@@@@QAE@XZ 005d1fe0 f i imgui.obj
 0002:000bf090       ??1?$ImVector@UImGuiPopupData@@@@QAE@XZ 005d2090 f i imgui.obj
 0002:000bf140       ??1?$ImVector@UImGuiPtrOrIndex@@@@QAE@XZ 005d2140 f i imgui.obj
 0002:000bf1f0       ??1?$ImVector@UImGuiSettingsHandler@@@@QAE@XZ 005d21f0 f i imgui.obj
 0002:000bf2a0       ??1?$ImVector@UImGuiShrinkWidthItem@@@@QAE@XZ 005d22a0 f i imgui.obj
 0002:000bf350       ??1?$ImVector@UImGuiStackLevelInfo@@@@QAE@XZ 005d2350 f i imgui.obj
 0002:000bf400       ??1?$ImVector@UImGuiStoragePair@ImGuiStorage@@@@QAE@XZ 005d2400 f i imgui.obj
 0002:000bf4b0       ??1?$ImVector@UImGuiStyleMod@@@@QAE@XZ 005d24b0 f i imgui.obj
 0002:000bf560       ??1?$ImVector@UImGuiTabBar@@@@QAE@XZ 005d2560 f i imgui.obj
 0002:000bf610       ??1?$ImVector@UImGuiTabItem@@@@QAE@XZ 005d2610 f i imgui.obj
 0002:000bf6c0       ??1?$ImVector@UImGuiTable@@@@QAE@XZ 005d26c0 f i imgui.obj
 0002:000bf770       ??1?$ImVector@UImGuiTableColumnSortSpecs@@@@QAE@XZ 005d2770 f i imgui.obj
 0002:000bf820       ??1?$ImVector@UImGuiTableInstanceData@@@@QAE@XZ 005d2820 f i imgui.obj
 0002:000bf8d0       ??1?$ImVector@UImGuiTableTempData@@@@QAE@XZ 005d28d0 f i imgui.obj
 0002:000bf980       ??1?$ImVector@UImGuiTextRange@ImGuiTextFilter@@@@QAE@XZ 005d2980 f i imgui.obj
 0002:000bfa30       ??1?$ImVector@UImGuiWindowStackData@@@@QAE@XZ 005d2a30 f i imgui.obj
 0002:000bfae0       ??1?$ImVector@UImVec2@@@@QAE@XZ 005d2ae0 f i imgui.obj
 0002:000bfb90       ??1?$ImVector@UImVec4@@@@QAE@XZ 005d2b90 f i imgui.obj
 0002:000bfc40       ??1ImDrawDataBuilder@@QAE@XZ 005d2c40 f i imgui.obj
 0002:000bfce0       ??1ImDrawList@@QAE@XZ      005d2ce0 f i imgui.obj
 0002:000bfdd0       ??1ImDrawListSharedData@@QAE@XZ 005d2dd0 f i imgui.obj
 0002:000bfe20       ??1ImDrawListSplitter@@QAE@XZ 005d2e20 f i imgui.obj
 0002:000bfec0       ??1ImGuiContext@@QAE@XZ    005d2ec0 f i imgui.obj
 0002:000c01e0       ??1ImGuiInputTextState@@QAE@XZ 005d31e0 f i imgui.obj
 0002:000c0250       ??1ImGuiKeyRoutingTable@@QAE@XZ 005d3250 f i imgui.obj
 0002:000c02c0       ??1ImGuiListClipper@@QAE@XZ 005d32c0 f   imgui.obj
 0002:000c0360       ??1ImGuiListClipperData@@QAE@XZ 005d3360 f i imgui.obj
 0002:000c03b0       ??1ImGuiOldColumns@@QAE@XZ 005d33b0 f i imgui.obj
 0002:000c0410       ??1ImGuiStackTool@@QAE@XZ  005d3410 f i imgui.obj
 0002:000c0460       ??1ImGuiStorage@@QAE@XZ    005d3460 f i imgui.obj
 0002:000c04b0       ??1ImGuiTabBar@@QAE@XZ     005d34b0 f i imgui.obj
 0002:000c0510       ??1ImGuiTable@@QAE@XZ      005d3510 f i imgui.obj
 0002:000c05e0       ??1ImGuiTableTempData@@QAE@XZ 005d35e0 f i imgui.obj
 0002:000c0630       ??1ImGuiTextBuffer@@QAE@XZ 005d3630 f i imgui.obj
 0002:000c0680       ??1ImGuiTextIndex@@QAE@XZ  005d3680 f i imgui.obj
 0002:000c06d0       ??1ImGuiViewportP@@QAE@XZ  005d36d0 f i imgui.obj
 0002:000c07d0       ??1ImGuiWindow@@QAE@XZ     005d37d0 f   imgui.obj
 0002:000c0920       ??1ImGuiWindowTempData@@QAE@XZ 005d3920 f i imgui.obj
 0002:000c09a0       ??2@YAPAXIUImNewWrapper@@PAX@Z 005d39a0 f i imgui.obj
 0002:000c09f0       ??3@YAXPAXUImNewWrapper@@0@Z 005d39f0 f i imgui.obj
 0002:000c0a40       ??A?$ImSpan@UImGuiTableColumn@@@@QAEAAUImGuiTableColumn@@H@Z 005d3a40 f i imgui.obj
 0002:000c0af0       ??A?$ImVector@D@@QAEAADH@Z 005d3af0 f i imgui.obj
 0002:000c0b90       ??A?$ImVector@G@@QAEAAGH@Z 005d3b90 f i imgui.obj
 0002:000c0c30       ??A?$ImVector@H@@QAEAAHH@Z 005d3c30 f i imgui.obj
 0002:000c0cd0       ??A?$ImVector@I@@QAEAAIH@Z 005d3cd0 f i imgui.obj
 0002:000c0d70       ??A?$ImVector@M@@QAEAAMH@Z 005d3d70 f i imgui.obj
 0002:000c0e10       ??A?$ImVector@PAUImDrawList@@@@QAEAAPAUImDrawList@@H@Z 005d3e10 f i imgui.obj
 0002:000c0eb0       ??A?$ImVector@PAUImFont@@@@QAEAAPAUImFont@@H@Z 005d3eb0 f i imgui.obj
 0002:000c0f50       ??A?$ImVector@PAUImGuiViewportP@@@@QAEAAPAUImGuiViewportP@@H@Z 005d3f50 f i imgui.obj
 0002:000c0ff0       ??A?$ImVector@PAUImGuiWindow@@@@QAEAAPAUImGuiWindow@@H@Z 005d3ff0 f i imgui.obj
 0002:000c1090       ??A?$ImVector@UImDrawCmd@@@@QAEAAUImDrawCmd@@H@Z 005d4090 f i imgui.obj
 0002:000c1130       ??A?$ImVector@UImGuiContextHook@@@@QAEAAUImGuiContextHook@@H@Z 005d4130 f i imgui.obj
 0002:000c11d0       ??A?$ImVector@UImGuiInputEvent@@@@QAEAAUImGuiInputEvent@@H@Z 005d41d0 f i imgui.obj
 0002:000c1270       ??A?$ImVector@UImGuiKeyRoutingData@@@@QAEAAUImGuiKeyRoutingData@@H@Z 005d4270 f i imgui.obj
 0002:000c1310       ??A?$ImVector@UImGuiListClipperData@@@@QAEAAUImGuiListClipperData@@H@Z 005d4310 f i imgui.obj
 0002:000c13b0       ??A?$ImVector@UImGuiListClipperRange@@@@QAEAAUImGuiListClipperRange@@H@Z 005d43b0 f i imgui.obj
 0002:000c1450       ??A?$ImVector@UImGuiOldColumnData@@@@QAEAAUImGuiOldColumnData@@H@Z 005d4450 f i imgui.obj
 0002:000c14f0       ??A?$ImVector@UImGuiOldColumns@@@@QAEAAUImGuiOldColumns@@H@Z 005d44f0 f i imgui.obj
 0002:000c1590       ??A?$ImVector@UImGuiPopupData@@@@QAEAAUImGuiPopupData@@H@Z 005d4590 f i imgui.obj
 0002:000c1630       ??A?$ImVector@UImGuiSettingsHandler@@@@QAEAAUImGuiSettingsHandler@@H@Z 005d4630 f i imgui.obj
 0002:000c16d0       ??A?$ImVector@UImGuiStackLevelInfo@@@@QAEAAUImGuiStackLevelInfo@@H@Z 005d46d0 f i imgui.obj
 0002:000c1770       ??A?$ImVector@UImGuiStoragePair@ImGuiStorage@@@@QAEAAUImGuiStoragePair@ImGuiStorage@@H@Z 005d4770 f i imgui.obj
 0002:000c1810       ??A?$ImVector@UImGuiTabBar@@@@QAEAAUImGuiTabBar@@H@Z 005d4810 f i imgui.obj
 0002:000c18b0       ??A?$ImVector@UImGuiTabItem@@@@QAEAAUImGuiTabItem@@H@Z 005d48b0 f i imgui.obj
 0002:000c1950       ??A?$ImVector@UImGuiTable@@@@QAEAAUImGuiTable@@H@Z 005d4950 f i imgui.obj
 0002:000c19f0       ??A?$ImVector@UImGuiTableInstanceData@@@@QAEAAUImGuiTableInstanceData@@H@Z 005d49f0 f i imgui.obj
 0002:000c1a90       ??A?$ImVector@UImGuiTableTempData@@@@QAEAAUImGuiTableTempData@@H@Z 005d4a90 f i imgui.obj
 0002:000c1b30       ??A?$ImVector@UImGuiTextRange@ImGuiTextFilter@@@@QAEAAUImGuiTextRange@ImGuiTextFilter@@H@Z 005d4b30 f i imgui.obj
 0002:000c1bd0       ??A?$ImVector@UImGuiTextRange@ImGuiTextFilter@@@@QBEABUImGuiTextRange@ImGuiTextFilter@@H@Z 005d4bd0 f i imgui.obj
 0002:000c1c70       ??A?$ImVector@UImGuiWindowStackData@@@@QAEAAUImGuiWindowStackData@@H@Z 005d4c70 f i imgui.obj
 0002:000c1d10       ??AImVec2@@QAEAAMI@Z       005d4d10 f i imgui.obj
 0002:000c1d70       ??AImVec2@@QBEMI@Z         005d4d70 f i imgui.obj
 0002:000c2110       ??_GImDrawList@@QAEPAXI@Z  005d5110 f i imgui.obj
 0002:000c2180       ??_GImFontAtlas@@QAEPAXI@Z 005d5180 f i imgui.obj
 0002:000c21f0       ??_GImGuiContext@@QAEPAXI@Z 005d51f0 f i imgui.obj
 0002:000c2260       ??_GImGuiListClipperData@@QAEPAXI@Z 005d5260 f i imgui.obj
 0002:000c22d0       ??_GImGuiOldColumns@@QAEPAXI@Z 005d52d0 f i imgui.obj
 0002:000c2340       ??_GImGuiTabBar@@QAEPAXI@Z 005d5340 f i imgui.obj
 0002:000c23b0       ??_GImGuiTable@@QAEPAXI@Z  005d53b0 f i imgui.obj
 0002:000c2420       ??_GImGuiTableTempData@@QAEPAXI@Z 005d5420 f i imgui.obj
 0002:000c2490       ??_GImGuiViewportP@@QAEPAXI@Z 005d5490 f i imgui.obj
 0002:000c2500       ??_GImGuiWindow@@QAEPAXI@Z 005d5500 f i imgui.obj
 0002:000c2570       ??_H@YGXPAXIIP6EPAX0@Z@Z   005d5570 f i imgui.obj
 0002:000c2620       ?AcceptDragDropPayload@ImGui@@YAPBUImGuiPayload@@PBDH@Z 005d5620 f   imgui.obj
 0002:000c2a40       ?ActivateItem@ImGui@@YAXI@Z 005d5a40 f   imgui.obj
 0002:000c2ab0       ?Add@ImRect@@QAEXABU1@@Z   005d5ab0 f i imgui.obj
 0002:000c2b70       ?Add@ImRect@@QAEXABUImVec2@@@Z 005d5b70 f i imgui.obj
 0002:000c2c20       ?AddContextHook@ImGui@@YAIPAUImGuiContext@@PBUImGuiContextHook@@@Z 005d5c20 f   imgui.obj
 0002:000c2f20       ?AddFocusEvent@ImGuiIO@@QAEX_N@Z 005d5f20 f   imgui.obj
 0002:000c30d0       ?AddInputCharacter@ImGuiIO@@QAEXI@Z 005d60d0 f   imgui.obj
 0002:000c3220       ?AddInputCharacterUTF16@ImGuiIO@@QAEXG@Z 005d6220 f   imgui.obj
 0002:000c3360       ?AddInputCharactersUTF8@ImGuiIO@@QAEXPBD@Z 005d6360 f   imgui.obj
 0002:000c3460       ?AddKeyAnalogEvent@ImGuiIO@@QAEXW4ImGuiKey@@_NM@Z 005d6460 f   imgui.obj
 0002:000c3890       ?AddKeyEvent@ImGuiIO@@QAEXW4ImGuiKey@@_N@Z 005d6890 f   imgui.obj
 0002:000c3950       ?AddMouseButtonEvent@ImGuiIO@@QAEXH_N@Z 005d6950 f   imgui.obj
 0002:000c3b40       ?AddMousePosEvent@ImGuiIO@@QAEXMM@Z 005d6b40 f   imgui.obj
 0002:000c3e50       ?AddMouseWheelEvent@ImGuiIO@@QAEXMM@Z 005d6e50 f   imgui.obj
 0002:000c4040       ?AddSettingsHandler@ImGui@@YAXPBUImGuiSettingsHandler@@@Z 005d7040 f   imgui.obj
 0002:000c4460       ?Begin@ImGui@@YA_NPBDPA_NH@Z 005d7460 f   imgui.obj
 0002:000c81c0       ?Begin@ImGuiListClipper@@QAEXHM@Z 005db1c0 f   imgui.obj
 0002:000c8420       ?BeginChild@ImGui@@YA_NIABUImVec2@@_NH@Z 005db420 f   imgui.obj
 0002:000c84c0       ?BeginChild@ImGui@@YA_NPBDABUImVec2@@_NH@Z 005db4c0 f   imgui.obj
 0002:000c8550       ?BeginChildEx@ImGui@@YA_NPBDIABUImVec2@@_NH@Z 005db550 f   imgui.obj
 0002:000c8930       ?BeginChildFrame@ImGui@@YA_NIABUImVec2@@H@Z 005db930 f   imgui.obj
 0002:000c8a50       ?BeginDisabled@ImGui@@YAX_N@Z 005dba50 f   imgui.obj
 0002:000c8ba0       ?BeginDragDropSource@ImGui@@YA_NH@Z 005dbba0 f   imgui.obj
 0002:000c9060       ?BeginDragDropTarget@ImGui@@YA_NXZ 005dc060 f   imgui.obj
 0002:000c9270       ?BeginDragDropTargetCustom@ImGui@@YA_NABUImRect@@I@Z 005dc270 f   imgui.obj
 0002:000c9430       ?BeginGroup@ImGui@@YAXXZ   005dc430 f   imgui.obj
 0002:000c96b0       ?BeginPopup@ImGui@@YA_NPBDH@Z 005dc6b0 f   imgui.obj
 0002:000c9770       ?BeginPopupContextItem@ImGui@@YA_NPBDH@Z 005dc770 f   imgui.obj
 0002:000c98d0       ?BeginPopupContextVoid@ImGui@@YA_NPBDH@Z 005dc8d0 f   imgui.obj
 0002:000c99d0       ?BeginPopupContextWindow@ImGui@@YA_NPBDH@Z 005dc9d0 f   imgui.obj
 0002:000c9ad0       ?BeginPopupEx@ImGui@@YA_NIH@Z 005dcad0 f   imgui.obj
 0002:000c9c30       ?BeginPopupModal@ImGui@@YA_NPBDPA_NH@Z 005dcc30 f   imgui.obj
 0002:000c9dd0       ?BeginTooltip@ImGui@@YAXXZ 005dcdd0 f   imgui.obj
 0002:000c9e30       ?BeginTooltipEx@ImGui@@YAXHH@Z 005dce30 f   imgui.obj
 0002:000ca0f0       ?BringWindowToDisplayBack@ImGui@@YAXPAUImGuiWindow@@@Z 005dd0f0 f   imgui.obj
 0002:000ca210       ?BringWindowToDisplayBehind@ImGui@@YAXPAUImGuiWindow@@0@Z 005dd210 f   imgui.obj
 0002:000ca3c0       ?BringWindowToDisplayFront@ImGui@@YAXPAUImGuiWindow@@@Z 005dd3c0 f   imgui.obj
 0002:000ca520       ?BringWindowToFocusFront@ImGui@@YAXPAUImGuiWindow@@@Z 005dd520 f   imgui.obj
 0002:000ca770       ?Build@ImGuiTextFilter@@QAEXXZ 005dd770 f   imgui.obj
 0002:000ca9c0       ?BuildSortByKey@ImGuiStorage@@QAEXXZ 005dd9c0 f   imgui.obj
 0002:000caa30       ?CalcFontSize@ImGuiWindow@@QBEMXZ 005dda30 f i imgui.obj
 0002:000caae0       ?CalcItemSize@ImGui@@YA?AUImVec2@@U2@MM@Z 005ddae0 f   imgui.obj
 0002:000cace0       ?CalcItemWidth@ImGui@@YAMXZ 005ddce0 f   imgui.obj
 0002:000cae00       ?CalcListClipping@ImGui@@YAXHMPAH0@Z 005dde00 f   imgui.obj
 0002:000cba10       ?CalcTextSize@ImGui@@YA?AUImVec2@@PBD0_NM@Z 005dea10 f   imgui.obj
 0002:000cbbc0       ?CalcTypematicRepeatAmount@ImGui@@YAHMMMM@Z 005debc0 f   imgui.obj
 0002:000cc5f0       ?CalcWindowNextAutoFitSize@ImGui@@YA?AUImVec2@@PAUImGuiWindow@@@Z 005df5f0 f   imgui.obj
 0002:000ccba0       ?CalcWorkRectPos@ImGuiViewportP@@QBE?AUImVec2@@ABU2@@Z 005dfba0 f i imgui.obj
 0002:000ccc40       ?CalcWorkRectSize@ImGuiViewportP@@QBE?AUImVec2@@ABU2@0@Z 005dfc40 f i imgui.obj
 0002:000ccd20       ?CalcWrapWidthForPos@ImGui@@YAMABUImVec2@@M@Z 005dfd20 f   imgui.obj
 0002:000cce30       ?CallContextHooks@ImGui@@YAXPAUImGuiContext@@W4ImGuiContextHookType@@@Z 005dfe30 f   imgui.obj
 0002:000cd140       ?Clear@?$ImPool@UImGuiTabBar@@@@QAEXXZ 005e0140 f i imgui.obj
 0002:000cd230       ?Clear@?$ImPool@UImGuiTable@@@@QAEXXZ 005e0230 f i imgui.obj
 0002:000cd320       ?Clear@ImDrawData@@QAEXXZ  005e0320 f i imgui.obj
 0002:000cd390       ?Clear@ImDrawDataBuilder@@QAEXXZ 005e0390 f i imgui.obj
 0002:000cd410       ?Clear@ImGuiKeyRoutingTable@@QAEXXZ 005e0410 f i imgui.obj
 0002:000cd4c0       ?Clear@ImGuiNavItemData@@QAEXXZ 005e04c0 f i imgui.obj
 0002:000cd580       ?Clear@ImGuiPayload@@QAEXXZ 005e0580 f i imgui.obj
 0002:000cd640       ?Clear@ImGuiStorage@@QAEXXZ 005e0640 f i imgui.obj
 0002:000cd6a0       ?ClearActiveID@ImGui@@YAXXZ 005e06a0 f   imgui.obj
 0002:000cd700       ?ClearAllBits@?$ImBitArray@$0CIM@$0A@@@QAEXXZ 005e0700 f i imgui.obj
 0002:000cd770       ?ClearDragDrop@ImGui@@YAXXZ 005e0770 f   imgui.obj
 0002:000cd870       ?ClearFlags@ImGuiNextWindowData@@QAEXXZ 005e0870 f i imgui.obj
 0002:000cd8d0       ?ClearFreeMemory@ImGuiInputTextState@@QAEXXZ 005e08d0 f i imgui.obj
 0002:000cd950       ?ClearIniSettings@ImGui@@YAXXZ 005e0950 f   imgui.obj
 0002:000cda50       ?ClearInputCharacters@ImGuiIO@@QAEXXZ 005e0a50 f   imgui.obj
 0002:000cdac0       ?ClearInputKeys@ImGuiIO@@QAEXXZ 005e0ac0 f   imgui.obj
 0002:000cdcc0       ?ClipWith@ImRect@@QAEXABU1@@Z 005e0cc0 f i imgui.obj
 0002:000cdd50       ?ClipWithFull@ImRect@@QAEXABU1@@Z 005e0d50 f i imgui.obj
 0002:000cddf0       ?CloseCurrentPopup@ImGui@@YAXXZ 005e0df0 f   imgui.obj
 0002:000cdfc0       ?ClosePopupToLevel@ImGui@@YAXH_N@Z 005e0fc0 f   imgui.obj
 0002:000ce1a0       ?ClosePopupsExceptModals@ImGui@@YAXXZ 005e11a0 f   imgui.obj
 0002:000ce280       ?ClosePopupsOverWindow@ImGui@@YAXPAUImGuiWindow@@_N@Z 005e1280 f   imgui.obj
 0002:000ce4b0       ?ColorConvertFloat4ToU32@ImGui@@YAIABUImVec4@@@Z 005e14b0 f   imgui.obj
 0002:000ce640       ?ColorConvertHSVtoRGB@ImGui@@YAXMMMAAM00@Z 005e1640 f   imgui.obj
 0002:000ce930       ?ColorConvertRGBtoHSV@ImGui@@YAXMMMAAM00@Z 005e1930 f   imgui.obj
 0002:000ceab0       ?ColorConvertU32ToFloat4@ImGui@@YA?AUImVec4@@I@Z 005e1ab0 f   imgui.obj
 0002:000cec80       ?CompareWithCurrentState@ImGuiStackSizes@@QAEXXZ 005e1c80 f   imgui.obj
 0002:000cefd0       ?Contains@ImRect@@QBE_NABU1@@Z 005e1fd0 f i imgui.obj
 0002:000cf070       ?Contains@ImRect@@QBE_NABUImVec2@@@Z 005e2070 f i imgui.obj
 0002:000cf100       ?ConvertShortcutMod@ImGui@@YAHH@Z 005e2100 f i imgui.obj
 0002:000cf190       ?ConvertSingleModFlagToKey@ImGui@@YA?AW4ImGuiKey@@W42@@Z 005e2190 f i imgui.obj
 0002:000cf280       ?CreateContext@ImGui@@YAPAUImGuiContext@@PAUImFontAtlas@@@Z 005e2280 f   imgui.obj
 0002:000cf7f0       ?CreateNewWindowSettings@ImGui@@YAPAUImGuiWindowSettings@@PBD@Z 005e27f0 f   imgui.obj
 0002:000cf9a0       ?DebugCheckVersionAndDataLayout@ImGui@@YA_NPBDIIIIII@Z 005e29a0 f   imgui.obj
 0002:000cfc80       ?DebugHookIdInfo@ImGui@@YAXIHPBX0@Z 005e2c80 f   imgui.obj
 0002:000d0040       ?DebugLocateItem@ImGui@@YAXI@Z 005e3040 f   imgui.obj
 0002:000d00b0       ?DebugLocateItemOnHover@ImGui@@YAXI@Z 005e30b0 f   imgui.obj
 0002:000d0220       ?DebugLocateItemResolveWithLastItem@ImGui@@YAXXZ 005e3220 f   imgui.obj
 0002:000d0510       ?DebugLog@ImGui@@YAXPBDZZ  005e3510 f   imgui.obj
 0002:000d0580       ?DebugLogV@ImGui@@YAXPBDPAD@Z 005e3580 f   imgui.obj
 0002:000d06b0       ?DebugNodeColumns@ImGui@@YAXPAUImGuiOldColumns@@@Z 005e36b0 f   imgui.obj
 0002:000d0830       ?DebugNodeDrawCmdShowMeshAndBoundingBox@ImGui@@YAXPAUImDrawList@@PBU2@PBUImDrawCmd@@_N3@Z 005e3830 f   imgui.obj
 0002:000d0c30       ?DebugNodeDrawList@ImGui@@YAXPAUImGuiWindow@@PBUImDrawList@@PBD@Z 005e3c30 f   imgui.obj
 0002:000d1730       ?DebugNodeFont@ImGui@@YAXPAUImFont@@@Z 005e4730 f   imgui.obj
 0002:000d2070       ?DebugNodeFontGlyph@ImGui@@YAXPAUImFont@@PBUImFontGlyph@@@Z 005e5070 f   imgui.obj
 0002:000d21e0       ?DebugNodeStorage@ImGui@@YAXPAUImGuiStorage@@PBD@Z 005e51e0 f   imgui.obj
 0002:000d22c0       ?DebugNodeTabBar@ImGui@@YAXPAUImGuiTabBar@@PBD@Z 005e52c0 f   imgui.obj
 0002:000d29f0       ?DebugNodeViewport@ImGui@@YAXPAUImGuiViewportP@@@Z 005e59f0 f   imgui.obj
 0002:000d2c60       ?DebugNodeWindow@ImGui@@YAXPAUImGuiWindow@@PBD@Z 005e5c60 f   imgui.obj
 0002:000d35d0       ?DebugNodeWindowSettings@ImGui@@YAXPAUImGuiWindowSettings@@@Z 005e65d0 f   imgui.obj
 0002:000d3670       ?DebugNodeWindowsList@ImGui@@YAXPAU?$ImVector@PAUImGuiWindow@@@@PBD@Z 005e6670 f   imgui.obj
 0002:000d3760       ?DebugNodeWindowsListByBeginStackParent@ImGui@@YAXPAPAUImGuiWindow@@HPAU2@@Z 005e6760 f   imgui.obj
 0002:000d3be0       ?DebugRenderKeyboardPreview@ImGui@@YAXPAUImDrawList@@@Z 005e6be0 f   imgui.obj
 0002:000d4640       ?DebugRenderViewportThumbnail@ImGui@@YAXPAUImDrawList@@PAUImGuiViewportP@@ABUImRect@@@Z 005e7640 f   imgui.obj
 0002:000d4d00       ?DebugStartItemPicker@ImGui@@YAXXZ 005e7d00 f i imgui.obj
 0002:000d4d60       ?DebugTextEncoding@ImGui@@YAXPBD@Z 005e7d60 f   imgui.obj
 0002:000d5060       ?DestroyContext@ImGui@@YAXPAUImGuiContext@@@Z 005e8060 f   imgui.obj
 0002:000d5120       ?Draw@ImGuiTextFilter@@QAE_NPBDM@Z 005e8120 f   imgui.obj
 0002:000d51e0       ?End@ImGui@@YAXXZ          005e81e0 f   imgui.obj
 0002:000d54a0       ?End@ImGuiListClipper@@QAEXXZ 005e84a0 f   imgui.obj
 0002:000d5650       ?EndChild@ImGui@@YAXXZ     005e8650 f   imgui.obj
 0002:000d5a90       ?EndChildFrame@ImGui@@YAXXZ 005e8a90 f   imgui.obj
 0002:000d5ae0       ?EndDisabled@ImGui@@YAXXZ  005e8ae0 f   imgui.obj
 0002:000d5c30       ?EndDragDropSource@ImGui@@YAXXZ 005e8c30 f   imgui.obj
 0002:000d5d50       ?EndDragDropTarget@ImGui@@YAXXZ 005e8d50 f   imgui.obj
 0002:000d5e30       ?EndFrame@ImGui@@YAXXZ     005e8e30 f   imgui.obj
 0002:000d62d0       ?EndGroup@ImGui@@YAXXZ     005e92d0 f   imgui.obj
 0002:000d6800       ?EndPopup@ImGui@@YAXXZ     005e9800 f   imgui.obj
 0002:000d6980       ?EndTooltip@ImGui@@YAXXZ   005e9980 f   imgui.obj
 0002:000d6a10       ?ErrorCheckEndFrameRecover@ImGui@@YAXP6AXPAXPBDZZ0@Z 005e9a10 f   imgui.obj
 0002:000d6d40       ?ErrorCheckEndWindowRecover@ImGui@@YAXP6AXPAXPBDZZ0@Z 005e9d40 f   imgui.obj
 0002:000d76f0       ?ErrorCheckUsingSetCursorPosToExtendParentBoundaries@ImGui@@YAXXZ 005ea6f0 f   imgui.obj
 0002:000d77f0       ?Expand@ImRect@@QAEXABUImVec2@@@Z 005ea7f0 f i imgui.obj
 0002:000d7890       ?Expand@ImRect@@QAEXM@Z    005ea890 f i imgui.obj
 0002:000d7cf0       ?FindBestWindowPosForPopup@ImGui@@YA?AUImVec2@@PAUImGuiWindow@@@Z 005eacf0 f   imgui.obj
 0002:000d82b0       ?FindBestWindowPosForPopupEx@ImGui@@YA?AUImVec2@@ABU2@0PAHABUImRect@@2W4ImGuiPopupPositionPolicy@@@Z 005eb2b0 f   imgui.obj
 0002:000d8d80       ?FindBottomMostVisibleWindowWithinBeginStack@ImGui@@YAPAUImGuiWindow@@PAU2@@Z 005ebd80 f   imgui.obj
 0002:000d93f0       ?FindOrCreateWindowSettings@ImGui@@YAPAUImGuiWindowSettings@@PBD@Z 005ec3f0 f   imgui.obj
 0002:000d9480       ?FindRenderedTextEnd@ImGui@@YAPBDPBD0@Z 005ec480 f   imgui.obj
 0002:000d9540       ?FindSettingsHandler@ImGui@@YAPAUImGuiSettingsHandler@@PBD@Z 005ec540 f   imgui.obj
 0002:000d9610       ?FindWindowByID@ImGui@@YAPAUImGuiWindow@@I@Z 005ec610 f   imgui.obj
 0002:000d9680       ?FindWindowByName@ImGui@@YAPAUImGuiWindow@@PBD@Z 005ec680 f   imgui.obj
 0002:000d96f0       ?FindWindowDisplayIndex@ImGui@@YAHPAUImGuiWindow@@@Z 005ec6f0 f   imgui.obj
 0002:000d9950       ?FindWindowSettings@ImGui@@YAPAUImGuiWindowSettings@@I@Z 005ec950 f   imgui.obj
 0002:000d9a00       ?FlattenIntoSingleLayer@ImDrawDataBuilder@@QAEXXZ 005eca00 f   imgui.obj
 0002:000d9b60       ?FocusTopMostWindowUnderOne@ImGui@@YAXPAUImGuiWindow@@0@Z 005ecb60 f   imgui.obj
 0002:000d9d10       ?FocusWindow@ImGui@@YAXPAUImGuiWindow@@@Z 005ecd10 f   imgui.obj
 0002:000d9fa0       ?ForceDisplayRangeByIndices@ImGuiListClipper@@QAEXHH@Z 005ecfa0 f   imgui.obj
 0002:000da0d0       ?FromIndices@ImGuiListClipperRange@@SA?AU1@HH@Z 005ed0d0 f i imgui.obj
 0002:000da180       ?FromPositions@ImGuiListClipperRange@@SA?AU1@MMHH@Z 005ed180 f i imgui.obj
 0002:000da240       ?GcAwakeTransientWindowBuffers@ImGui@@YAXPAUImGuiWindow@@@Z 005ed240 f   imgui.obj
 0002:000da300       ?GcCompactTransientMiscBuffers@ImGui@@YAXXZ 005ed300 f   imgui.obj
 0002:000da380       ?GcCompactTransientWindowBuffers@ImGui@@YAXPAUImGuiWindow@@@Z 005ed380 f   imgui.obj
 0002:000da460       ?GetAliveCount@?$ImPool@UImGuiTabBar@@@@QBEHXZ 005ed460 f i imgui.obj
 0002:000da4c0       ?GetAliveCount@?$ImPool@UImGuiTable@@@@QBEHXZ 005ed4c0 f i imgui.obj
 0002:000da520       ?GetAllocatorFunctions@ImGui@@YAXPAP6APAXIPAX@ZPAP6AX00@ZPAPAX@Z 005ed520 f   imgui.obj
 0002:000da590       ?GetBL@ImRect@@QBE?AUImVec2@@XZ 005ed590 f i imgui.obj
 0002:000da5f0       ?GetBR@ImRect@@QBE?AUImVec2@@XZ 005ed5f0 f i imgui.obj
 0002:000da630       ?GetBackgroundDrawList@ImGui@@YAPAUImDrawList@@PAUImGuiViewport@@@Z 005ed630 f   imgui.obj
 0002:000da690       ?GetBackgroundDrawList@ImGui@@YAPAUImDrawList@@XZ 005ed690 f   imgui.obj
 0002:000da710       ?GetBool@ImGuiStorage@@QBE_NI_N@Z 005ed710 f   imgui.obj
 0002:000da7d0       ?GetBoolRef@ImGuiStorage@@QAEPA_NI_N@Z 005ed7d0 f   imgui.obj
 0002:000da860       ?GetByIndex@?$ImPool@UImGuiTabBar@@@@QAEPAUImGuiTabBar@@H@Z 005ed860 f i imgui.obj
 0002:000da8c0       ?GetByIndex@?$ImPool@UImGuiTable@@@@QAEPAUImGuiTable@@H@Z 005ed8c0 f i imgui.obj
 0002:000da920       ?GetCenter@ImGuiViewport@@QBE?AUImVec2@@XZ 005ed920 f i imgui.obj
 0002:000da9d0       ?GetClipboardText@ImGui@@YAPBDXZ 005ed9d0 f   imgui.obj
 0002:000dac20       ?GetColorU32@ImGui@@YAIABUImVec4@@@Z 005edc20 f   imgui.obj
 0002:000dad10       ?GetColorU32@ImGui@@YAIHM@Z 005edd10 f   imgui.obj
 0002:000dae10       ?GetColorU32@ImGui@@YAII@Z 005ede10 f   imgui.obj
 0002:000daf90       ?GetContentRegionAvail@ImGui@@YA?AUImVec2@@XZ 005edf90 f   imgui.obj
 0002:000db020       ?GetContentRegionMax@ImGui@@YA?AUImVec2@@XZ 005ee020 f   imgui.obj
 0002:000db140       ?GetContentRegionMaxAbs@ImGui@@YA?AUImVec2@@XZ 005ee140 f   imgui.obj
 0002:000db250       ?GetCurrentContext@ImGui@@YAPAUImGuiContext@@XZ 005ee250 f   imgui.obj
 0002:000db2a0       ?GetCurrentWindow@ImGui@@YAPAUImGuiWindow@@XZ 005ee2a0 f i imgui.obj
 0002:000db310       ?GetCurrentWindowRead@ImGui@@YAPAUImGuiWindow@@XZ 005ee310 f i imgui.obj
 0002:000db370       ?GetCursorPos@ImGui@@YA?AUImVec2@@XZ 005ee370 f   imgui.obj
 0002:000db410       ?GetCursorPosX@ImGui@@YAMXZ 005ee410 f   imgui.obj
 0002:000db4a0       ?GetCursorPosY@ImGui@@YAMXZ 005ee4a0 f   imgui.obj
 0002:000db530       ?GetCursorScreenPos@ImGui@@YA?AUImVec2@@XZ 005ee530 f   imgui.obj
 0002:000db5b0       ?GetCursorStartPos@ImGui@@YA?AUImVec2@@XZ 005ee5b0 f   imgui.obj
 0002:000db630       ?GetDefaultFont@ImGui@@YAPAUImFont@@XZ 005ee630 f i imgui.obj
 0002:000db6d0       ?GetDragDropPayload@ImGui@@YAPBUImGuiPayload@@XZ 005ee6d0 f   imgui.obj
 0002:000db770       ?GetDrawData@ImGui@@YAPAUImDrawData@@XZ 005ee770 f   imgui.obj
 0002:000db810       ?GetDrawListCount@ImDrawDataBuilder@@QBEHXZ 005ee810 f i imgui.obj
 0002:000db8a0       ?GetDrawListSharedData@ImGui@@YAPAUImDrawListSharedData@@XZ 005ee8a0 f   imgui.obj
 0002:000db9a0       ?GetFloat@ImGuiStorage@@QBEMIM@Z 005ee9a0 f   imgui.obj
 0002:000dba40       ?GetFloatRef@ImGuiStorage@@QAEPAMIM@Z 005eea40 f   imgui.obj
 0002:000dbb00       ?GetFont@ImGui@@YAPAUImFont@@XZ 005eeb00 f   imgui.obj
 0002:000dbb50       ?GetFontSize@ImGui@@YAMXZ  005eeb50 f   imgui.obj
 0002:000dbba0       ?GetFontTexUvWhitePixel@ImGui@@YA?AUImVec2@@XZ 005eeba0 f   imgui.obj
 0002:000dbc10       ?GetForegroundDrawList@ImGui@@YAPAUImDrawList@@PAUImGuiViewport@@@Z 005eec10 f   imgui.obj
 0002:000dbc70       ?GetForegroundDrawList@ImGui@@YAPAUImDrawList@@PAUImGuiWindow@@@Z 005eec70 f i imgui.obj
 0002:000dbcc0       ?GetForegroundDrawList@ImGui@@YAPAUImDrawList@@XZ 005eecc0 f   imgui.obj
 0002:000dbd40       ?GetFrameCount@ImGui@@YAHXZ 005eed40 f   imgui.obj
 0002:000dbd90       ?GetFrameHeight@ImGui@@YAMXZ 005eed90 f   imgui.obj
 0002:000dbe20       ?GetFrameHeightWithSpacing@ImGui@@YAMXZ 005eee20 f   imgui.obj
 0002:000dbec0       ?GetHeight@ImRect@@QBEMXZ  005eeec0 f i imgui.obj
 0002:000dbf10       ?GetHoveredID@ImGui@@YAIXZ 005eef10 f   imgui.obj
 0002:000dbfa0       ?GetID@ImGui@@YAIPBD0@Z    005eefa0 f   imgui.obj
 0002:000dc010       ?GetID@ImGui@@YAIPBD@Z     005ef010 f   imgui.obj
 0002:000dc080       ?GetID@ImGui@@YAIPBX@Z     005ef080 f   imgui.obj
 0002:000dc0f0       ?GetID@ImGuiWindow@@QAEIH@Z 005ef0f0 f   imgui.obj
 0002:000dc1b0       ?GetID@ImGuiWindow@@QAEIPBD0@Z 005ef1b0 f   imgui.obj
 0002:000dc2a0       ?GetID@ImGuiWindow@@QAEIPBX@Z 005ef2a0 f   imgui.obj
 0002:000dc360       ?GetIDFromRectangle@ImGuiWindow@@QAEIABUImRect@@@Z 005ef360 f   imgui.obj
 0002:000dc450       ?GetIDWithSeed@ImGui@@YAIPBD0I@Z 005ef450 f   imgui.obj
 0002:000dc520       ?GetIO@ImGui@@YAAAUImGuiIO@@XZ 005ef520 f   imgui.obj
 0002:000dc6e0       ?GetInt@ImGuiStorage@@QBEHIH@Z 005ef6e0 f   imgui.obj
 0002:000dc780       ?GetIntRef@ImGuiStorage@@QAEPAHIH@Z 005ef780 f   imgui.obj
 0002:000dc840       ?GetItemID@ImGui@@YAIXZ    005ef840 f   imgui.obj
 0002:000dc8a0       ?GetItemRectMax@ImGui@@YA?AUImVec2@@XZ 005ef8a0 f   imgui.obj
 0002:000dc920       ?GetItemRectMin@ImGui@@YA?AUImVec2@@XZ 005ef920 f   imgui.obj
 0002:000dc9a0       ?GetItemRectSize@ImGui@@YA?AUImVec2@@XZ 005ef9a0 f   imgui.obj
 0002:000dca10       ?GetKeyChordName@ImGui@@YAXHPADH@Z 005efa10 f   imgui.obj
 0002:000dcbb0       ?GetKeyData@ImGui@@YAPAUImGuiKeyData@@W4ImGuiKey@@@Z 005efbb0 f   imgui.obj
 0002:000dcce0       ?GetKeyIndex@ImGui@@YA?AW4ImGuiKey@@W42@@Z 005efce0 f   imgui.obj
 0002:000dcdb0       ?GetKeyMagnitude2d@ImGui@@YA?AUImVec2@@W4ImGuiKey@@000@Z 005efdb0 f   imgui.obj
 0002:000dce70       ?GetKeyName@ImGui@@YAPBDW4ImGuiKey@@@Z 005efe70 f   imgui.obj
 0002:000dcfc0       ?GetKeyOwner@ImGui@@YAIW4ImGuiKey@@@Z 005effc0 f   imgui.obj
 0002:000dd0a0       ?GetKeyOwnerData@ImGui@@YAPAUImGuiKeyOwnerData@@W4ImGuiKey@@@Z 005f00a0 f i imgui.obj
 0002:000dd170       ?GetKeyPressedAmount@ImGui@@YAHW4ImGuiKey@@MM@Z 005f0170 f   imgui.obj
 0002:000dd240       ?GetMainRect@ImGuiViewportP@@QBE?AUImRect@@XZ 005f0240 f i imgui.obj
 0002:000dd300       ?GetMainViewport@ImGui@@YAPAUImGuiViewport@@XZ 005f0300 f   imgui.obj
 0002:000dd370       ?GetMapSize@?$ImPool@UImGuiTabBar@@@@QBEHXZ 005f0370 f i imgui.obj
 0002:000dd3d0       ?GetMapSize@?$ImPool@UImGuiTable@@@@QBEHXZ 005f03d0 f i imgui.obj
 0002:000dd520       ?GetMouseClickedCount@ImGui@@YAHH@Z 005f0520 f   imgui.obj
 0002:000dd5c0       ?GetMouseCursor@ImGui@@YAHXZ 005f05c0 f   imgui.obj
 0002:000dd620       ?GetMouseDragDelta@ImGui@@YA?AUImVec2@@HM@Z 005f0620 f   imgui.obj
 0002:000dd7c0       ?GetMousePos@ImGui@@YA?AUImVec2@@XZ 005f07c0 f   imgui.obj
 0002:000dd840       ?GetMousePosOnOpeningCurrentPopup@ImGui@@YA?AUImVec2@@XZ 005f0840 f   imgui.obj
 0002:000dd900       ?GetName@ImGuiWindowSettings@@QAEPADXZ 005f0900 f i imgui.obj
 0002:000dd960       ?GetNavTweakPressedAmount@ImGui@@YAMW4ImGuiAxis@@@Z 005f0960 f   imgui.obj
 0002:000ddbe0       ?GetPopupAllowedExtentRect@ImGui@@YA?AUImRect@@PAUImGuiWindow@@@Z 005f0be0 f   imgui.obj
 0002:000de150       ?GetScrollMaxX@ImGui@@YAMXZ 005f1150 f   imgui.obj
 0002:000de1b0       ?GetScrollMaxY@ImGui@@YAMXZ 005f11b0 f   imgui.obj
 0002:000de220       ?GetScrollX@ImGui@@YAMXZ   005f1220 f   imgui.obj
 0002:000de280       ?GetScrollY@ImGui@@YAMXZ   005f1280 f   imgui.obj
 0002:000de2e0       ?GetShortcutRoutingData@ImGui@@YAPAUImGuiKeyRoutingData@@H@Z 005f12e0 f   imgui.obj
 0002:000de4d0       ?GetSize@ImRect@@QBE?AUImVec2@@XZ 005f14d0 f i imgui.obj
 0002:000de5e0       ?GetStateStorage@ImGui@@YAPAUImGuiStorage@@XZ 005f15e0 f   imgui.obj
 0002:000de650       ?GetStyle@ImGui@@YAAAUImGuiStyle@@XZ 005f1650 f   imgui.obj
 0002:000de6f0       ?GetStyleColorName@ImGui@@YAPBDH@Z 005f16f0 f   imgui.obj
 0002:000deb20       ?GetStyleColorVec4@ImGui@@YAABUImVec4@@H@Z 005f1b20 f   imgui.obj
 0002:000dec20       ?GetTabName@ImGuiTabBar@@QBEPBDPBUImGuiTabItem@@@Z 005f1c20 f i imgui.obj
 0002:000df290       ?GetTextLineHeight@ImGui@@YAMXZ 005f2290 f   imgui.obj
 0002:000df2f0       ?GetTextLineHeightWithSpacing@ImGui@@YAMXZ 005f22f0 f   imgui.obj
 0002:000df370       ?GetTime@ImGui@@YANXZ      005f2370 f   imgui.obj
 0002:000df3c0       ?GetTopMostAndVisiblePopupModal@ImGui@@YAPAUImGuiWindow@@XZ 005f23c0 f   imgui.obj
 0002:000df490       ?GetTopMostPopupModal@ImGui@@YAPAUImGuiWindow@@XZ 005f2490 f   imgui.obj
 0002:000df550       ?GetTypematicRepeatRate@ImGui@@YAXHPAM0@Z 005f2550 f   imgui.obj
 0002:000df690       ?GetVarPtr@ImGuiStyleVarInfo@@QBEPAXPAUImGuiStyle@@@Z 005f2690 f i imgui.obj
 0002:000df6f0       ?GetVersion@ImGui@@YAPBDXZ 005f26f0 f   imgui.obj
 0002:000df980       ?GetVoidPtr@ImGuiStorage@@QBEPAXI@Z 005f2980 f   imgui.obj
 0002:000dfa20       ?GetVoidPtrRef@ImGuiStorage@@QAEPAPAXIPAX@Z 005f2a20 f   imgui.obj
 0002:000dfae0       ?GetWidth@ImRect@@QBEMXZ   005f2ae0 f i imgui.obj
 0002:000dfbb0       ?GetWindowContentRegionMax@ImGui@@YA?AUImVec2@@XZ 005f2bb0 f   imgui.obj
 0002:000dfc30       ?GetWindowContentRegionMin@ImGui@@YA?AUImVec2@@XZ 005f2c30 f   imgui.obj
 0002:000dfd30       ?GetWindowDrawList@ImGui@@YAPAUImDrawList@@XZ 005f2d30 f   imgui.obj
 0002:000dfd90       ?GetWindowHeight@ImGui@@YAMXZ 005f2d90 f   imgui.obj
 0002:000dfdf0       ?GetWindowPos@ImGui@@YA?AUImVec2@@XZ 005f2df0 f   imgui.obj
 0002:000e01d0       ?GetWindowResizeBorderID@ImGui@@YAIPAUImGuiWindow@@H@Z 005f31d0 f   imgui.obj
 0002:000e02f0       ?GetWindowResizeCornerID@ImGui@@YAIPAUImGuiWindow@@H@Z 005f32f0 f   imgui.obj
 0002:000e03c0       ?GetWindowSize@ImGui@@YA?AUImVec2@@XZ 005f33c0 f   imgui.obj
 0002:000e0430       ?GetWindowWidth@ImGui@@YAMXZ 005f3430 f   imgui.obj
 0002:000e0490       ?GetWorkRect@ImGuiViewportP@@QBE?AUImRect@@XZ 005f3490 f i imgui.obj
 0002:000e0590       ?ImAlphaBlendColors@@YAIII@Z 005f3590 f   imgui.obj
 0002:000e0700       ?ImBezierCubicClosestPoint@@YA?AUImVec2@@ABU1@0000H@Z 005f3700 f   imgui.obj
 0002:000e0960       ?ImBezierCubicClosestPointCasteljau@@YA?AUImVec2@@ABU1@0000M@Z 005f3960 f   imgui.obj
 0002:000e1160       ?ImBitArraySetBit@@YAXPAIH@Z 005f4160 f i imgui.obj
 0002:000e11e0       ?ImBitArrayTestBit@@YA_NPBIH@Z 005f41e0 f i imgui.obj
 0002:000e1450       ?ImFileClose@@YA_NPAU_iobuf@@@Z 005f4450 f   imgui.obj
 0002:000e14e0       ?ImFileGetSize@@YA_KPAU_iobuf@@@Z 005f44e0 f   imgui.obj
 0002:000e1620       ?ImFileLoadToMemory@@YAPAXPBD0PAIH@Z 005f4620 f   imgui.obj
 0002:000e1820       ?ImFileOpen@@YAPAU_iobuf@@PBD0@Z 005f4820 f   imgui.obj
 0002:000e1a30       ?ImFileRead@@YA_KPAX_K1PAU_iobuf@@@Z 005f4a30 f   imgui.obj
 0002:000e1aa0       ?ImFileWrite@@YA_KPBX_K1PAU_iobuf@@@Z 005f4aa0 f   imgui.obj
 0002:000e1c90       ?ImFormatString@@YAHPADIPBDZZ 005f4c90 f   imgui.obj
 0002:000e1d50       ?ImFormatStringToTempBuffer@@YAXPAPBD0PBDZZ 005f4d50 f   imgui.obj
 0002:000e1e10       ?ImFormatStringToTempBufferV@@YAXPAPBD0PBDPAD@Z 005f4e10 f   imgui.obj
 0002:000e1ec0       ?ImFormatStringV@@YAHPADIPBD0@Z 005f4ec0 f   imgui.obj
 0002:000e1f70       ?ImGetDirQuadrantFromDelta@@YAHMM@Z 005f4f70 f   imgui.obj
 0002:000e3180       ?ImHashData@@YAIPBXII@Z    005f6180 f   imgui.obj
 0002:000e3270       ?ImHashStr@@YAIPBDII@Z     005f6270 f   imgui.obj
 0002:000e3620       ?ImLineClosestPoint@@YA?AUImVec2@@ABU1@00@Z 005f6620 f   imgui.obj
 0002:000e3a80       ?ImStrSkipBlank@@YAPBDPBD@Z 005f6a80 f   imgui.obj
 0002:000e3b10       ?ImStrTrimBlanks@@YAXPAD@Z 005f6b10 f   imgui.obj
 0002:000e3c50       ?ImStrbolW@@YAPBGPBG0@Z    005f6c50 f   imgui.obj
 0002:000e3cd0       ?ImStrchrRange@@YAPBDPBD0D@Z 005f6cd0 f   imgui.obj
 0002:000e3d40       ?ImStrdup@@YAPADPBD@Z      005f6d40 f   imgui.obj
 0002:000e3dd0       ?ImStrdupcpy@@YAPADPADPAIPBD@Z 005f6dd0 f   imgui.obj
 0002:000e3ed0       ?ImStreolRange@@YAPBDPBD0@Z 005f6ed0 f   imgui.obj
 0002:000e3f60       ?ImStricmp@@YAHPBD0@Z      005f6f60 f   imgui.obj
 0002:000e4010       ?ImStristr@@YAPBDPBD000@Z  005f7010 f   imgui.obj
 0002:000e4170       ?ImStrlenW@@YAHPBG@Z       005f7170 f   imgui.obj
 0002:000e4200       ?ImStrncpy@@YAXPADPBDI@Z   005f7200 f   imgui.obj
 0002:000e4290       ?ImStrnicmp@@YAHPBD0I@Z    005f7290 f   imgui.obj
 0002:000e4360       ?ImTextCharFromUtf8@@YAHPAIPBD1@Z 005f7360 f   imgui.obj
 0002:000e4790       ?ImTextCharToUtf8@@YAPBDQADI@Z 005f7790 f   imgui.obj
 0002:000e49d0       ?ImTextCountCharsFromUtf8@@YAHPBD0@Z 005f79d0 f   imgui.obj
 0002:000e4af0       ?ImTextCountUtf8BytesFromChar@@YAHPBD0@Z 005f7af0 f   imgui.obj
 0002:000e4b50       ?ImTextCountUtf8BytesFromStr@@YAHPBG0@Z 005f7b50 f   imgui.obj
 0002:000e4bf0       ?ImTextStrFromUtf8@@YAHPAGHPBD1PAPBD@Z 005f7bf0 f   imgui.obj
 0002:000e4ce0       ?ImTextStrToUtf8@@YAHPADHPBG1@Z 005f7ce0 f   imgui.obj
 0002:000e4e20       ?ImTriangleArea@@YAMABUImVec2@@00@Z 005f7e20 f i imgui.obj
 0002:000e4f10       ?ImTriangleBarycentricCoords@@YAXABUImVec2@@000AAM11@Z 005f7f10 f   imgui.obj
 0002:000e50c0       ?ImTriangleClosestPoint@@YA?AUImVec2@@ABU1@000@Z 005f80c0 f   imgui.obj
 0002:000e5320       ?ImTriangleContainsPoint@@YA_NABUImVec2@@000@Z 005f8320 f   imgui.obj
 0002:000e5550       ?Indent@ImGui@@YAXM@Z      005f8550 f   imgui.obj
 0002:000e5650       ?Initialize@ImGui@@YAXXZ   005f8650 f   imgui.obj
 0002:000e5910       ?IsActiveIdUsingNavDir@ImGui@@YA_NH@Z 005f8910 f i imgui.obj
 0002:000e59a0       ?IsAliasKey@ImGui@@YA_NW4ImGuiKey@@@Z 005f89a0 f i imgui.obj
 0002:000e5a20       ?IsAnyItemActive@ImGui@@YA_NXZ 005f8a20 f   imgui.obj
 0002:000e5ab0       ?IsAnyItemFocused@ImGui@@YA_NXZ 005f8ab0 f   imgui.obj
 0002:000e5b50       ?IsAnyItemHovered@ImGui@@YA_NXZ 005f8b50 f   imgui.obj
 0002:000e5bf0       ?IsAnyMouseDown@ImGui@@YA_NXZ 005f8bf0 f   imgui.obj
 0002:000e5c80       ?IsBuilt@ImFontAtlas@@QBE_NXZ 005f8c80 f i imgui.obj
 0002:000e5d10       ?IsClippedEx@ImGui@@YA_NABUImRect@@I@Z 005f8d10 f   imgui.obj
 0002:000e5de0       ?IsDataType@ImGuiPayload@@QBE_NPBD@Z 005f8de0 f i imgui.obj
 0002:000e5e80       ?IsDragDropActive@ImGui@@YA_NXZ 005f8e80 f   imgui.obj
 0002:000e5ee0       ?IsDragDropPayloadBeingAccepted@ImGui@@YA_NXZ 005f8ee0 f   imgui.obj
 0002:000e5f80       ?IsGamepadKey@ImGui@@YA_NW4ImGuiKey@@@Z 005f8f80 f i imgui.obj
 0002:000e6000       ?IsInverted@ImRect@@QBE_NXZ 005f9000 f i imgui.obj
 0002:000e6070       ?IsItemActivated@ImGui@@YA_NXZ 005f9070 f   imgui.obj
 0002:000e6110       ?IsItemActive@ImGui@@YA_NXZ 005f9110 f   imgui.obj
 0002:000e61c0       ?IsItemClicked@ImGui@@YA_NH@Z 005f91c0 f   imgui.obj
 0002:000e6260       ?IsItemDeactivated@ImGui@@YA_NXZ 005f9260 f   imgui.obj
 0002:000e6360       ?IsItemDeactivatedAfterEdit@ImGui@@YA_NXZ 005f9360 f   imgui.obj
 0002:000e6420       ?IsItemEdited@ImGui@@YA_NXZ 005f9420 f   imgui.obj
 0002:000e64b0       ?IsItemFocused@ImGui@@YA_NXZ 005f94b0 f   imgui.obj
 0002:000e6530       ?IsItemHovered@ImGui@@YA_NH@Z 005f9530 f   imgui.obj
 0002:000e68b0       ?IsItemToggledOpen@ImGui@@YA_NXZ 005f98b0 f   imgui.obj
 0002:000e6930       ?IsItemToggledSelection@ImGui@@YA_NXZ 005f9930 f   imgui.obj
 0002:000e69b0       ?IsItemVisible@ImGui@@YA_NXZ 005f99b0 f   imgui.obj
 0002:000e6a40       ?IsKeyDown@ImGui@@YA_NW4ImGuiKey@@@Z 005f9a40 f   imgui.obj
 0002:000e6aa0       ?IsKeyDown@ImGui@@YA_NW4ImGuiKey@@I@Z 005f9aa0 f   imgui.obj
 0002:000e6b30       ?IsKeyPressed@ImGui@@YA_NW4ImGuiKey@@IH@Z 005f9b30 f   imgui.obj
 0002:000e6d80       ?IsKeyPressed@ImGui@@YA_NW4ImGuiKey@@_N@Z 005f9d80 f   imgui.obj
 0002:000e6e10       ?IsKeyReleased@ImGui@@YA_NW4ImGuiKey@@@Z 005f9e10 f   imgui.obj
 0002:000e6e70       ?IsKeyReleased@ImGui@@YA_NW4ImGuiKey@@I@Z 005f9e70 f   imgui.obj
 0002:000e6f10       ?IsLegacyKey@ImGui@@YA_NW4ImGuiKey@@@Z 005f9f10 f i imgui.obj
 0002:000e7020       ?IsLoaded@ImFont@@QBE_NXZ  005fa020 f i imgui.obj
 0002:000e70a0       ?IsMouseClicked@ImGui@@YA_NHIH@Z 005fa0a0 f   imgui.obj
 0002:000e72d0       ?IsMouseClicked@ImGui@@YA_NH_N@Z 005fa2d0 f   imgui.obj
 0002:000e7360       ?IsMouseDoubleClicked@ImGui@@YA_NH@Z 005fa360 f   imgui.obj
 0002:000e7450       ?IsMouseDown@ImGui@@YA_NH@Z 005fa450 f   imgui.obj
 0002:000e7540       ?IsMouseDown@ImGui@@YA_NHI@Z 005fa540 f   imgui.obj
 0002:000e7630       ?IsMouseDragPastThreshold@ImGui@@YA_NHM@Z 005fa630 f   imgui.obj
 0002:000e7730       ?IsMouseDragging@ImGui@@YA_NHM@Z 005fa730 f   imgui.obj
 0002:000e7800       ?IsMouseHoveringRect@ImGui@@YA_NABUImVec2@@0_N@Z 005fa800 f   imgui.obj
 0002:000e7990       ?IsMousePosValid@ImGui@@YA_NPBUImVec2@@@Z 005fa990 f   imgui.obj
 0002:000e7b10       ?IsMouseReleased@ImGui@@YA_NH@Z 005fab10 f   imgui.obj
 0002:000e7c00       ?IsMouseReleased@ImGui@@YA_NHI@Z 005fac00 f   imgui.obj
 0002:000e7cf0       ?IsNamedKey@ImGui@@YA_NW4ImGuiKey@@@Z 005facf0 f i imgui.obj
 0002:000e7d70       ?IsNamedKeyOrModKey@ImGui@@YA_NW4ImGuiKey@@@Z 005fad70 f i imgui.obj
 0002:000e7e30       ?IsPopupOpen@ImGui@@YA_NIH@Z 005fae30 f   imgui.obj
 0002:000e8020       ?IsPopupOpen@ImGui@@YA_NPBDH@Z 005fb020 f   imgui.obj
 0002:000e8120       ?IsRectVisible@ImGui@@YA_NABUImVec2@@0@Z 005fb120 f   imgui.obj
 0002:000e81b0       ?IsRectVisible@ImGui@@YA_NABUImVec2@@@Z 005fb1b0 f   imgui.obj
 0002:000e8260       ?IsWindowAbove@ImGui@@YA_NPAUImGuiWindow@@0@Z 005fb260 f   imgui.obj
 0002:000e8400       ?IsWindowAppearing@ImGui@@YA_NXZ 005fb400 f   imgui.obj
 0002:000e8460       ?IsWindowChildOf@ImGui@@YA_NPAUImGuiWindow@@0_N@Z 005fb460 f   imgui.obj
